

Microchip MPLAB XC8 Assembler V3.00 build 20241204225717 
                                                                                               Fri Jun 06 17:40:59 2025

Microchip MPLAB XC8 C Compiler v3.00 (Free license) build 20241204225717 Og1 
     1                           	processor	16F1936
     2                           	pagewidth 120
     3                           	opt	flic
     4                           	psect	idataBANK0,global,class=CODE,space=0,delta=2,noexec
     5                           	psect	nvBANK0,global,class=BANK0,space=1,delta=1,noexec
     6                           	psect	cinit,global,class=CODE,space=0,merge=1,delta=2
     7                           	psect	bssCOMMON,global,class=COMMON,space=1,delta=1,noexec
     8                           	psect	bssBANK0,global,class=BANK0,space=1,delta=1,noexec
     9                           	psect	dataBANK0,global,class=BANK0,space=1,delta=1,noexec
    10                           	psect	inittext,global,class=CODE,space=0,delta=2
    11                           	psect	clrtext,global,class=CODE,space=0,delta=2
    12                           	psect	cstackCOMMON,global,class=COMMON,space=1,delta=1,noexec
    13                           	psect	cstackBANK0,global,class=BANK0,space=1,delta=1,noexec
    14                           	psect	maintext,global,class=CODE,space=0,merge=1,split=1,delta=2
    15                           	psect	text1,local,class=CODE,space=0,merge=1,delta=2
    16                           	psect	text2,local,class=CODE,space=0,merge=1,delta=2
    17                           	psect	text3,local,class=CODE,space=0,merge=1,delta=2
    18                           	psect	text4,local,class=CODE,space=0,merge=1,delta=2
    19                           	psect	text5,local,class=CODE,space=0,merge=1,delta=2
    20                           	psect	text6,local,class=CODE,space=0,merge=1,delta=2
    21                           	psect	text7,local,class=CODE,space=0,merge=1,delta=2
    22                           	psect	text8,local,class=CODE,space=0,merge=1,delta=2,group=1
    23                           	psect	text9,local,class=CODE,space=0,merge=1,delta=2,group=1
    24                           	psect	text10,local,class=CODE,space=0,merge=1,delta=2,group=1
    25                           	psect	text11,local,class=CODE,space=0,merge=1,delta=2
    26                           	psect	text12,local,class=CODE,space=0,merge=1,delta=2
    27                           	psect	text13,local,class=CODE,space=0,merge=1,delta=2
    28                           	psect	text14,local,class=CODE,space=0,merge=1,delta=2
    29                           	psect	text15,local,class=CODE,space=0,merge=1,delta=2
    30                           	psect	text16,local,class=CODE,space=0,merge=1,delta=2
    31                           	psect	text17,local,class=CODE,space=0,merge=1,delta=2
    32                           	psect	text18,local,class=CODE,space=0,merge=1,delta=2
    33                           	psect	text19,local,class=CODE,space=0,merge=1,delta=2
    34                           	psect	text20,local,class=CODE,space=0,merge=1,delta=2
    35                           	psect	text21,local,class=CODE,space=0,merge=1,delta=2
    36                           	psect	text22,local,class=CODE,space=0,merge=1,delta=2
    37                           	psect	text23,local,class=CODE,space=0,merge=1,delta=2
    38                           	psect	text24,local,class=CODE,space=0,merge=1,delta=2,group=1
    39                           	psect	text25,local,class=CODE,space=0,merge=1,delta=2
    40                           	psect	intentry,global,class=CODE,space=0,delta=2
    41                           	psect	text27,local,class=CODE,space=0,merge=1,delta=2
    42                           	psect	text28,local,class=CODE,space=0,merge=1,delta=2
    43                           	psect	config,global,abs,ovrld,class=CONFIG,space=4,delta=2,noexec
    44                           	dabs	1,0x7E,2
    45     0000                     
    46                           ; Generated 27/03/2025 GMT
    47                           ; 
    48                           ; Copyright © 2025, Microchip Technology Inc. and its subsidiaries ("Microchip")
    49                           ; All rights reserved.
    50                           ; 
    51                           ; This software is developed by Microchip Technology Inc. and its subsidiaries ("Microch
      +                          ip").
    52                           ; 
    53                           ; Redistribution and use in source and binary forms, with or without modification, are
    54                           ; permitted provided that the following conditions are met:
    55                           ; 
    56                           ;     1. Redistributions of source code must retain the above copyright notice, this lis
      +                          t of
    57                           ;        conditions and the following disclaimer.
    58                           ; 
    59                           ;     2. Redistributions in binary form must reproduce the above copyright notice, this 
      +                          list
    60                           ;        of conditions and the following disclaimer in the documentation and/or other
    61                           ;        materials provided with the distribution. Publication is not required when
    62                           ;        this file is used in an embedded application.
    63                           ; 
    64                           ;     3. Microchip's name may not be used to endorse or promote products derived from th
      +                          is
    65                           ;        software without specific prior written permission.
    66                           ; 
    67                           ; THIS SOFTWARE IS PROVIDED BY MICROCHIP "AS IS" AND ANY EXPRESS OR IMPLIED WARRANTIES,
    68                           ; INCLUDING, BUT NOT LIMITED TO, THE IMPLIED WARRANTIES OF MERCHANTABILITY AND FITNESS F
      +                          OR
    69                           ; PURPOSE ARE DISCLAIMED.  IN NO EVENT SHALL MICROCHIP BE LIABLE FOR ANY DIRECT, INDIREC
      +                          T,
    70                           ; INCIDENTAL, SPECIAL, EXEMPLARY, OR CONSEQUENTIAL DAMAGES (INCLUDING BUT NOT LIMITED TO
    71                           ; PROCUREMENT OF SUBSTITUTE GOODS OR SERVICES; LOSS OF USE, DATA OR PROFITS; OR BUSINESS
    72                           ; INTERRUPTION) HOWSOEVER CAUSED AND ON ANY THEORY OF LIABILITY, WHETHER IN CONTRACT, ST
      +                          RICT
    73                           ; LIABILITY, OR TORT (INCLUDING NEGLIGENCE OR OTHERWISE) ARISING IN ANY WAY OUT OF THE U
      +                          SE OF
    74                           ; THIS SOFTWARE, EVEN IF ADVISED OF THE POSSIBILITY OF SUCH DAMAGE.
    75                           ; 
    76                           ; 
    77                           ; Code-generator required, PIC16F1936 Definitions
    78                           ; 
    79                           ; SFR Addresses
    80     0008                     bsr             equ	8
    81     0005                     fsr0h           equ	5
    82     0004                     fsr0l           equ	4
    83     0007                     fsr1h           equ	7
    84     0006                     fsr1l           equ	6
    85     0000                     indf            equ	0
    86     0000                     indf0           equ	0
    87     0001                     indf1           equ	1
    88     000B                     intcon          equ	11
    89     0002                     pc              equ	2
    90     0002                     pcl             equ	2
    91     000A                     pclath          equ	10
    92     0003                     status          equ	3
    93     0009                     wreg            equ	9
    94     0000                     INDF0           equ	0	;# 
    95     0001                     INDF1           equ	1	;# 
    96     0002                     PCL             equ	2	;# 
    97     0003                     STATUS          equ	3	;# 
    98     0004                     FSR0L           equ	4	;# 
    99     0005                     FSR0H           equ	5	;# 
   100     0006                     FSR1L           equ	6	;# 
   101     0007                     FSR1H           equ	7	;# 
   102     0008                     BSR             equ	8	;# 
   103     0009                     WREG            equ	9	;# 
   104     000A                     PCLATH          equ	10	;# 
   105     000B                     INTCON          equ	11	;# 
   106     000C                     PORTA           equ	12	;# 
   107     000D                     PORTB           equ	13	;# 
   108     000E                     PORTC           equ	14	;# 
   109     0010                     PORTE           equ	16	;# 
   110     0011                     PIR1            equ	17	;# 
   111     0012                     PIR2            equ	18	;# 
   112     0013                     PIR3            equ	19	;# 
   113     0015                     TMR0            equ	21	;# 
   114     0016                     TMR1            equ	22	;# 
   115     0016                     TMR1L           equ	22	;# 
   116     0017                     TMR1H           equ	23	;# 
   117     0018                     T1CON           equ	24	;# 
   118     0019                     T1GCON          equ	25	;# 
   119     001A                     TMR2            equ	26	;# 
   120     001B                     PR2             equ	27	;# 
   121     001C                     T2CON           equ	28	;# 
   122     001E                     CPSCON0         equ	30	;# 
   123     001F                     CPSCON1         equ	31	;# 
   124     008C                     TRISA           equ	140	;# 
   125     008D                     TRISB           equ	141	;# 
   126     008E                     TRISC           equ	142	;# 
   127     0090                     TRISE           equ	144	;# 
   128     0091                     PIE1            equ	145	;# 
   129     0092                     PIE2            equ	146	;# 
   130     0093                     PIE3            equ	147	;# 
   131     0095                     OPTION_REG      equ	149	;# 
   132     0096                     PCON            equ	150	;# 
   133     0097                     WDTCON          equ	151	;# 
   134     0098                     OSCTUNE         equ	152	;# 
   135     0099                     OSCCON          equ	153	;# 
   136     009A                     OSCSTAT         equ	154	;# 
   137     009B                     ADRES           equ	155	;# 
   138     009B                     ADRESL          equ	155	;# 
   139     009C                     ADRESH          equ	156	;# 
   140     009D                     ADCON0          equ	157	;# 
   141     009E                     ADCON1          equ	158	;# 
   142     010C                     LATA            equ	268	;# 
   143     010D                     LATB            equ	269	;# 
   144     010E                     LATC            equ	270	;# 
   145     0110                     LATE            equ	272	;# 
   146     0111                     CM1CON0         equ	273	;# 
   147     0112                     CM1CON1         equ	274	;# 
   148     0113                     CM2CON0         equ	275	;# 
   149     0114                     CM2CON1         equ	276	;# 
   150     0115                     CMOUT           equ	277	;# 
   151     0116                     BORCON          equ	278	;# 
   152     0117                     FVRCON          equ	279	;# 
   153     0118                     DACCON0         equ	280	;# 
   154     0119                     DACCON1         equ	281	;# 
   155     011A                     SRCON0          equ	282	;# 
   156     011B                     SRCON1          equ	283	;# 
   157     011D                     APFCON          equ	285	;# 
   158     018C                     ANSELA          equ	396	;# 
   159     018D                     ANSELB          equ	397	;# 
   160     0191                     EEADR           equ	401	;# 
   161     0191                     EEADRL          equ	401	;# 
   162     0192                     EEADRH          equ	402	;# 
   163     0193                     EEDAT           equ	403	;# 
   164     0193                     EEDATL          equ	403	;# 
   165     0193                     EEDATA          equ	403	;# 
   166     0194                     EEDATH          equ	404	;# 
   167     0195                     EECON1          equ	405	;# 
   168     0196                     EECON2          equ	406	;# 
   169     0199                     RCREG           equ	409	;# 
   170     019A                     TXREG           equ	410	;# 
   171     019B                     SP1BRG          equ	411	;# 
   172     019B                     SP1BRGL         equ	411	;# 
   173     019B                     SPBRG           equ	411	;# 
   174     019B                     SPBRGL          equ	411	;# 
   175     019C                     SP1BRGH         equ	412	;# 
   176     019C                     SPBRGH          equ	412	;# 
   177     019D                     RCSTA           equ	413	;# 
   178     019E                     TXSTA           equ	414	;# 
   179     019F                     BAUDCON         equ	415	;# 
   180     020D                     WPUB            equ	525	;# 
   181     0210                     WPUE            equ	528	;# 
   182     0211                     SSPBUF          equ	529	;# 
   183     0212                     SSPADD          equ	530	;# 
   184     0213                     SSPMSK          equ	531	;# 
   185     0214                     SSPSTAT         equ	532	;# 
   186     0215                     SSPCON1         equ	533	;# 
   187     0215                     SSPCON          equ	533	;# 
   188     0216                     SSPCON2         equ	534	;# 
   189     0217                     SSPCON3         equ	535	;# 
   190     0291                     CCPR1           equ	657	;# 
   191     0291                     CCPR1L          equ	657	;# 
   192     0292                     CCPR1H          equ	658	;# 
   193     0293                     CCP1CON         equ	659	;# 
   194     0294                     PWM1CON         equ	660	;# 
   195     0295                     CCP1AS          equ	661	;# 
   196     0295                     ECCP1AS         equ	661	;# 
   197     0296                     PSTR1CON        equ	662	;# 
   198     0298                     CCPR2           equ	664	;# 
   199     0298                     CCPR2L          equ	664	;# 
   200     0299                     CCPR2H          equ	665	;# 
   201     029A                     CCP2CON         equ	666	;# 
   202     029B                     PWM2CON         equ	667	;# 
   203     029C                     CCP2AS          equ	668	;# 
   204     029C                     ECCP2AS         equ	668	;# 
   205     029D                     PSTR2CON        equ	669	;# 
   206     029E                     CCPTMRS0        equ	670	;# 
   207     029F                     CCPTMRS1        equ	671	;# 
   208     0311                     CCPR3           equ	785	;# 
   209     0311                     CCPR3L          equ	785	;# 
   210     0312                     CCPR3H          equ	786	;# 
   211     0313                     CCP3CON         equ	787	;# 
   212     0314                     PWM3CON         equ	788	;# 
   213     0315                     CCP3AS          equ	789	;# 
   214     0315                     ECCP3AS         equ	789	;# 
   215     0316                     PSTR3CON        equ	790	;# 
   216     0318                     CCPR4           equ	792	;# 
   217     0318                     CCPR4L          equ	792	;# 
   218     0319                     CCPR4H          equ	793	;# 
   219     031A                     CCP4CON         equ	794	;# 
   220     031C                     CCPR5           equ	796	;# 
   221     031C                     CCPR5L          equ	796	;# 
   222     031D                     CCPR5H          equ	797	;# 
   223     031E                     CCP5CON         equ	798	;# 
   224     0394                     IOCBP           equ	916	;# 
   225     0395                     IOCBN           equ	917	;# 
   226     0396                     IOCBF           equ	918	;# 
   227     0415                     TMR4            equ	1045	;# 
   228     0416                     PR4             equ	1046	;# 
   229     0417                     T4CON           equ	1047	;# 
   230     041C                     TMR6            equ	1052	;# 
   231     041D                     PR6             equ	1053	;# 
   232     041E                     T6CON           equ	1054	;# 
   233     0791                     LCDCON          equ	1937	;# 
   234     0792                     LCDPS           equ	1938	;# 
   235     0793                     LCDREF          equ	1939	;# 
   236     0794                     LCDCST          equ	1940	;# 
   237     0795                     LCDRL           equ	1941	;# 
   238     0798                     LCDSE0          equ	1944	;# 
   239     0799                     LCDSE1          equ	1945	;# 
   240     07A0                     LCDDATA0        equ	1952	;# 
   241     07A1                     LCDDATA1        equ	1953	;# 
   242     07A3                     LCDDATA3        equ	1955	;# 
   243     07A4                     LCDDATA4        equ	1956	;# 
   244     07A6                     LCDDATA6        equ	1958	;# 
   245     07A7                     LCDDATA7        equ	1959	;# 
   246     07A9                     LCDDATA9        equ	1961	;# 
   247     07AA                     LCDDATA10       equ	1962	;# 
   248     0FE4                     STATUS_SHAD     equ	4068	;# 
   249     0FE5                     WREG_SHAD       equ	4069	;# 
   250     0FE6                     BSR_SHAD        equ	4070	;# 
   251     0FE7                     PCLATH_SHAD     equ	4071	;# 
   252     0FE8                     FSR0L_SHAD      equ	4072	;# 
   253     0FE9                     FSR0H_SHAD      equ	4073	;# 
   254     0FEA                     FSR1L_SHAD      equ	4074	;# 
   255     0FEB                     FSR1H_SHAD      equ	4075	;# 
   256     0FED                     STKPTR          equ	4077	;# 
   257     0FEE                     TOSL            equ	4078	;# 
   258     0FEF                     TOSH            equ	4079	;# 
   259     0000                     INDF0           equ	0	;# 
   260     0001                     INDF1           equ	1	;# 
   261     0002                     PCL             equ	2	;# 
   262     0003                     STATUS          equ	3	;# 
   263     0004                     FSR0L           equ	4	;# 
   264     0005                     FSR0H           equ	5	;# 
   265     0006                     FSR1L           equ	6	;# 
   266     0007                     FSR1H           equ	7	;# 
   267     0008                     BSR             equ	8	;# 
   268     0009                     WREG            equ	9	;# 
   269     000A                     PCLATH          equ	10	;# 
   270     000B                     INTCON          equ	11	;# 
   271     000C                     PORTA           equ	12	;# 
   272     000D                     PORTB           equ	13	;# 
   273     000E                     PORTC           equ	14	;# 
   274     0010                     PORTE           equ	16	;# 
   275     0011                     PIR1            equ	17	;# 
   276     0012                     PIR2            equ	18	;# 
   277     0013                     PIR3            equ	19	;# 
   278     0015                     TMR0            equ	21	;# 
   279     0016                     TMR1            equ	22	;# 
   280     0016                     TMR1L           equ	22	;# 
   281     0017                     TMR1H           equ	23	;# 
   282     0018                     T1CON           equ	24	;# 
   283     0019                     T1GCON          equ	25	;# 
   284     001A                     TMR2            equ	26	;# 
   285     001B                     PR2             equ	27	;# 
   286     001C                     T2CON           equ	28	;# 
   287     001E                     CPSCON0         equ	30	;# 
   288     001F                     CPSCON1         equ	31	;# 
   289     008C                     TRISA           equ	140	;# 
   290     008D                     TRISB           equ	141	;# 
   291     008E                     TRISC           equ	142	;# 
   292     0090                     TRISE           equ	144	;# 
   293     0091                     PIE1            equ	145	;# 
   294     0092                     PIE2            equ	146	;# 
   295     0093                     PIE3            equ	147	;# 
   296     0095                     OPTION_REG      equ	149	;# 
   297     0096                     PCON            equ	150	;# 
   298     0097                     WDTCON          equ	151	;# 
   299     0098                     OSCTUNE         equ	152	;# 
   300     0099                     OSCCON          equ	153	;# 
   301     009A                     OSCSTAT         equ	154	;# 
   302     009B                     ADRES           equ	155	;# 
   303     009B                     ADRESL          equ	155	;# 
   304     009C                     ADRESH          equ	156	;# 
   305     009D                     ADCON0          equ	157	;# 
   306     009E                     ADCON1          equ	158	;# 
   307     010C                     LATA            equ	268	;# 
   308     010D                     LATB            equ	269	;# 
   309     010E                     LATC            equ	270	;# 
   310     0110                     LATE            equ	272	;# 
   311     0111                     CM1CON0         equ	273	;# 
   312     0112                     CM1CON1         equ	274	;# 
   313     0113                     CM2CON0         equ	275	;# 
   314     0114                     CM2CON1         equ	276	;# 
   315     0115                     CMOUT           equ	277	;# 
   316     0116                     BORCON          equ	278	;# 
   317     0117                     FVRCON          equ	279	;# 
   318     0118                     DACCON0         equ	280	;# 
   319     0119                     DACCON1         equ	281	;# 
   320     011A                     SRCON0          equ	282	;# 
   321     011B                     SRCON1          equ	283	;# 
   322     011D                     APFCON          equ	285	;# 
   323     018C                     ANSELA          equ	396	;# 
   324     018D                     ANSELB          equ	397	;# 
   325     0191                     EEADR           equ	401	;# 
   326     0191                     EEADRL          equ	401	;# 
   327     0192                     EEADRH          equ	402	;# 
   328     0193                     EEDAT           equ	403	;# 
   329     0193                     EEDATL          equ	403	;# 
   330     0193                     EEDATA          equ	403	;# 
   331     0194                     EEDATH          equ	404	;# 
   332     0195                     EECON1          equ	405	;# 
   333     0196                     EECON2          equ	406	;# 
   334     0199                     RCREG           equ	409	;# 
   335     019A                     TXREG           equ	410	;# 
   336     019B                     SP1BRG          equ	411	;# 
   337     019B                     SP1BRGL         equ	411	;# 
   338     019B                     SPBRG           equ	411	;# 
   339     019B                     SPBRGL          equ	411	;# 
   340     019C                     SP1BRGH         equ	412	;# 
   341     019C                     SPBRGH          equ	412	;# 
   342     019D                     RCSTA           equ	413	;# 
   343     019E                     TXSTA           equ	414	;# 
   344     019F                     BAUDCON         equ	415	;# 
   345     020D                     WPUB            equ	525	;# 
   346     0210                     WPUE            equ	528	;# 
   347     0211                     SSPBUF          equ	529	;# 
   348     0212                     SSPADD          equ	530	;# 
   349     0213                     SSPMSK          equ	531	;# 
   350     0214                     SSPSTAT         equ	532	;# 
   351     0215                     SSPCON1         equ	533	;# 
   352     0215                     SSPCON          equ	533	;# 
   353     0216                     SSPCON2         equ	534	;# 
   354     0217                     SSPCON3         equ	535	;# 
   355     0291                     CCPR1           equ	657	;# 
   356     0291                     CCPR1L          equ	657	;# 
   357     0292                     CCPR1H          equ	658	;# 
   358     0293                     CCP1CON         equ	659	;# 
   359     0294                     PWM1CON         equ	660	;# 
   360     0295                     CCP1AS          equ	661	;# 
   361     0295                     ECCP1AS         equ	661	;# 
   362     0296                     PSTR1CON        equ	662	;# 
   363     0298                     CCPR2           equ	664	;# 
   364     0298                     CCPR2L          equ	664	;# 
   365     0299                     CCPR2H          equ	665	;# 
   366     029A                     CCP2CON         equ	666	;# 
   367     029B                     PWM2CON         equ	667	;# 
   368     029C                     CCP2AS          equ	668	;# 
   369     029C                     ECCP2AS         equ	668	;# 
   370     029D                     PSTR2CON        equ	669	;# 
   371     029E                     CCPTMRS0        equ	670	;# 
   372     029F                     CCPTMRS1        equ	671	;# 
   373     0311                     CCPR3           equ	785	;# 
   374     0311                     CCPR3L          equ	785	;# 
   375     0312                     CCPR3H          equ	786	;# 
   376     0313                     CCP3CON         equ	787	;# 
   377     0314                     PWM3CON         equ	788	;# 
   378     0315                     CCP3AS          equ	789	;# 
   379     0315                     ECCP3AS         equ	789	;# 
   380     0316                     PSTR3CON        equ	790	;# 
   381     0318                     CCPR4           equ	792	;# 
   382     0318                     CCPR4L          equ	792	;# 
   383     0319                     CCPR4H          equ	793	;# 
   384     031A                     CCP4CON         equ	794	;# 
   385     031C                     CCPR5           equ	796	;# 
   386     031C                     CCPR5L          equ	796	;# 
   387     031D                     CCPR5H          equ	797	;# 
   388     031E                     CCP5CON         equ	798	;# 
   389     0394                     IOCBP           equ	916	;# 
   390     0395                     IOCBN           equ	917	;# 
   391     0396                     IOCBF           equ	918	;# 
   392     0415                     TMR4            equ	1045	;# 
   393     0416                     PR4             equ	1046	;# 
   394     0417                     T4CON           equ	1047	;# 
   395     041C                     TMR6            equ	1052	;# 
   396     041D                     PR6             equ	1053	;# 
   397     041E                     T6CON           equ	1054	;# 
   398     0791                     LCDCON          equ	1937	;# 
   399     0792                     LCDPS           equ	1938	;# 
   400     0793                     LCDREF          equ	1939	;# 
   401     0794                     LCDCST          equ	1940	;# 
   402     0795                     LCDRL           equ	1941	;# 
   403     0798                     LCDSE0          equ	1944	;# 
   404     0799                     LCDSE1          equ	1945	;# 
   405     07A0                     LCDDATA0        equ	1952	;# 
   406     07A1                     LCDDATA1        equ	1953	;# 
   407     07A3                     LCDDATA3        equ	1955	;# 
   408     07A4                     LCDDATA4        equ	1956	;# 
   409     07A6                     LCDDATA6        equ	1958	;# 
   410     07A7                     LCDDATA7        equ	1959	;# 
   411     07A9                     LCDDATA9        equ	1961	;# 
   412     07AA                     LCDDATA10       equ	1962	;# 
   413     0FE4                     STATUS_SHAD     equ	4068	;# 
   414     0FE5                     WREG_SHAD       equ	4069	;# 
   415     0FE6                     BSR_SHAD        equ	4070	;# 
   416     0FE7                     PCLATH_SHAD     equ	4071	;# 
   417     0FE8                     FSR0L_SHAD      equ	4072	;# 
   418     0FE9                     FSR0H_SHAD      equ	4073	;# 
   419     0FEA                     FSR1L_SHAD      equ	4074	;# 
   420     0FEB                     FSR1H_SHAD      equ	4075	;# 
   421     0FED                     STKPTR          equ	4077	;# 
   422     0FEE                     TOSL            equ	4078	;# 
   423     0FEF                     TOSH            equ	4079	;# 
   424     0000                     INDF0           equ	0	;# 
   425     0001                     INDF1           equ	1	;# 
   426     0002                     PCL             equ	2	;# 
   427     0003                     STATUS          equ	3	;# 
   428     0004                     FSR0L           equ	4	;# 
   429     0005                     FSR0H           equ	5	;# 
   430     0006                     FSR1L           equ	6	;# 
   431     0007                     FSR1H           equ	7	;# 
   432     0008                     BSR             equ	8	;# 
   433     0009                     WREG            equ	9	;# 
   434     000A                     PCLATH          equ	10	;# 
   435     000B                     INTCON          equ	11	;# 
   436     000C                     PORTA           equ	12	;# 
   437     000D                     PORTB           equ	13	;# 
   438     000E                     PORTC           equ	14	;# 
   439     0010                     PORTE           equ	16	;# 
   440     0011                     PIR1            equ	17	;# 
   441     0012                     PIR2            equ	18	;# 
   442     0013                     PIR3            equ	19	;# 
   443     0015                     TMR0            equ	21	;# 
   444     0016                     TMR1            equ	22	;# 
   445     0016                     TMR1L           equ	22	;# 
   446     0017                     TMR1H           equ	23	;# 
   447     0018                     T1CON           equ	24	;# 
   448     0019                     T1GCON          equ	25	;# 
   449     001A                     TMR2            equ	26	;# 
   450     001B                     PR2             equ	27	;# 
   451     001C                     T2CON           equ	28	;# 
   452     001E                     CPSCON0         equ	30	;# 
   453     001F                     CPSCON1         equ	31	;# 
   454     008C                     TRISA           equ	140	;# 
   455     008D                     TRISB           equ	141	;# 
   456     008E                     TRISC           equ	142	;# 
   457     0090                     TRISE           equ	144	;# 
   458     0091                     PIE1            equ	145	;# 
   459     0092                     PIE2            equ	146	;# 
   460     0093                     PIE3            equ	147	;# 
   461     0095                     OPTION_REG      equ	149	;# 
   462     0096                     PCON            equ	150	;# 
   463     0097                     WDTCON          equ	151	;# 
   464     0098                     OSCTUNE         equ	152	;# 
   465     0099                     OSCCON          equ	153	;# 
   466     009A                     OSCSTAT         equ	154	;# 
   467     009B                     ADRES           equ	155	;# 
   468     009B                     ADRESL          equ	155	;# 
   469     009C                     ADRESH          equ	156	;# 
   470     009D                     ADCON0          equ	157	;# 
   471     009E                     ADCON1          equ	158	;# 
   472     010C                     LATA            equ	268	;# 
   473     010D                     LATB            equ	269	;# 
   474     010E                     LATC            equ	270	;# 
   475     0110                     LATE            equ	272	;# 
   476     0111                     CM1CON0         equ	273	;# 
   477     0112                     CM1CON1         equ	274	;# 
   478     0113                     CM2CON0         equ	275	;# 
   479     0114                     CM2CON1         equ	276	;# 
   480     0115                     CMOUT           equ	277	;# 
   481     0116                     BORCON          equ	278	;# 
   482     0117                     FVRCON          equ	279	;# 
   483     0118                     DACCON0         equ	280	;# 
   484     0119                     DACCON1         equ	281	;# 
   485     011A                     SRCON0          equ	282	;# 
   486     011B                     SRCON1          equ	283	;# 
   487     011D                     APFCON          equ	285	;# 
   488     018C                     ANSELA          equ	396	;# 
   489     018D                     ANSELB          equ	397	;# 
   490     0191                     EEADR           equ	401	;# 
   491     0191                     EEADRL          equ	401	;# 
   492     0192                     EEADRH          equ	402	;# 
   493     0193                     EEDAT           equ	403	;# 
   494     0193                     EEDATL          equ	403	;# 
   495     0193                     EEDATA          equ	403	;# 
   496     0194                     EEDATH          equ	404	;# 
   497     0195                     EECON1          equ	405	;# 
   498     0196                     EECON2          equ	406	;# 
   499     0199                     RCREG           equ	409	;# 
   500     019A                     TXREG           equ	410	;# 
   501     019B                     SP1BRG          equ	411	;# 
   502     019B                     SP1BRGL         equ	411	;# 
   503     019B                     SPBRG           equ	411	;# 
   504     019B                     SPBRGL          equ	411	;# 
   505     019C                     SP1BRGH         equ	412	;# 
   506     019C                     SPBRGH          equ	412	;# 
   507     019D                     RCSTA           equ	413	;# 
   508     019E                     TXSTA           equ	414	;# 
   509     019F                     BAUDCON         equ	415	;# 
   510     020D                     WPUB            equ	525	;# 
   511     0210                     WPUE            equ	528	;# 
   512     0211                     SSPBUF          equ	529	;# 
   513     0212                     SSPADD          equ	530	;# 
   514     0213                     SSPMSK          equ	531	;# 
   515     0214                     SSPSTAT         equ	532	;# 
   516     0215                     SSPCON1         equ	533	;# 
   517     0215                     SSPCON          equ	533	;# 
   518     0216                     SSPCON2         equ	534	;# 
   519     0217                     SSPCON3         equ	535	;# 
   520     0291                     CCPR1           equ	657	;# 
   521     0291                     CCPR1L          equ	657	;# 
   522     0292                     CCPR1H          equ	658	;# 
   523     0293                     CCP1CON         equ	659	;# 
   524     0294                     PWM1CON         equ	660	;# 
   525     0295                     CCP1AS          equ	661	;# 
   526     0295                     ECCP1AS         equ	661	;# 
   527     0296                     PSTR1CON        equ	662	;# 
   528     0298                     CCPR2           equ	664	;# 
   529     0298                     CCPR2L          equ	664	;# 
   530     0299                     CCPR2H          equ	665	;# 
   531     029A                     CCP2CON         equ	666	;# 
   532     029B                     PWM2CON         equ	667	;# 
   533     029C                     CCP2AS          equ	668	;# 
   534     029C                     ECCP2AS         equ	668	;# 
   535     029D                     PSTR2CON        equ	669	;# 
   536     029E                     CCPTMRS0        equ	670	;# 
   537     029F                     CCPTMRS1        equ	671	;# 
   538     0311                     CCPR3           equ	785	;# 
   539     0311                     CCPR3L          equ	785	;# 
   540     0312                     CCPR3H          equ	786	;# 
   541     0313                     CCP3CON         equ	787	;# 
   542     0314                     PWM3CON         equ	788	;# 
   543     0315                     CCP3AS          equ	789	;# 
   544     0315                     ECCP3AS         equ	789	;# 
   545     0316                     PSTR3CON        equ	790	;# 
   546     0318                     CCPR4           equ	792	;# 
   547     0318                     CCPR4L          equ	792	;# 
   548     0319                     CCPR4H          equ	793	;# 
   549     031A                     CCP4CON         equ	794	;# 
   550     031C                     CCPR5           equ	796	;# 
   551     031C                     CCPR5L          equ	796	;# 
   552     031D                     CCPR5H          equ	797	;# 
   553     031E                     CCP5CON         equ	798	;# 
   554     0394                     IOCBP           equ	916	;# 
   555     0395                     IOCBN           equ	917	;# 
   556     0396                     IOCBF           equ	918	;# 
   557     0415                     TMR4            equ	1045	;# 
   558     0416                     PR4             equ	1046	;# 
   559     0417                     T4CON           equ	1047	;# 
   560     041C                     TMR6            equ	1052	;# 
   561     041D                     PR6             equ	1053	;# 
   562     041E                     T6CON           equ	1054	;# 
   563     0791                     LCDCON          equ	1937	;# 
   564     0792                     LCDPS           equ	1938	;# 
   565     0793                     LCDREF          equ	1939	;# 
   566     0794                     LCDCST          equ	1940	;# 
   567     0795                     LCDRL           equ	1941	;# 
   568     0798                     LCDSE0          equ	1944	;# 
   569     0799                     LCDSE1          equ	1945	;# 
   570     07A0                     LCDDATA0        equ	1952	;# 
   571     07A1                     LCDDATA1        equ	1953	;# 
   572     07A3                     LCDDATA3        equ	1955	;# 
   573     07A4                     LCDDATA4        equ	1956	;# 
   574     07A6                     LCDDATA6        equ	1958	;# 
   575     07A7                     LCDDATA7        equ	1959	;# 
   576     07A9                     LCDDATA9        equ	1961	;# 
   577     07AA                     LCDDATA10       equ	1962	;# 
   578     0FE4                     STATUS_SHAD     equ	4068	;# 
   579     0FE5                     WREG_SHAD       equ	4069	;# 
   580     0FE6                     BSR_SHAD        equ	4070	;# 
   581     0FE7                     PCLATH_SHAD     equ	4071	;# 
   582     0FE8                     FSR0L_SHAD      equ	4072	;# 
   583     0FE9                     FSR0H_SHAD      equ	4073	;# 
   584     0FEA                     FSR1L_SHAD      equ	4074	;# 
   585     0FEB                     FSR1H_SHAD      equ	4075	;# 
   586     0FED                     STKPTR          equ	4077	;# 
   587     0FEE                     TOSL            equ	4078	;# 
   588     0FEF                     TOSH            equ	4079	;# 
   589     0000                     INDF0           equ	0	;# 
   590     0001                     INDF1           equ	1	;# 
   591     0002                     PCL             equ	2	;# 
   592     0003                     STATUS          equ	3	;# 
   593     0004                     FSR0L           equ	4	;# 
   594     0005                     FSR0H           equ	5	;# 
   595     0006                     FSR1L           equ	6	;# 
   596     0007                     FSR1H           equ	7	;# 
   597     0008                     BSR             equ	8	;# 
   598     0009                     WREG            equ	9	;# 
   599     000A                     PCLATH          equ	10	;# 
   600     000B                     INTCON          equ	11	;# 
   601     000C                     PORTA           equ	12	;# 
   602     000D                     PORTB           equ	13	;# 
   603     000E                     PORTC           equ	14	;# 
   604     0010                     PORTE           equ	16	;# 
   605     0011                     PIR1            equ	17	;# 
   606     0012                     PIR2            equ	18	;# 
   607     0013                     PIR3            equ	19	;# 
   608     0015                     TMR0            equ	21	;# 
   609     0016                     TMR1            equ	22	;# 
   610     0016                     TMR1L           equ	22	;# 
   611     0017                     TMR1H           equ	23	;# 
   612     0018                     T1CON           equ	24	;# 
   613     0019                     T1GCON          equ	25	;# 
   614     001A                     TMR2            equ	26	;# 
   615     001B                     PR2             equ	27	;# 
   616     001C                     T2CON           equ	28	;# 
   617     001E                     CPSCON0         equ	30	;# 
   618     001F                     CPSCON1         equ	31	;# 
   619     008C                     TRISA           equ	140	;# 
   620     008D                     TRISB           equ	141	;# 
   621     008E                     TRISC           equ	142	;# 
   622     0090                     TRISE           equ	144	;# 
   623     0091                     PIE1            equ	145	;# 
   624     0092                     PIE2            equ	146	;# 
   625     0093                     PIE3            equ	147	;# 
   626     0095                     OPTION_REG      equ	149	;# 
   627     0096                     PCON            equ	150	;# 
   628     0097                     WDTCON          equ	151	;# 
   629     0098                     OSCTUNE         equ	152	;# 
   630     0099                     OSCCON          equ	153	;# 
   631     009A                     OSCSTAT         equ	154	;# 
   632     009B                     ADRES           equ	155	;# 
   633     009B                     ADRESL          equ	155	;# 
   634     009C                     ADRESH          equ	156	;# 
   635     009D                     ADCON0          equ	157	;# 
   636     009E                     ADCON1          equ	158	;# 
   637     010C                     LATA            equ	268	;# 
   638     010D                     LATB            equ	269	;# 
   639     010E                     LATC            equ	270	;# 
   640     0110                     LATE            equ	272	;# 
   641     0111                     CM1CON0         equ	273	;# 
   642     0112                     CM1CON1         equ	274	;# 
   643     0113                     CM2CON0         equ	275	;# 
   644     0114                     CM2CON1         equ	276	;# 
   645     0115                     CMOUT           equ	277	;# 
   646     0116                     BORCON          equ	278	;# 
   647     0117                     FVRCON          equ	279	;# 
   648     0118                     DACCON0         equ	280	;# 
   649     0119                     DACCON1         equ	281	;# 
   650     011A                     SRCON0          equ	282	;# 
   651     011B                     SRCON1          equ	283	;# 
   652     011D                     APFCON          equ	285	;# 
   653     018C                     ANSELA          equ	396	;# 
   654     018D                     ANSELB          equ	397	;# 
   655     0191                     EEADR           equ	401	;# 
   656     0191                     EEADRL          equ	401	;# 
   657     0192                     EEADRH          equ	402	;# 
   658     0193                     EEDAT           equ	403	;# 
   659     0193                     EEDATL          equ	403	;# 
   660     0193                     EEDATA          equ	403	;# 
   661     0194                     EEDATH          equ	404	;# 
   662     0195                     EECON1          equ	405	;# 
   663     0196                     EECON2          equ	406	;# 
   664     0199                     RCREG           equ	409	;# 
   665     019A                     TXREG           equ	410	;# 
   666     019B                     SP1BRG          equ	411	;# 
   667     019B                     SP1BRGL         equ	411	;# 
   668     019B                     SPBRG           equ	411	;# 
   669     019B                     SPBRGL          equ	411	;# 
   670     019C                     SP1BRGH         equ	412	;# 
   671     019C                     SPBRGH          equ	412	;# 
   672     019D                     RCSTA           equ	413	;# 
   673     019E                     TXSTA           equ	414	;# 
   674     019F                     BAUDCON         equ	415	;# 
   675     020D                     WPUB            equ	525	;# 
   676     0210                     WPUE            equ	528	;# 
   677     0211                     SSPBUF          equ	529	;# 
   678     0212                     SSPADD          equ	530	;# 
   679     0213                     SSPMSK          equ	531	;# 
   680     0214                     SSPSTAT         equ	532	;# 
   681     0215                     SSPCON1         equ	533	;# 
   682     0215                     SSPCON          equ	533	;# 
   683     0216                     SSPCON2         equ	534	;# 
   684     0217                     SSPCON3         equ	535	;# 
   685     0291                     CCPR1           equ	657	;# 
   686     0291                     CCPR1L          equ	657	;# 
   687     0292                     CCPR1H          equ	658	;# 
   688     0293                     CCP1CON         equ	659	;# 
   689     0294                     PWM1CON         equ	660	;# 
   690     0295                     CCP1AS          equ	661	;# 
   691     0295                     ECCP1AS         equ	661	;# 
   692     0296                     PSTR1CON        equ	662	;# 
   693     0298                     CCPR2           equ	664	;# 
   694     0298                     CCPR2L          equ	664	;# 
   695     0299                     CCPR2H          equ	665	;# 
   696     029A                     CCP2CON         equ	666	;# 
   697     029B                     PWM2CON         equ	667	;# 
   698     029C                     CCP2AS          equ	668	;# 
   699     029C                     ECCP2AS         equ	668	;# 
   700     029D                     PSTR2CON        equ	669	;# 
   701     029E                     CCPTMRS0        equ	670	;# 
   702     029F                     CCPTMRS1        equ	671	;# 
   703     0311                     CCPR3           equ	785	;# 
   704     0311                     CCPR3L          equ	785	;# 
   705     0312                     CCPR3H          equ	786	;# 
   706     0313                     CCP3CON         equ	787	;# 
   707     0314                     PWM3CON         equ	788	;# 
   708     0315                     CCP3AS          equ	789	;# 
   709     0315                     ECCP3AS         equ	789	;# 
   710     0316                     PSTR3CON        equ	790	;# 
   711     0318                     CCPR4           equ	792	;# 
   712     0318                     CCPR4L          equ	792	;# 
   713     0319                     CCPR4H          equ	793	;# 
   714     031A                     CCP4CON         equ	794	;# 
   715     031C                     CCPR5           equ	796	;# 
   716     031C                     CCPR5L          equ	796	;# 
   717     031D                     CCPR5H          equ	797	;# 
   718     031E                     CCP5CON         equ	798	;# 
   719     0394                     IOCBP           equ	916	;# 
   720     0395                     IOCBN           equ	917	;# 
   721     0396                     IOCBF           equ	918	;# 
   722     0415                     TMR4            equ	1045	;# 
   723     0416                     PR4             equ	1046	;# 
   724     0417                     T4CON           equ	1047	;# 
   725     041C                     TMR6            equ	1052	;# 
   726     041D                     PR6             equ	1053	;# 
   727     041E                     T6CON           equ	1054	;# 
   728     0791                     LCDCON          equ	1937	;# 
   729     0792                     LCDPS           equ	1938	;# 
   730     0793                     LCDREF          equ	1939	;# 
   731     0794                     LCDCST          equ	1940	;# 
   732     0795                     LCDRL           equ	1941	;# 
   733     0798                     LCDSE0          equ	1944	;# 
   734     0799                     LCDSE1          equ	1945	;# 
   735     07A0                     LCDDATA0        equ	1952	;# 
   736     07A1                     LCDDATA1        equ	1953	;# 
   737     07A3                     LCDDATA3        equ	1955	;# 
   738     07A4                     LCDDATA4        equ	1956	;# 
   739     07A6                     LCDDATA6        equ	1958	;# 
   740     07A7                     LCDDATA7        equ	1959	;# 
   741     07A9                     LCDDATA9        equ	1961	;# 
   742     07AA                     LCDDATA10       equ	1962	;# 
   743     0FE4                     STATUS_SHAD     equ	4068	;# 
   744     0FE5                     WREG_SHAD       equ	4069	;# 
   745     0FE6                     BSR_SHAD        equ	4070	;# 
   746     0FE7                     PCLATH_SHAD     equ	4071	;# 
   747     0FE8                     FSR0L_SHAD      equ	4072	;# 
   748     0FE9                     FSR0H_SHAD      equ	4073	;# 
   749     0FEA                     FSR1L_SHAD      equ	4074	;# 
   750     0FEB                     FSR1H_SHAD      equ	4075	;# 
   751     0FED                     STKPTR          equ	4077	;# 
   752     0FEE                     TOSL            equ	4078	;# 
   753     0FEF                     TOSH            equ	4079	;# 
   754     0000                     INDF0           equ	0	;# 
   755     0001                     INDF1           equ	1	;# 
   756     0002                     PCL             equ	2	;# 
   757     0003                     STATUS          equ	3	;# 
   758     0004                     FSR0L           equ	4	;# 
   759     0005                     FSR0H           equ	5	;# 
   760     0006                     FSR1L           equ	6	;# 
   761     0007                     FSR1H           equ	7	;# 
   762     0008                     BSR             equ	8	;# 
   763     0009                     WREG            equ	9	;# 
   764     000A                     PCLATH          equ	10	;# 
   765     000B                     INTCON          equ	11	;# 
   766     000C                     PORTA           equ	12	;# 
   767     000D                     PORTB           equ	13	;# 
   768     000E                     PORTC           equ	14	;# 
   769     0010                     PORTE           equ	16	;# 
   770     0011                     PIR1            equ	17	;# 
   771     0012                     PIR2            equ	18	;# 
   772     0013                     PIR3            equ	19	;# 
   773     0015                     TMR0            equ	21	;# 
   774     0016                     TMR1            equ	22	;# 
   775     0016                     TMR1L           equ	22	;# 
   776     0017                     TMR1H           equ	23	;# 
   777     0018                     T1CON           equ	24	;# 
   778     0019                     T1GCON          equ	25	;# 
   779     001A                     TMR2            equ	26	;# 
   780     001B                     PR2             equ	27	;# 
   781     001C                     T2CON           equ	28	;# 
   782     001E                     CPSCON0         equ	30	;# 
   783     001F                     CPSCON1         equ	31	;# 
   784     008C                     TRISA           equ	140	;# 
   785     008D                     TRISB           equ	141	;# 
   786     008E                     TRISC           equ	142	;# 
   787     0090                     TRISE           equ	144	;# 
   788     0091                     PIE1            equ	145	;# 
   789     0092                     PIE2            equ	146	;# 
   790     0093                     PIE3            equ	147	;# 
   791     0095                     OPTION_REG      equ	149	;# 
   792     0096                     PCON            equ	150	;# 
   793     0097                     WDTCON          equ	151	;# 
   794     0098                     OSCTUNE         equ	152	;# 
   795     0099                     OSCCON          equ	153	;# 
   796     009A                     OSCSTAT         equ	154	;# 
   797     009B                     ADRES           equ	155	;# 
   798     009B                     ADRESL          equ	155	;# 
   799     009C                     ADRESH          equ	156	;# 
   800     009D                     ADCON0          equ	157	;# 
   801     009E                     ADCON1          equ	158	;# 
   802     010C                     LATA            equ	268	;# 
   803     010D                     LATB            equ	269	;# 
   804     010E                     LATC            equ	270	;# 
   805     0110                     LATE            equ	272	;# 
   806     0111                     CM1CON0         equ	273	;# 
   807     0112                     CM1CON1         equ	274	;# 
   808     0113                     CM2CON0         equ	275	;# 
   809     0114                     CM2CON1         equ	276	;# 
   810     0115                     CMOUT           equ	277	;# 
   811     0116                     BORCON          equ	278	;# 
   812     0117                     FVRCON          equ	279	;# 
   813     0118                     DACCON0         equ	280	;# 
   814     0119                     DACCON1         equ	281	;# 
   815     011A                     SRCON0          equ	282	;# 
   816     011B                     SRCON1          equ	283	;# 
   817     011D                     APFCON          equ	285	;# 
   818     018C                     ANSELA          equ	396	;# 
   819     018D                     ANSELB          equ	397	;# 
   820     0191                     EEADR           equ	401	;# 
   821     0191                     EEADRL          equ	401	;# 
   822     0192                     EEADRH          equ	402	;# 
   823     0193                     EEDAT           equ	403	;# 
   824     0193                     EEDATL          equ	403	;# 
   825     0193                     EEDATA          equ	403	;# 
   826     0194                     EEDATH          equ	404	;# 
   827     0195                     EECON1          equ	405	;# 
   828     0196                     EECON2          equ	406	;# 
   829     0199                     RCREG           equ	409	;# 
   830     019A                     TXREG           equ	410	;# 
   831     019B                     SP1BRG          equ	411	;# 
   832     019B                     SP1BRGL         equ	411	;# 
   833     019B                     SPBRG           equ	411	;# 
   834     019B                     SPBRGL          equ	411	;# 
   835     019C                     SP1BRGH         equ	412	;# 
   836     019C                     SPBRGH          equ	412	;# 
   837     019D                     RCSTA           equ	413	;# 
   838     019E                     TXSTA           equ	414	;# 
   839     019F                     BAUDCON         equ	415	;# 
   840     020D                     WPUB            equ	525	;# 
   841     0210                     WPUE            equ	528	;# 
   842     0211                     SSPBUF          equ	529	;# 
   843     0212                     SSPADD          equ	530	;# 
   844     0213                     SSPMSK          equ	531	;# 
   845     0214                     SSPSTAT         equ	532	;# 
   846     0215                     SSPCON1         equ	533	;# 
   847     0215                     SSPCON          equ	533	;# 
   848     0216                     SSPCON2         equ	534	;# 
   849     0217                     SSPCON3         equ	535	;# 
   850     0291                     CCPR1           equ	657	;# 
   851     0291                     CCPR1L          equ	657	;# 
   852     0292                     CCPR1H          equ	658	;# 
   853     0293                     CCP1CON         equ	659	;# 
   854     0294                     PWM1CON         equ	660	;# 
   855     0295                     CCP1AS          equ	661	;# 
   856     0295                     ECCP1AS         equ	661	;# 
   857     0296                     PSTR1CON        equ	662	;# 
   858     0298                     CCPR2           equ	664	;# 
   859     0298                     CCPR2L          equ	664	;# 
   860     0299                     CCPR2H          equ	665	;# 
   861     029A                     CCP2CON         equ	666	;# 
   862     029B                     PWM2CON         equ	667	;# 
   863     029C                     CCP2AS          equ	668	;# 
   864     029C                     ECCP2AS         equ	668	;# 
   865     029D                     PSTR2CON        equ	669	;# 
   866     029E                     CCPTMRS0        equ	670	;# 
   867     029F                     CCPTMRS1        equ	671	;# 
   868     0311                     CCPR3           equ	785	;# 
   869     0311                     CCPR3L          equ	785	;# 
   870     0312                     CCPR3H          equ	786	;# 
   871     0313                     CCP3CON         equ	787	;# 
   872     0314                     PWM3CON         equ	788	;# 
   873     0315                     CCP3AS          equ	789	;# 
   874     0315                     ECCP3AS         equ	789	;# 
   875     0316                     PSTR3CON        equ	790	;# 
   876     0318                     CCPR4           equ	792	;# 
   877     0318                     CCPR4L          equ	792	;# 
   878     0319                     CCPR4H          equ	793	;# 
   879     031A                     CCP4CON         equ	794	;# 
   880     031C                     CCPR5           equ	796	;# 
   881     031C                     CCPR5L          equ	796	;# 
   882     031D                     CCPR5H          equ	797	;# 
   883     031E                     CCP5CON         equ	798	;# 
   884     0394                     IOCBP           equ	916	;# 
   885     0395                     IOCBN           equ	917	;# 
   886     0396                     IOCBF           equ	918	;# 
   887     0415                     TMR4            equ	1045	;# 
   888     0416                     PR4             equ	1046	;# 
   889     0417                     T4CON           equ	1047	;# 
   890     041C                     TMR6            equ	1052	;# 
   891     041D                     PR6             equ	1053	;# 
   892     041E                     T6CON           equ	1054	;# 
   893     0791                     LCDCON          equ	1937	;# 
   894     0792                     LCDPS           equ	1938	;# 
   895     0793                     LCDREF          equ	1939	;# 
   896     0794                     LCDCST          equ	1940	;# 
   897     0795                     LCDRL           equ	1941	;# 
   898     0798                     LCDSE0          equ	1944	;# 
   899     0799                     LCDSE1          equ	1945	;# 
   900     07A0                     LCDDATA0        equ	1952	;# 
   901     07A1                     LCDDATA1        equ	1953	;# 
   902     07A3                     LCDDATA3        equ	1955	;# 
   903     07A4                     LCDDATA4        equ	1956	;# 
   904     07A6                     LCDDATA6        equ	1958	;# 
   905     07A7                     LCDDATA7        equ	1959	;# 
   906     07A9                     LCDDATA9        equ	1961	;# 
   907     07AA                     LCDDATA10       equ	1962	;# 
   908     0FE4                     STATUS_SHAD     equ	4068	;# 
   909     0FE5                     WREG_SHAD       equ	4069	;# 
   910     0FE6                     BSR_SHAD        equ	4070	;# 
   911     0FE7                     PCLATH_SHAD     equ	4071	;# 
   912     0FE8                     FSR0L_SHAD      equ	4072	;# 
   913     0FE9                     FSR0H_SHAD      equ	4073	;# 
   914     0FEA                     FSR1L_SHAD      equ	4074	;# 
   915     0FEB                     FSR1H_SHAD      equ	4075	;# 
   916     0FED                     STKPTR          equ	4077	;# 
   917     0FEE                     TOSL            equ	4078	;# 
   918     0FEF                     TOSH            equ	4079	;# 
   919     0000                     INDF0           equ	0	;# 
   920     0001                     INDF1           equ	1	;# 
   921     0002                     PCL             equ	2	;# 
   922     0003                     STATUS          equ	3	;# 
   923     0004                     FSR0L           equ	4	;# 
   924     0005                     FSR0H           equ	5	;# 
   925     0006                     FSR1L           equ	6	;# 
   926     0007                     FSR1H           equ	7	;# 
   927     0008                     BSR             equ	8	;# 
   928     0009                     WREG            equ	9	;# 
   929     000A                     PCLATH          equ	10	;# 
   930     000B                     INTCON          equ	11	;# 
   931     000C                     PORTA           equ	12	;# 
   932     000D                     PORTB           equ	13	;# 
   933     000E                     PORTC           equ	14	;# 
   934     0010                     PORTE           equ	16	;# 
   935     0011                     PIR1            equ	17	;# 
   936     0012                     PIR2            equ	18	;# 
   937     0013                     PIR3            equ	19	;# 
   938     0015                     TMR0            equ	21	;# 
   939     0016                     TMR1            equ	22	;# 
   940     0016                     TMR1L           equ	22	;# 
   941     0017                     TMR1H           equ	23	;# 
   942     0018                     T1CON           equ	24	;# 
   943     0019                     T1GCON          equ	25	;# 
   944     001A                     TMR2            equ	26	;# 
   945     001B                     PR2             equ	27	;# 
   946     001C                     T2CON           equ	28	;# 
   947     001E                     CPSCON0         equ	30	;# 
   948     001F                     CPSCON1         equ	31	;# 
   949     008C                     TRISA           equ	140	;# 
   950     008D                     TRISB           equ	141	;# 
   951     008E                     TRISC           equ	142	;# 
   952     0090                     TRISE           equ	144	;# 
   953     0091                     PIE1            equ	145	;# 
   954     0092                     PIE2            equ	146	;# 
   955     0093                     PIE3            equ	147	;# 
   956     0095                     OPTION_REG      equ	149	;# 
   957     0096                     PCON            equ	150	;# 
   958     0097                     WDTCON          equ	151	;# 
   959     0098                     OSCTUNE         equ	152	;# 
   960     0099                     OSCCON          equ	153	;# 
   961     009A                     OSCSTAT         equ	154	;# 
   962     009B                     ADRES           equ	155	;# 
   963     009B                     ADRESL          equ	155	;# 
   964     009C                     ADRESH          equ	156	;# 
   965     009D                     ADCON0          equ	157	;# 
   966     009E                     ADCON1          equ	158	;# 
   967     010C                     LATA            equ	268	;# 
   968     010D                     LATB            equ	269	;# 
   969     010E                     LATC            equ	270	;# 
   970     0110                     LATE            equ	272	;# 
   971     0111                     CM1CON0         equ	273	;# 
   972     0112                     CM1CON1         equ	274	;# 
   973     0113                     CM2CON0         equ	275	;# 
   974     0114                     CM2CON1         equ	276	;# 
   975     0115                     CMOUT           equ	277	;# 
   976     0116                     BORCON          equ	278	;# 
   977     0117                     FVRCON          equ	279	;# 
   978     0118                     DACCON0         equ	280	;# 
   979     0119                     DACCON1         equ	281	;# 
   980     011A                     SRCON0          equ	282	;# 
   981     011B                     SRCON1          equ	283	;# 
   982     011D                     APFCON          equ	285	;# 
   983     018C                     ANSELA          equ	396	;# 
   984     018D                     ANSELB          equ	397	;# 
   985     0191                     EEADR           equ	401	;# 
   986     0191                     EEADRL          equ	401	;# 
   987     0192                     EEADRH          equ	402	;# 
   988     0193                     EEDAT           equ	403	;# 
   989     0193                     EEDATL          equ	403	;# 
   990     0193                     EEDATA          equ	403	;# 
   991     0194                     EEDATH          equ	404	;# 
   992     0195                     EECON1          equ	405	;# 
   993     0196                     EECON2          equ	406	;# 
   994     0199                     RCREG           equ	409	;# 
   995     019A                     TXREG           equ	410	;# 
   996     019B                     SP1BRG          equ	411	;# 
   997     019B                     SP1BRGL         equ	411	;# 
   998     019B                     SPBRG           equ	411	;# 
   999     019B                     SPBRGL          equ	411	;# 
  1000     019C                     SP1BRGH         equ	412	;# 
  1001     019C                     SPBRGH          equ	412	;# 
  1002     019D                     RCSTA           equ	413	;# 
  1003     019E                     TXSTA           equ	414	;# 
  1004     019F                     BAUDCON         equ	415	;# 
  1005     020D                     WPUB            equ	525	;# 
  1006     0210                     WPUE            equ	528	;# 
  1007     0211                     SSPBUF          equ	529	;# 
  1008     0212                     SSPADD          equ	530	;# 
  1009     0213                     SSPMSK          equ	531	;# 
  1010     0214                     SSPSTAT         equ	532	;# 
  1011     0215                     SSPCON1         equ	533	;# 
  1012     0215                     SSPCON          equ	533	;# 
  1013     0216                     SSPCON2         equ	534	;# 
  1014     0217                     SSPCON3         equ	535	;# 
  1015     0291                     CCPR1           equ	657	;# 
  1016     0291                     CCPR1L          equ	657	;# 
  1017     0292                     CCPR1H          equ	658	;# 
  1018     0293                     CCP1CON         equ	659	;# 
  1019     0294                     PWM1CON         equ	660	;# 
  1020     0295                     CCP1AS          equ	661	;# 
  1021     0295                     ECCP1AS         equ	661	;# 
  1022     0296                     PSTR1CON        equ	662	;# 
  1023     0298                     CCPR2           equ	664	;# 
  1024     0298                     CCPR2L          equ	664	;# 
  1025     0299                     CCPR2H          equ	665	;# 
  1026     029A                     CCP2CON         equ	666	;# 
  1027     029B                     PWM2CON         equ	667	;# 
  1028     029C                     CCP2AS          equ	668	;# 
  1029     029C                     ECCP2AS         equ	668	;# 
  1030     029D                     PSTR2CON        equ	669	;# 
  1031     029E                     CCPTMRS0        equ	670	;# 
  1032     029F                     CCPTMRS1        equ	671	;# 
  1033     0311                     CCPR3           equ	785	;# 
  1034     0311                     CCPR3L          equ	785	;# 
  1035     0312                     CCPR3H          equ	786	;# 
  1036     0313                     CCP3CON         equ	787	;# 
  1037     0314                     PWM3CON         equ	788	;# 
  1038     0315                     CCP3AS          equ	789	;# 
  1039     0315                     ECCP3AS         equ	789	;# 
  1040     0316                     PSTR3CON        equ	790	;# 
  1041     0318                     CCPR4           equ	792	;# 
  1042     0318                     CCPR4L          equ	792	;# 
  1043     0319                     CCPR4H          equ	793	;# 
  1044     031A                     CCP4CON         equ	794	;# 
  1045     031C                     CCPR5           equ	796	;# 
  1046     031C                     CCPR5L          equ	796	;# 
  1047     031D                     CCPR5H          equ	797	;# 
  1048     031E                     CCP5CON         equ	798	;# 
  1049     0394                     IOCBP           equ	916	;# 
  1050     0395                     IOCBN           equ	917	;# 
  1051     0396                     IOCBF           equ	918	;# 
  1052     0415                     TMR4            equ	1045	;# 
  1053     0416                     PR4             equ	1046	;# 
  1054     0417                     T4CON           equ	1047	;# 
  1055     041C                     TMR6            equ	1052	;# 
  1056     041D                     PR6             equ	1053	;# 
  1057     041E                     T6CON           equ	1054	;# 
  1058     0791                     LCDCON          equ	1937	;# 
  1059     0792                     LCDPS           equ	1938	;# 
  1060     0793                     LCDREF          equ	1939	;# 
  1061     0794                     LCDCST          equ	1940	;# 
  1062     0795                     LCDRL           equ	1941	;# 
  1063     0798                     LCDSE0          equ	1944	;# 
  1064     0799                     LCDSE1          equ	1945	;# 
  1065     07A0                     LCDDATA0        equ	1952	;# 
  1066     07A1                     LCDDATA1        equ	1953	;# 
  1067     07A3                     LCDDATA3        equ	1955	;# 
  1068     07A4                     LCDDATA4        equ	1956	;# 
  1069     07A6                     LCDDATA6        equ	1958	;# 
  1070     07A7                     LCDDATA7        equ	1959	;# 
  1071     07A9                     LCDDATA9        equ	1961	;# 
  1072     07AA                     LCDDATA10       equ	1962	;# 
  1073     0FE4                     STATUS_SHAD     equ	4068	;# 
  1074     0FE5                     WREG_SHAD       equ	4069	;# 
  1075     0FE6                     BSR_SHAD        equ	4070	;# 
  1076     0FE7                     PCLATH_SHAD     equ	4071	;# 
  1077     0FE8                     FSR0L_SHAD      equ	4072	;# 
  1078     0FE9                     FSR0H_SHAD      equ	4073	;# 
  1079     0FEA                     FSR1L_SHAD      equ	4074	;# 
  1080     0FEB                     FSR1H_SHAD      equ	4075	;# 
  1081     0FED                     STKPTR          equ	4077	;# 
  1082     0FEE                     TOSL            equ	4078	;# 
  1083     0FEF                     TOSH            equ	4079	;# 
  1084     0000                     INDF0           equ	0	;# 
  1085     0001                     INDF1           equ	1	;# 
  1086     0002                     PCL             equ	2	;# 
  1087     0003                     STATUS          equ	3	;# 
  1088     0004                     FSR0L           equ	4	;# 
  1089     0005                     FSR0H           equ	5	;# 
  1090     0006                     FSR1L           equ	6	;# 
  1091     0007                     FSR1H           equ	7	;# 
  1092     0008                     BSR             equ	8	;# 
  1093     0009                     WREG            equ	9	;# 
  1094     000A                     PCLATH          equ	10	;# 
  1095     000B                     INTCON          equ	11	;# 
  1096     000C                     PORTA           equ	12	;# 
  1097     000D                     PORTB           equ	13	;# 
  1098     000E                     PORTC           equ	14	;# 
  1099     0010                     PORTE           equ	16	;# 
  1100     0011                     PIR1            equ	17	;# 
  1101     0012                     PIR2            equ	18	;# 
  1102     0013                     PIR3            equ	19	;# 
  1103     0015                     TMR0            equ	21	;# 
  1104     0016                     TMR1            equ	22	;# 
  1105     0016                     TMR1L           equ	22	;# 
  1106     0017                     TMR1H           equ	23	;# 
  1107     0018                     T1CON           equ	24	;# 
  1108     0019                     T1GCON          equ	25	;# 
  1109     001A                     TMR2            equ	26	;# 
  1110     001B                     PR2             equ	27	;# 
  1111     001C                     T2CON           equ	28	;# 
  1112     001E                     CPSCON0         equ	30	;# 
  1113     001F                     CPSCON1         equ	31	;# 
  1114     008C                     TRISA           equ	140	;# 
  1115     008D                     TRISB           equ	141	;# 
  1116     008E                     TRISC           equ	142	;# 
  1117     0090                     TRISE           equ	144	;# 
  1118     0091                     PIE1            equ	145	;# 
  1119     0092                     PIE2            equ	146	;# 
  1120     0093                     PIE3            equ	147	;# 
  1121     0095                     OPTION_REG      equ	149	;# 
  1122     0096                     PCON            equ	150	;# 
  1123     0097                     WDTCON          equ	151	;# 
  1124     0098                     OSCTUNE         equ	152	;# 
  1125     0099                     OSCCON          equ	153	;# 
  1126     009A                     OSCSTAT         equ	154	;# 
  1127     009B                     ADRES           equ	155	;# 
  1128     009B                     ADRESL          equ	155	;# 
  1129     009C                     ADRESH          equ	156	;# 
  1130     009D                     ADCON0          equ	157	;# 
  1131     009E                     ADCON1          equ	158	;# 
  1132     010C                     LATA            equ	268	;# 
  1133     010D                     LATB            equ	269	;# 
  1134     010E                     LATC            equ	270	;# 
  1135     0110                     LATE            equ	272	;# 
  1136     0111                     CM1CON0         equ	273	;# 
  1137     0112                     CM1CON1         equ	274	;# 
  1138     0113                     CM2CON0         equ	275	;# 
  1139     0114                     CM2CON1         equ	276	;# 
  1140     0115                     CMOUT           equ	277	;# 
  1141     0116                     BORCON          equ	278	;# 
  1142     0117                     FVRCON          equ	279	;# 
  1143     0118                     DACCON0         equ	280	;# 
  1144     0119                     DACCON1         equ	281	;# 
  1145     011A                     SRCON0          equ	282	;# 
  1146     011B                     SRCON1          equ	283	;# 
  1147     011D                     APFCON          equ	285	;# 
  1148     018C                     ANSELA          equ	396	;# 
  1149     018D                     ANSELB          equ	397	;# 
  1150     0191                     EEADR           equ	401	;# 
  1151     0191                     EEADRL          equ	401	;# 
  1152     0192                     EEADRH          equ	402	;# 
  1153     0193                     EEDAT           equ	403	;# 
  1154     0193                     EEDATL          equ	403	;# 
  1155     0193                     EEDATA          equ	403	;# 
  1156     0194                     EEDATH          equ	404	;# 
  1157     0195                     EECON1          equ	405	;# 
  1158     0196                     EECON2          equ	406	;# 
  1159     0199                     RCREG           equ	409	;# 
  1160     019A                     TXREG           equ	410	;# 
  1161     019B                     SP1BRG          equ	411	;# 
  1162     019B                     SP1BRGL         equ	411	;# 
  1163     019B                     SPBRG           equ	411	;# 
  1164     019B                     SPBRGL          equ	411	;# 
  1165     019C                     SP1BRGH         equ	412	;# 
  1166     019C                     SPBRGH          equ	412	;# 
  1167     019D                     RCSTA           equ	413	;# 
  1168     019E                     TXSTA           equ	414	;# 
  1169     019F                     BAUDCON         equ	415	;# 
  1170     020D                     WPUB            equ	525	;# 
  1171     0210                     WPUE            equ	528	;# 
  1172     0211                     SSPBUF          equ	529	;# 
  1173     0212                     SSPADD          equ	530	;# 
  1174     0213                     SSPMSK          equ	531	;# 
  1175     0214                     SSPSTAT         equ	532	;# 
  1176     0215                     SSPCON1         equ	533	;# 
  1177     0215                     SSPCON          equ	533	;# 
  1178     0216                     SSPCON2         equ	534	;# 
  1179     0217                     SSPCON3         equ	535	;# 
  1180     0291                     CCPR1           equ	657	;# 
  1181     0291                     CCPR1L          equ	657	;# 
  1182     0292                     CCPR1H          equ	658	;# 
  1183     0293                     CCP1CON         equ	659	;# 
  1184     0294                     PWM1CON         equ	660	;# 
  1185     0295                     CCP1AS          equ	661	;# 
  1186     0295                     ECCP1AS         equ	661	;# 
  1187     0296                     PSTR1CON        equ	662	;# 
  1188     0298                     CCPR2           equ	664	;# 
  1189     0298                     CCPR2L          equ	664	;# 
  1190     0299                     CCPR2H          equ	665	;# 
  1191     029A                     CCP2CON         equ	666	;# 
  1192     029B                     PWM2CON         equ	667	;# 
  1193     029C                     CCP2AS          equ	668	;# 
  1194     029C                     ECCP2AS         equ	668	;# 
  1195     029D                     PSTR2CON        equ	669	;# 
  1196     029E                     CCPTMRS0        equ	670	;# 
  1197     029F                     CCPTMRS1        equ	671	;# 
  1198     0311                     CCPR3           equ	785	;# 
  1199     0311                     CCPR3L          equ	785	;# 
  1200     0312                     CCPR3H          equ	786	;# 
  1201     0313                     CCP3CON         equ	787	;# 
  1202     0314                     PWM3CON         equ	788	;# 
  1203     0315                     CCP3AS          equ	789	;# 
  1204     0315                     ECCP3AS         equ	789	;# 
  1205     0316                     PSTR3CON        equ	790	;# 
  1206     0318                     CCPR4           equ	792	;# 
  1207     0318                     CCPR4L          equ	792	;# 
  1208     0319                     CCPR4H          equ	793	;# 
  1209     031A                     CCP4CON         equ	794	;# 
  1210     031C                     CCPR5           equ	796	;# 
  1211     031C                     CCPR5L          equ	796	;# 
  1212     031D                     CCPR5H          equ	797	;# 
  1213     031E                     CCP5CON         equ	798	;# 
  1214     0394                     IOCBP           equ	916	;# 
  1215     0395                     IOCBN           equ	917	;# 
  1216     0396                     IOCBF           equ	918	;# 
  1217     0415                     TMR4            equ	1045	;# 
  1218     0416                     PR4             equ	1046	;# 
  1219     0417                     T4CON           equ	1047	;# 
  1220     041C                     TMR6            equ	1052	;# 
  1221     041D                     PR6             equ	1053	;# 
  1222     041E                     T6CON           equ	1054	;# 
  1223     0791                     LCDCON          equ	1937	;# 
  1224     0792                     LCDPS           equ	1938	;# 
  1225     0793                     LCDREF          equ	1939	;# 
  1226     0794                     LCDCST          equ	1940	;# 
  1227     0795                     LCDRL           equ	1941	;# 
  1228     0798                     LCDSE0          equ	1944	;# 
  1229     0799                     LCDSE1          equ	1945	;# 
  1230     07A0                     LCDDATA0        equ	1952	;# 
  1231     07A1                     LCDDATA1        equ	1953	;# 
  1232     07A3                     LCDDATA3        equ	1955	;# 
  1233     07A4                     LCDDATA4        equ	1956	;# 
  1234     07A6                     LCDDATA6        equ	1958	;# 
  1235     07A7                     LCDDATA7        equ	1959	;# 
  1236     07A9                     LCDDATA9        equ	1961	;# 
  1237     07AA                     LCDDATA10       equ	1962	;# 
  1238     0FE4                     STATUS_SHAD     equ	4068	;# 
  1239     0FE5                     WREG_SHAD       equ	4069	;# 
  1240     0FE6                     BSR_SHAD        equ	4070	;# 
  1241     0FE7                     PCLATH_SHAD     equ	4071	;# 
  1242     0FE8                     FSR0L_SHAD      equ	4072	;# 
  1243     0FE9                     FSR0H_SHAD      equ	4073	;# 
  1244     0FEA                     FSR1L_SHAD      equ	4074	;# 
  1245     0FEB                     FSR1H_SHAD      equ	4075	;# 
  1246     0FED                     STKPTR          equ	4077	;# 
  1247     0FEE                     TOSL            equ	4078	;# 
  1248     0FEF                     TOSH            equ	4079	;# 
  1249     0000                     INDF0           equ	0	;# 
  1250     0001                     INDF1           equ	1	;# 
  1251     0002                     PCL             equ	2	;# 
  1252     0003                     STATUS          equ	3	;# 
  1253     0004                     FSR0L           equ	4	;# 
  1254     0005                     FSR0H           equ	5	;# 
  1255     0006                     FSR1L           equ	6	;# 
  1256     0007                     FSR1H           equ	7	;# 
  1257     0008                     BSR             equ	8	;# 
  1258     0009                     WREG            equ	9	;# 
  1259     000A                     PCLATH          equ	10	;# 
  1260     000B                     INTCON          equ	11	;# 
  1261     000C                     PORTA           equ	12	;# 
  1262     000D                     PORTB           equ	13	;# 
  1263     000E                     PORTC           equ	14	;# 
  1264     0010                     PORTE           equ	16	;# 
  1265     0011                     PIR1            equ	17	;# 
  1266     0012                     PIR2            equ	18	;# 
  1267     0013                     PIR3            equ	19	;# 
  1268     0015                     TMR0            equ	21	;# 
  1269     0016                     TMR1            equ	22	;# 
  1270     0016                     TMR1L           equ	22	;# 
  1271     0017                     TMR1H           equ	23	;# 
  1272     0018                     T1CON           equ	24	;# 
  1273     0019                     T1GCON          equ	25	;# 
  1274     001A                     TMR2            equ	26	;# 
  1275     001B                     PR2             equ	27	;# 
  1276     001C                     T2CON           equ	28	;# 
  1277     001E                     CPSCON0         equ	30	;# 
  1278     001F                     CPSCON1         equ	31	;# 
  1279     008C                     TRISA           equ	140	;# 
  1280     008D                     TRISB           equ	141	;# 
  1281     008E                     TRISC           equ	142	;# 
  1282     0090                     TRISE           equ	144	;# 
  1283     0091                     PIE1            equ	145	;# 
  1284     0092                     PIE2            equ	146	;# 
  1285     0093                     PIE3            equ	147	;# 
  1286     0095                     OPTION_REG      equ	149	;# 
  1287     0096                     PCON            equ	150	;# 
  1288     0097                     WDTCON          equ	151	;# 
  1289     0098                     OSCTUNE         equ	152	;# 
  1290     0099                     OSCCON          equ	153	;# 
  1291     009A                     OSCSTAT         equ	154	;# 
  1292     009B                     ADRES           equ	155	;# 
  1293     009B                     ADRESL          equ	155	;# 
  1294     009C                     ADRESH          equ	156	;# 
  1295     009D                     ADCON0          equ	157	;# 
  1296     009E                     ADCON1          equ	158	;# 
  1297     010C                     LATA            equ	268	;# 
  1298     010D                     LATB            equ	269	;# 
  1299     010E                     LATC            equ	270	;# 
  1300     0110                     LATE            equ	272	;# 
  1301     0111                     CM1CON0         equ	273	;# 
  1302     0112                     CM1CON1         equ	274	;# 
  1303     0113                     CM2CON0         equ	275	;# 
  1304     0114                     CM2CON1         equ	276	;# 
  1305     0115                     CMOUT           equ	277	;# 
  1306     0116                     BORCON          equ	278	;# 
  1307     0117                     FVRCON          equ	279	;# 
  1308     0118                     DACCON0         equ	280	;# 
  1309     0119                     DACCON1         equ	281	;# 
  1310     011A                     SRCON0          equ	282	;# 
  1311     011B                     SRCON1          equ	283	;# 
  1312     011D                     APFCON          equ	285	;# 
  1313     018C                     ANSELA          equ	396	;# 
  1314     018D                     ANSELB          equ	397	;# 
  1315     0191                     EEADR           equ	401	;# 
  1316     0191                     EEADRL          equ	401	;# 
  1317     0192                     EEADRH          equ	402	;# 
  1318     0193                     EEDAT           equ	403	;# 
  1319     0193                     EEDATL          equ	403	;# 
  1320     0193                     EEDATA          equ	403	;# 
  1321     0194                     EEDATH          equ	404	;# 
  1322     0195                     EECON1          equ	405	;# 
  1323     0196                     EECON2          equ	406	;# 
  1324     0199                     RCREG           equ	409	;# 
  1325     019A                     TXREG           equ	410	;# 
  1326     019B                     SP1BRG          equ	411	;# 
  1327     019B                     SP1BRGL         equ	411	;# 
  1328     019B                     SPBRG           equ	411	;# 
  1329     019B                     SPBRGL          equ	411	;# 
  1330     019C                     SP1BRGH         equ	412	;# 
  1331     019C                     SPBRGH          equ	412	;# 
  1332     019D                     RCSTA           equ	413	;# 
  1333     019E                     TXSTA           equ	414	;# 
  1334     019F                     BAUDCON         equ	415	;# 
  1335     020D                     WPUB            equ	525	;# 
  1336     0210                     WPUE            equ	528	;# 
  1337     0211                     SSPBUF          equ	529	;# 
  1338     0212                     SSPADD          equ	530	;# 
  1339     0213                     SSPMSK          equ	531	;# 
  1340     0214                     SSPSTAT         equ	532	;# 
  1341     0215                     SSPCON1         equ	533	;# 
  1342     0215                     SSPCON          equ	533	;# 
  1343     0216                     SSPCON2         equ	534	;# 
  1344     0217                     SSPCON3         equ	535	;# 
  1345     0291                     CCPR1           equ	657	;# 
  1346     0291                     CCPR1L          equ	657	;# 
  1347     0292                     CCPR1H          equ	658	;# 
  1348     0293                     CCP1CON         equ	659	;# 
  1349     0294                     PWM1CON         equ	660	;# 
  1350     0295                     CCP1AS          equ	661	;# 
  1351     0295                     ECCP1AS         equ	661	;# 
  1352     0296                     PSTR1CON        equ	662	;# 
  1353     0298                     CCPR2           equ	664	;# 
  1354     0298                     CCPR2L          equ	664	;# 
  1355     0299                     CCPR2H          equ	665	;# 
  1356     029A                     CCP2CON         equ	666	;# 
  1357     029B                     PWM2CON         equ	667	;# 
  1358     029C                     CCP2AS          equ	668	;# 
  1359     029C                     ECCP2AS         equ	668	;# 
  1360     029D                     PSTR2CON        equ	669	;# 
  1361     029E                     CCPTMRS0        equ	670	;# 
  1362     029F                     CCPTMRS1        equ	671	;# 
  1363     0311                     CCPR3           equ	785	;# 
  1364     0311                     CCPR3L          equ	785	;# 
  1365     0312                     CCPR3H          equ	786	;# 
  1366     0313                     CCP3CON         equ	787	;# 
  1367     0314                     PWM3CON         equ	788	;# 
  1368     0315                     CCP3AS          equ	789	;# 
  1369     0315                     ECCP3AS         equ	789	;# 
  1370     0316                     PSTR3CON        equ	790	;# 
  1371     0318                     CCPR4           equ	792	;# 
  1372     0318                     CCPR4L          equ	792	;# 
  1373     0319                     CCPR4H          equ	793	;# 
  1374     031A                     CCP4CON         equ	794	;# 
  1375     031C                     CCPR5           equ	796	;# 
  1376     031C                     CCPR5L          equ	796	;# 
  1377     031D                     CCPR5H          equ	797	;# 
  1378     031E                     CCP5CON         equ	798	;# 
  1379     0394                     IOCBP           equ	916	;# 
  1380     0395                     IOCBN           equ	917	;# 
  1381     0396                     IOCBF           equ	918	;# 
  1382     0415                     TMR4            equ	1045	;# 
  1383     0416                     PR4             equ	1046	;# 
  1384     0417                     T4CON           equ	1047	;# 
  1385     041C                     TMR6            equ	1052	;# 
  1386     041D                     PR6             equ	1053	;# 
  1387     041E                     T6CON           equ	1054	;# 
  1388     0791                     LCDCON          equ	1937	;# 
  1389     0792                     LCDPS           equ	1938	;# 
  1390     0793                     LCDREF          equ	1939	;# 
  1391     0794                     LCDCST          equ	1940	;# 
  1392     0795                     LCDRL           equ	1941	;# 
  1393     0798                     LCDSE0          equ	1944	;# 
  1394     0799                     LCDSE1          equ	1945	;# 
  1395     07A0                     LCDDATA0        equ	1952	;# 
  1396     07A1                     LCDDATA1        equ	1953	;# 
  1397     07A3                     LCDDATA3        equ	1955	;# 
  1398     07A4                     LCDDATA4        equ	1956	;# 
  1399     07A6                     LCDDATA6        equ	1958	;# 
  1400     07A7                     LCDDATA7        equ	1959	;# 
  1401     07A9                     LCDDATA9        equ	1961	;# 
  1402     07AA                     LCDDATA10       equ	1962	;# 
  1403     0FE4                     STATUS_SHAD     equ	4068	;# 
  1404     0FE5                     WREG_SHAD       equ	4069	;# 
  1405     0FE6                     BSR_SHAD        equ	4070	;# 
  1406     0FE7                     PCLATH_SHAD     equ	4071	;# 
  1407     0FE8                     FSR0L_SHAD      equ	4072	;# 
  1408     0FE9                     FSR0H_SHAD      equ	4073	;# 
  1409     0FEA                     FSR1L_SHAD      equ	4074	;# 
  1410     0FEB                     FSR1H_SHAD      equ	4075	;# 
  1411     0FED                     STKPTR          equ	4077	;# 
  1412     0FEE                     TOSL            equ	4078	;# 
  1413     0FEF                     TOSH            equ	4079	;# 
  1414     0000                     INDF0           equ	0	;# 
  1415     0001                     INDF1           equ	1	;# 
  1416     0002                     PCL             equ	2	;# 
  1417     0003                     STATUS          equ	3	;# 
  1418     0004                     FSR0L           equ	4	;# 
  1419     0005                     FSR0H           equ	5	;# 
  1420     0006                     FSR1L           equ	6	;# 
  1421     0007                     FSR1H           equ	7	;# 
  1422     0008                     BSR             equ	8	;# 
  1423     0009                     WREG            equ	9	;# 
  1424     000A                     PCLATH          equ	10	;# 
  1425     000B                     INTCON          equ	11	;# 
  1426     000C                     PORTA           equ	12	;# 
  1427     000D                     PORTB           equ	13	;# 
  1428     000E                     PORTC           equ	14	;# 
  1429     0010                     PORTE           equ	16	;# 
  1430     0011                     PIR1            equ	17	;# 
  1431     0012                     PIR2            equ	18	;# 
  1432     0013                     PIR3            equ	19	;# 
  1433     0015                     TMR0            equ	21	;# 
  1434     0016                     TMR1            equ	22	;# 
  1435     0016                     TMR1L           equ	22	;# 
  1436     0017                     TMR1H           equ	23	;# 
  1437     0018                     T1CON           equ	24	;# 
  1438     0019                     T1GCON          equ	25	;# 
  1439     001A                     TMR2            equ	26	;# 
  1440     001B                     PR2             equ	27	;# 
  1441     001C                     T2CON           equ	28	;# 
  1442     001E                     CPSCON0         equ	30	;# 
  1443     001F                     CPSCON1         equ	31	;# 
  1444     008C                     TRISA           equ	140	;# 
  1445     008D                     TRISB           equ	141	;# 
  1446     008E                     TRISC           equ	142	;# 
  1447     0090                     TRISE           equ	144	;# 
  1448     0091                     PIE1            equ	145	;# 
  1449     0092                     PIE2            equ	146	;# 
  1450     0093                     PIE3            equ	147	;# 
  1451     0095                     OPTION_REG      equ	149	;# 
  1452     0096                     PCON            equ	150	;# 
  1453     0097                     WDTCON          equ	151	;# 
  1454     0098                     OSCTUNE         equ	152	;# 
  1455     0099                     OSCCON          equ	153	;# 
  1456     009A                     OSCSTAT         equ	154	;# 
  1457     009B                     ADRES           equ	155	;# 
  1458     009B                     ADRESL          equ	155	;# 
  1459     009C                     ADRESH          equ	156	;# 
  1460     009D                     ADCON0          equ	157	;# 
  1461     009E                     ADCON1          equ	158	;# 
  1462     010C                     LATA            equ	268	;# 
  1463     010D                     LATB            equ	269	;# 
  1464     010E                     LATC            equ	270	;# 
  1465     0110                     LATE            equ	272	;# 
  1466     0111                     CM1CON0         equ	273	;# 
  1467     0112                     CM1CON1         equ	274	;# 
  1468     0113                     CM2CON0         equ	275	;# 
  1469     0114                     CM2CON1         equ	276	;# 
  1470     0115                     CMOUT           equ	277	;# 
  1471     0116                     BORCON          equ	278	;# 
  1472     0117                     FVRCON          equ	279	;# 
  1473     0118                     DACCON0         equ	280	;# 
  1474     0119                     DACCON1         equ	281	;# 
  1475     011A                     SRCON0          equ	282	;# 
  1476     011B                     SRCON1          equ	283	;# 
  1477     011D                     APFCON          equ	285	;# 
  1478     018C                     ANSELA          equ	396	;# 
  1479     018D                     ANSELB          equ	397	;# 
  1480     0191                     EEADR           equ	401	;# 
  1481     0191                     EEADRL          equ	401	;# 
  1482     0192                     EEADRH          equ	402	;# 
  1483     0193                     EEDAT           equ	403	;# 
  1484     0193                     EEDATL          equ	403	;# 
  1485     0193                     EEDATA          equ	403	;# 
  1486     0194                     EEDATH          equ	404	;# 
  1487     0195                     EECON1          equ	405	;# 
  1488     0196                     EECON2          equ	406	;# 
  1489     0199                     RCREG           equ	409	;# 
  1490     019A                     TXREG           equ	410	;# 
  1491     019B                     SP1BRG          equ	411	;# 
  1492     019B                     SP1BRGL         equ	411	;# 
  1493     019B                     SPBRG           equ	411	;# 
  1494     019B                     SPBRGL          equ	411	;# 
  1495     019C                     SP1BRGH         equ	412	;# 
  1496     019C                     SPBRGH          equ	412	;# 
  1497     019D                     RCSTA           equ	413	;# 
  1498     019E                     TXSTA           equ	414	;# 
  1499     019F                     BAUDCON         equ	415	;# 
  1500     020D                     WPUB            equ	525	;# 
  1501     0210                     WPUE            equ	528	;# 
  1502     0211                     SSPBUF          equ	529	;# 
  1503     0212                     SSPADD          equ	530	;# 
  1504     0213                     SSPMSK          equ	531	;# 
  1505     0214                     SSPSTAT         equ	532	;# 
  1506     0215                     SSPCON1         equ	533	;# 
  1507     0215                     SSPCON          equ	533	;# 
  1508     0216                     SSPCON2         equ	534	;# 
  1509     0217                     SSPCON3         equ	535	;# 
  1510     0291                     CCPR1           equ	657	;# 
  1511     0291                     CCPR1L          equ	657	;# 
  1512     0292                     CCPR1H          equ	658	;# 
  1513     0293                     CCP1CON         equ	659	;# 
  1514     0294                     PWM1CON         equ	660	;# 
  1515     0295                     CCP1AS          equ	661	;# 
  1516     0295                     ECCP1AS         equ	661	;# 
  1517     0296                     PSTR1CON        equ	662	;# 
  1518     0298                     CCPR2           equ	664	;# 
  1519     0298                     CCPR2L          equ	664	;# 
  1520     0299                     CCPR2H          equ	665	;# 
  1521     029A                     CCP2CON         equ	666	;# 
  1522     029B                     PWM2CON         equ	667	;# 
  1523     029C                     CCP2AS          equ	668	;# 
  1524     029C                     ECCP2AS         equ	668	;# 
  1525     029D                     PSTR2CON        equ	669	;# 
  1526     029E                     CCPTMRS0        equ	670	;# 
  1527     029F                     CCPTMRS1        equ	671	;# 
  1528     0311                     CCPR3           equ	785	;# 
  1529     0311                     CCPR3L          equ	785	;# 
  1530     0312                     CCPR3H          equ	786	;# 
  1531     0313                     CCP3CON         equ	787	;# 
  1532     0314                     PWM3CON         equ	788	;# 
  1533     0315                     CCP3AS          equ	789	;# 
  1534     0315                     ECCP3AS         equ	789	;# 
  1535     0316                     PSTR3CON        equ	790	;# 
  1536     0318                     CCPR4           equ	792	;# 
  1537     0318                     CCPR4L          equ	792	;# 
  1538     0319                     CCPR4H          equ	793	;# 
  1539     031A                     CCP4CON         equ	794	;# 
  1540     031C                     CCPR5           equ	796	;# 
  1541     031C                     CCPR5L          equ	796	;# 
  1542     031D                     CCPR5H          equ	797	;# 
  1543     031E                     CCP5CON         equ	798	;# 
  1544     0394                     IOCBP           equ	916	;# 
  1545     0395                     IOCBN           equ	917	;# 
  1546     0396                     IOCBF           equ	918	;# 
  1547     0415                     TMR4            equ	1045	;# 
  1548     0416                     PR4             equ	1046	;# 
  1549     0417                     T4CON           equ	1047	;# 
  1550     041C                     TMR6            equ	1052	;# 
  1551     041D                     PR6             equ	1053	;# 
  1552     041E                     T6CON           equ	1054	;# 
  1553     0791                     LCDCON          equ	1937	;# 
  1554     0792                     LCDPS           equ	1938	;# 
  1555     0793                     LCDREF          equ	1939	;# 
  1556     0794                     LCDCST          equ	1940	;# 
  1557     0795                     LCDRL           equ	1941	;# 
  1558     0798                     LCDSE0          equ	1944	;# 
  1559     0799                     LCDSE1          equ	1945	;# 
  1560     07A0                     LCDDATA0        equ	1952	;# 
  1561     07A1                     LCDDATA1        equ	1953	;# 
  1562     07A3                     LCDDATA3        equ	1955	;# 
  1563     07A4                     LCDDATA4        equ	1956	;# 
  1564     07A6                     LCDDATA6        equ	1958	;# 
  1565     07A7                     LCDDATA7        equ	1959	;# 
  1566     07A9                     LCDDATA9        equ	1961	;# 
  1567     07AA                     LCDDATA10       equ	1962	;# 
  1568     0FE4                     STATUS_SHAD     equ	4068	;# 
  1569     0FE5                     WREG_SHAD       equ	4069	;# 
  1570     0FE6                     BSR_SHAD        equ	4070	;# 
  1571     0FE7                     PCLATH_SHAD     equ	4071	;# 
  1572     0FE8                     FSR0L_SHAD      equ	4072	;# 
  1573     0FE9                     FSR0H_SHAD      equ	4073	;# 
  1574     0FEA                     FSR1L_SHAD      equ	4074	;# 
  1575     0FEB                     FSR1H_SHAD      equ	4075	;# 
  1576     0FED                     STKPTR          equ	4077	;# 
  1577     0FEE                     TOSL            equ	4078	;# 
  1578     0FEF                     TOSH            equ	4079	;# 
  1579     0000                     INDF0           equ	0	;# 
  1580     0001                     INDF1           equ	1	;# 
  1581     0002                     PCL             equ	2	;# 
  1582     0003                     STATUS          equ	3	;# 
  1583     0004                     FSR0L           equ	4	;# 
  1584     0005                     FSR0H           equ	5	;# 
  1585     0006                     FSR1L           equ	6	;# 
  1586     0007                     FSR1H           equ	7	;# 
  1587     0008                     BSR             equ	8	;# 
  1588     0009                     WREG            equ	9	;# 
  1589     000A                     PCLATH          equ	10	;# 
  1590     000B                     INTCON          equ	11	;# 
  1591     000C                     PORTA           equ	12	;# 
  1592     000D                     PORTB           equ	13	;# 
  1593     000E                     PORTC           equ	14	;# 
  1594     0010                     PORTE           equ	16	;# 
  1595     0011                     PIR1            equ	17	;# 
  1596     0012                     PIR2            equ	18	;# 
  1597     0013                     PIR3            equ	19	;# 
  1598     0015                     TMR0            equ	21	;# 
  1599     0016                     TMR1            equ	22	;# 
  1600     0016                     TMR1L           equ	22	;# 
  1601     0017                     TMR1H           equ	23	;# 
  1602     0018                     T1CON           equ	24	;# 
  1603     0019                     T1GCON          equ	25	;# 
  1604     001A                     TMR2            equ	26	;# 
  1605     001B                     PR2             equ	27	;# 
  1606     001C                     T2CON           equ	28	;# 
  1607     001E                     CPSCON0         equ	30	;# 
  1608     001F                     CPSCON1         equ	31	;# 
  1609     008C                     TRISA           equ	140	;# 
  1610     008D                     TRISB           equ	141	;# 
  1611     008E                     TRISC           equ	142	;# 
  1612     0090                     TRISE           equ	144	;# 
  1613     0091                     PIE1            equ	145	;# 
  1614     0092                     PIE2            equ	146	;# 
  1615     0093                     PIE3            equ	147	;# 
  1616     0095                     OPTION_REG      equ	149	;# 
  1617     0096                     PCON            equ	150	;# 
  1618     0097                     WDTCON          equ	151	;# 
  1619     0098                     OSCTUNE         equ	152	;# 
  1620     0099                     OSCCON          equ	153	;# 
  1621     009A                     OSCSTAT         equ	154	;# 
  1622     009B                     ADRES           equ	155	;# 
  1623     009B                     ADRESL          equ	155	;# 
  1624     009C                     ADRESH          equ	156	;# 
  1625     009D                     ADCON0          equ	157	;# 
  1626     009E                     ADCON1          equ	158	;# 
  1627     010C                     LATA            equ	268	;# 
  1628     010D                     LATB            equ	269	;# 
  1629     010E                     LATC            equ	270	;# 
  1630     0110                     LATE            equ	272	;# 
  1631     0111                     CM1CON0         equ	273	;# 
  1632     0112                     CM1CON1         equ	274	;# 
  1633     0113                     CM2CON0         equ	275	;# 
  1634     0114                     CM2CON1         equ	276	;# 
  1635     0115                     CMOUT           equ	277	;# 
  1636     0116                     BORCON          equ	278	;# 
  1637     0117                     FVRCON          equ	279	;# 
  1638     0118                     DACCON0         equ	280	;# 
  1639     0119                     DACCON1         equ	281	;# 
  1640     011A                     SRCON0          equ	282	;# 
  1641     011B                     SRCON1          equ	283	;# 
  1642     011D                     APFCON          equ	285	;# 
  1643     018C                     ANSELA          equ	396	;# 
  1644     018D                     ANSELB          equ	397	;# 
  1645     0191                     EEADR           equ	401	;# 
  1646     0191                     EEADRL          equ	401	;# 
  1647     0192                     EEADRH          equ	402	;# 
  1648     0193                     EEDAT           equ	403	;# 
  1649     0193                     EEDATL          equ	403	;# 
  1650     0193                     EEDATA          equ	403	;# 
  1651     0194                     EEDATH          equ	404	;# 
  1652     0195                     EECON1          equ	405	;# 
  1653     0196                     EECON2          equ	406	;# 
  1654     0199                     RCREG           equ	409	;# 
  1655     019A                     TXREG           equ	410	;# 
  1656     019B                     SP1BRG          equ	411	;# 
  1657     019B                     SP1BRGL         equ	411	;# 
  1658     019B                     SPBRG           equ	411	;# 
  1659     019B                     SPBRGL          equ	411	;# 
  1660     019C                     SP1BRGH         equ	412	;# 
  1661     019C                     SPBRGH          equ	412	;# 
  1662     019D                     RCSTA           equ	413	;# 
  1663     019E                     TXSTA           equ	414	;# 
  1664     019F                     BAUDCON         equ	415	;# 
  1665     020D                     WPUB            equ	525	;# 
  1666     0210                     WPUE            equ	528	;# 
  1667     0211                     SSPBUF          equ	529	;# 
  1668     0212                     SSPADD          equ	530	;# 
  1669     0213                     SSPMSK          equ	531	;# 
  1670     0214                     SSPSTAT         equ	532	;# 
  1671     0215                     SSPCON1         equ	533	;# 
  1672     0215                     SSPCON          equ	533	;# 
  1673     0216                     SSPCON2         equ	534	;# 
  1674     0217                     SSPCON3         equ	535	;# 
  1675     0291                     CCPR1           equ	657	;# 
  1676     0291                     CCPR1L          equ	657	;# 
  1677     0292                     CCPR1H          equ	658	;# 
  1678     0293                     CCP1CON         equ	659	;# 
  1679     0294                     PWM1CON         equ	660	;# 
  1680     0295                     CCP1AS          equ	661	;# 
  1681     0295                     ECCP1AS         equ	661	;# 
  1682     0296                     PSTR1CON        equ	662	;# 
  1683     0298                     CCPR2           equ	664	;# 
  1684     0298                     CCPR2L          equ	664	;# 
  1685     0299                     CCPR2H          equ	665	;# 
  1686     029A                     CCP2CON         equ	666	;# 
  1687     029B                     PWM2CON         equ	667	;# 
  1688     029C                     CCP2AS          equ	668	;# 
  1689     029C                     ECCP2AS         equ	668	;# 
  1690     029D                     PSTR2CON        equ	669	;# 
  1691     029E                     CCPTMRS0        equ	670	;# 
  1692     029F                     CCPTMRS1        equ	671	;# 
  1693     0311                     CCPR3           equ	785	;# 
  1694     0311                     CCPR3L          equ	785	;# 
  1695     0312                     CCPR3H          equ	786	;# 
  1696     0313                     CCP3CON         equ	787	;# 
  1697     0314                     PWM3CON         equ	788	;# 
  1698     0315                     CCP3AS          equ	789	;# 
  1699     0315                     ECCP3AS         equ	789	;# 
  1700     0316                     PSTR3CON        equ	790	;# 
  1701     0318                     CCPR4           equ	792	;# 
  1702     0318                     CCPR4L          equ	792	;# 
  1703     0319                     CCPR4H          equ	793	;# 
  1704     031A                     CCP4CON         equ	794	;# 
  1705     031C                     CCPR5           equ	796	;# 
  1706     031C                     CCPR5L          equ	796	;# 
  1707     031D                     CCPR5H          equ	797	;# 
  1708     031E                     CCP5CON         equ	798	;# 
  1709     0394                     IOCBP           equ	916	;# 
  1710     0395                     IOCBN           equ	917	;# 
  1711     0396                     IOCBF           equ	918	;# 
  1712     0415                     TMR4            equ	1045	;# 
  1713     0416                     PR4             equ	1046	;# 
  1714     0417                     T4CON           equ	1047	;# 
  1715     041C                     TMR6            equ	1052	;# 
  1716     041D                     PR6             equ	1053	;# 
  1717     041E                     T6CON           equ	1054	;# 
  1718     0791                     LCDCON          equ	1937	;# 
  1719     0792                     LCDPS           equ	1938	;# 
  1720     0793                     LCDREF          equ	1939	;# 
  1721     0794                     LCDCST          equ	1940	;# 
  1722     0795                     LCDRL           equ	1941	;# 
  1723     0798                     LCDSE0          equ	1944	;# 
  1724     0799                     LCDSE1          equ	1945	;# 
  1725     07A0                     LCDDATA0        equ	1952	;# 
  1726     07A1                     LCDDATA1        equ	1953	;# 
  1727     07A3                     LCDDATA3        equ	1955	;# 
  1728     07A4                     LCDDATA4        equ	1956	;# 
  1729     07A6                     LCDDATA6        equ	1958	;# 
  1730     07A7                     LCDDATA7        equ	1959	;# 
  1731     07A9                     LCDDATA9        equ	1961	;# 
  1732     07AA                     LCDDATA10       equ	1962	;# 
  1733     0FE4                     STATUS_SHAD     equ	4068	;# 
  1734     0FE5                     WREG_SHAD       equ	4069	;# 
  1735     0FE6                     BSR_SHAD        equ	4070	;# 
  1736     0FE7                     PCLATH_SHAD     equ	4071	;# 
  1737     0FE8                     FSR0L_SHAD      equ	4072	;# 
  1738     0FE9                     FSR0H_SHAD      equ	4073	;# 
  1739     0FEA                     FSR1L_SHAD      equ	4074	;# 
  1740     0FEB                     FSR1H_SHAD      equ	4075	;# 
  1741     0FED                     STKPTR          equ	4077	;# 
  1742     0FEE                     TOSL            equ	4078	;# 
  1743     0FEF                     TOSH            equ	4079	;# 
  1744                           
  1745 ;; Function _EUSART_DefaultFramingErrorHandler is unused but had its address taken
  1746     0000                     _EUSART_DefaultFramingErrorHandler equ	0
  1747                           
  1748 ;; Function _EUSART_DefaultOverrunErrorHandler is unused but had its address taken
  1749     0000                     _EUSART_DefaultOverrunErrorHandler equ	0
  1750                           
  1751 ;; Function _EUSART_DefaultErrorHandler is unused but had its address taken
  1752     0000                     _EUSART_DefaultErrorHandler equ	0
  1753                           
  1754                           	psect	idataBANK0
  1755     0E4B                     __pidataBANK0:
  1756                           
  1757                           ;initializer for _SW3_LongPressTime
  1758     0E4B  34FF               	retlw	255
  1759     0E4C  34FF               	retlw	255
  1760     0E4D  34FF               	retlw	255
  1761     0E4E  347F               	retlw	127
  1762                           
  1763                           ;initializer for _SW2_LongPressTime
  1764     0E4F  34FF               	retlw	255
  1765     0E50  34FF               	retlw	255
  1766     0E51  34FF               	retlw	255
  1767     0E52  347F               	retlw	127
  1768                           
  1769                           ;initializer for keyDebounce@SW3_PreviousState
  1770     0E53  3401               	retlw	1
  1771                           
  1772                           ;initializer for keyDebounce@SW2_PreviousState
  1773     0E54  3401               	retlw	1
  1774                           
  1775                           ;initializer for keyDebounce@SW1_PreviousState
  1776     0E55  3401               	retlw	1
  1777                           
  1778                           ;initializer for _fKeyRelease_SW3
  1779     0E56  3401               	retlw	1
  1780                           
  1781                           ;initializer for _fKeyRelease_SW2
  1782     0E57  3401               	retlw	1
  1783                           
  1784                           ;initializer for _fKeyRelease_SW1
  1785     0E58  3401               	retlw	1
  1786                           
  1787                           	psect	nvBANK0
  1788     005B                     __pnvBANK0:
  1789     005B                     _adc_result:
  1790     005B                     	ds	2
  1791     005D                     _EUSART_ErrorHandler:
  1792     005D                     	ds	2
  1793     005F                     _EUSART_OverrunErrorHandler:
  1794     005F                     	ds	2
  1795     0061                     _EUSART_FramingErrorHandler:
  1796     0061                     	ds	2
  1797     0063                     _TMR0_InterruptHandler:
  1798     0063                     	ds	2
  1799     0065                     _temperture:
  1800     0065                     	ds	1
  1801     0011                     _PIR1bits       set	17
  1802     0015                     _TMR0           set	21
  1803     000B                     _INTCONbits     set	11
  1804     000D                     _PORTBbits      set	13
  1805     0095                     _OPTION_REGbits set	149
  1806     008E                     _TRISC          set	142
  1807     008D                     _TRISB          set	141
  1808     008C                     _TRISA          set	140
  1809     0090                     _TRISE          set	144
  1810     009D                     _ADCON0bits     set	157
  1811     009D                     _ADCON0         set	157
  1812     009C                     _ADRESH         set	156
  1813     009B                     _ADRESL         set	155
  1814     009E                     _ADCON1         set	158
  1815     0097                     _WDTCON         set	151
  1816     0098                     _OSCTUNE        set	152
  1817     0099                     _OSCCON         set	153
  1818     0095                     _OPTION_REG     set	149
  1819     008E                     _TRISCbits      set	142
  1820     008C                     _TRISAbits      set	140
  1821     011D                     _APFCON         set	285
  1822     010E                     _LATC           set	270
  1823     010D                     _LATB           set	269
  1824     010C                     _LATA           set	268
  1825     0110                     _LATE           set	272
  1826     0116                     _BORCON         set	278
  1827     010C                     _LATAbits       set	268
  1828     010E                     _LATCbits       set	270
  1829     019A                     _TXREG          set	410
  1830     0199                     _RCREG          set	409
  1831     019D                     _RCSTAbits      set	413
  1832     019E                     _TXSTAbits      set	414
  1833     019C                     _SPBRGH         set	412
  1834     019B                     _SPBRGL         set	411
  1835     019E                     _TXSTA          set	414
  1836     019D                     _RCSTA          set	413
  1837     019F                     _BAUDCON        set	415
  1838     018C                     _ANSELA         set	396
  1839     018D                     _ANSELB         set	397
  1840     020D                     _WPUB           set	525
  1841     0210                     _WPUE           set	528
  1842                           
  1843                           	psect	cinit
  1844     0015                     start_initialization:	
  1845                           ; #config settings
  1846                           
  1847     0015                     __initialization:
  1848                           
  1849                           ; Initialize objects allocated to BANK0
  1850     0015  304B               	movlw	low __pidataBANK0
  1851     0016  0084               	movwf	4
  1852     0017  308E               	movlw	(high __pidataBANK0)| (0+128)
  1853     0018  0085               	movwf	5
  1854     0019  3041               	movlw	low __pdataBANK0
  1855     001A  0086               	movwf	6
  1856     001B  3000               	movlw	high __pdataBANK0
  1857     001C  0087               	movwf	7
  1858     001D  300E               	movlw	14
  1859     001E  318E  2624  3180   	fcall	init_ram
  1860                           
  1861                           ; Clear objects allocated to COMMON
  1862     0021  01FC               	clrf	__pbssCOMMON& (0+127)
  1863     0022  01FD               	clrf	(__pbssCOMMON+1)& (0+127)
  1864                           
  1865                           ; Clear objects allocated to BANK0
  1866     0023  3020               	movlw	low __pbssBANK0
  1867     0024  0084               	movwf	4
  1868     0025  3000               	movlw	high __pbssBANK0
  1869     0026  0085               	movwf	5
  1870     0027  3021               	movlw	33
  1871     0028  318E  261E  3180   	fcall	clear_ram0
  1872     002B                     end_of_initialization:	
  1873                           ;End of C runtime variable initialization code
  1874                           
  1875     002B                     __end_of__initialization:
  1876     002B  107E               	bcf	int$flags,0	;clear compiler interrupt flag (level 1)
  1877     002C  0020               	movlb	0
  1878     002D  3186  2E1C         	ljmp	_main	;jump to C main() function
  1879                           
  1880                           	psect	bssCOMMON
  1881     007C                     __pbssCOMMON:
  1882     007C                     _tempCnt:
  1883     007C                     	ds	1
  1884     007D                     _timer0ReloadVal:
  1885     007D                     	ds	1
  1886                           
  1887                           	psect	bssBANK0
  1888     0020                     __pbssBANK0:
  1889     0020                     _longPressCurrentTime:
  1890     0020                     	ds	4
  1891     0024                     keyDebounce@SW3_PreviousTime:
  1892     0024                     	ds	4
  1893     0028                     keyDebounce@SW2_PreviousTime:
  1894     0028                     	ds	4
  1895     002C                     keyDebounce@SW1_PreviousTime:
  1896     002C                     	ds	4
  1897     0030                     _milliSeconds:
  1898     0030                     	ds	4
  1899     0034                     _t1000ms:
  1900     0034                     	ds	2
  1901     0036                     _t500ms:
  1902     0036                     	ds	2
  1903     0038                     _t250ms:
  1904     0038                     	ds	2
  1905     003A                     _ADC_InterruptHandler:
  1906     003A                     	ds	2
  1907     003C                     _fTooManyKeyPress:
  1908     003C                     	ds	1
  1909     003D                     _eusartRxLastError:
  1910     003D                     	ds	1
  1911     003E                     _SW3_Status:
  1912     003E                     	ds	1
  1913     003F                     _SW2_Status:
  1914     003F                     	ds	1
  1915     0040                     _SW1_Status:
  1916     0040                     	ds	1
  1917                           
  1918                           	psect	dataBANK0
  1919     0041                     __pdataBANK0:
  1920     0041                     _SW3_LongPressTime:
  1921     0041                     	ds	4
  1922     0045                     _SW2_LongPressTime:
  1923     0045                     	ds	4
  1924     0049                     keyDebounce@SW3_PreviousState:
  1925     0049                     	ds	1
  1926     004A                     keyDebounce@SW2_PreviousState:
  1927     004A                     	ds	1
  1928     004B                     keyDebounce@SW1_PreviousState:
  1929     004B                     	ds	1
  1930     004C                     _fKeyRelease_SW3:
  1931     004C                     	ds	1
  1932     004D                     _fKeyRelease_SW2:
  1933     004D                     	ds	1
  1934     004E                     _fKeyRelease_SW1:
  1935     004E                     	ds	1
  1936                           
  1937                           	psect	inittext
  1938     0E24                     init_ram:
  1939     0E24  00FE               	movwf	btemp
  1940     0E25                     initloop:
  1941     0E25  0012               	moviw fsr0++
  1942     0E26  001E               	movwi fsr1++
  1943     0E27  0BFE               	decfsz	btemp,f
  1944     0E28  2E25               	goto	initloop
  1945     0E29  3400               	retlw	0
  1946                           
  1947                           	psect	clrtext
  1948     0E1E                     clear_ram0:	
  1949                           ;	Called with FSR0 containing the base address, and
  1950                           ;	WREG with the size to clear
  1951                           
  1952     0E1E  0064               	clrwdt	;clear the watchdog before getting into this loop
  1953     0E1F                     clrloop0:
  1954     0E1F  0180               	clrf	0	;clear RAM location pointed to by FSR
  1955     0E20  3101               	addfsr 0,1
  1956     0E21  0B89               	decfsz	9,f	;Have we reached the end of clearing yet?
  1957     0E22  2E1F               	goto	clrloop0	;have we reached the end yet?
  1958     0E23  3400               	retlw	0	;all done for this memory range, return
  1959                           
  1960                           	psect	cstackCOMMON
  1961     0070                     __pcstackCOMMON:
  1962     0070                     ?_TMR0_ISR:
  1963     0070                     ?_TMR0_SetInterruptHandler:	
  1964                           ; 1 bytes @ 0x0
  1965                           
  1966     0070                     ?_PIN_MANAGER_Initialize:	
  1967                           ; 1 bytes @ 0x0
  1968                           
  1969     0070                     ?_OSCILLATOR_Initialize:	
  1970                           ; 1 bytes @ 0x0
  1971                           
  1972     0070                     ?_WDT_Initialize:	
  1973                           ; 1 bytes @ 0x0
  1974                           
  1975     0070                     ?_ADC_Initialize:	
  1976                           ; 1 bytes @ 0x0
  1977                           
  1978     0070                     ?_EUSART_Initialize:	
  1979                           ; 1 bytes @ 0x0
  1980                           
  1981     0070                     ?_EUSART_SetFramingErrorHandler:	
  1982                           ; 1 bytes @ 0x0
  1983                           
  1984     0070                     ?_EUSART_SetOverrunErrorHandler:	
  1985                           ; 1 bytes @ 0x0
  1986                           
  1987     0070                     ?_EUSART_SetErrorHandler:	
  1988                           ; 1 bytes @ 0x0
  1989                           
  1990     0070                     ?_TMR0_timerHandler:	
  1991                           ; 1 bytes @ 0x0
  1992                           
  1993     0070                     ?_chkeckPressKeyNumber:	
  1994                           ; 1 bytes @ 0x0
  1995                           
  1996     0070                     ?_LED_DISABLE:	
  1997                           ; 1 bytes @ 0x0
  1998                           
  1999     0070                     ?_SSLED:	
  2000                           ; 1 bytes @ 0x0
  2001                           
  2002     0070                     ?_keyDebounce:	
  2003                           ; 1 bytes @ 0x0
  2004                           
  2005     0070                     ?_INTERRUPT_InterruptManager:	
  2006                           ; 1 bytes @ 0x0
  2007                           
  2008     0070                     ?_TMR0_Initialize:	
  2009                           ; 1 bytes @ 0x0
  2010                           
  2011     0070                     ?_SYSTEM_Initialize:	
  2012                           ; 1 bytes @ 0x0
  2013                           
  2014     0070                     ?_ADC_GetConversion:	
  2015                           ; 1 bytes @ 0x0
  2016                           
  2017     0070                     ?_main:	
  2018                           ; 2 bytes @ 0x0
  2019                           
  2020     0070                     ?___awdiv:	
  2021                           ; 2 bytes @ 0x0
  2022                           
  2023     0070                     ?___awmod:	
  2024                           ; 2 bytes @ 0x0
  2025                           
  2026     0070                     ?___lwdiv:	
  2027                           ; 2 bytes @ 0x0
  2028                           
  2029     0070                     ?___lwmod:	
  2030                           ; 2 bytes @ 0x0
  2031                           
  2032     0070                     ?_getTime_ms:	
  2033                           ; 2 bytes @ 0x0
  2034                           
  2035     0070                     SSLED@xa:	
  2036                           ; 4 bytes @ 0x0
  2037                           
  2038     0070                     chkeckPressKeyNumber@keyCnt:	
  2039                           ; 1 bytes @ 0x0
  2040                           
  2041     0070                     TMR0_SetInterruptHandler@InterruptHandler:	
  2042                           ; 1 bytes @ 0x0
  2043                           
  2044     0070                     EUSART_SetFramingErrorHandler@interruptHandler:	
  2045                           ; 2 bytes @ 0x0
  2046                           
  2047     0070                     EUSART_SetOverrunErrorHandler@interruptHandler:	
  2048                           ; 2 bytes @ 0x0
  2049                           
  2050     0070                     EUSART_SetErrorHandler@interruptHandler:	
  2051                           ; 2 bytes @ 0x0
  2052                           
  2053     0070                     ___awdiv@divisor:	
  2054                           ; 2 bytes @ 0x0
  2055                           
  2056     0070                     ___awmod@divisor:	
  2057                           ; 2 bytes @ 0x0
  2058                           
  2059     0070                     ___lwdiv@divisor:	
  2060                           ; 2 bytes @ 0x0
  2061                           
  2062     0070                     ___lwmod@divisor:	
  2063                           ; 2 bytes @ 0x0
  2064                           
  2065     0070                     ??_TMR0_ISR:	
  2066                           ; 2 bytes @ 0x0
  2067                           
  2068     0070                     ??_PIN_MANAGER_Initialize:	
  2069                           ; 1 bytes @ 0x0
  2070                           
  2071     0070                     ??_OSCILLATOR_Initialize:	
  2072                           ; 1 bytes @ 0x0
  2073                           
  2074     0070                     ??_WDT_Initialize:	
  2075                           ; 1 bytes @ 0x0
  2076                           
  2077     0070                     ??_ADC_Initialize:	
  2078                           ; 1 bytes @ 0x0
  2079                           
  2080     0070                     ??_TMR0_timerHandler:	
  2081                           ; 1 bytes @ 0x0
  2082                           
  2083     0070                     ??_chkeckPressKeyNumber:	
  2084                           ; 1 bytes @ 0x0
  2085                           
  2086     0070                     ??_LED_DISABLE:	
  2087                           ; 1 bytes @ 0x0
  2088                           
  2089     0070                     ??_INTERRUPT_InterruptManager:	
  2090                           ; 1 bytes @ 0x0
  2091                           
  2092                           
  2093                           ; 1 bytes @ 0x0
  2094     0070                     	ds	1
  2095     0071                     SSLED@nu:
  2096     0071                     ??_SSLED:	
  2097                           ; 1 bytes @ 0x1
  2098                           
  2099                           
  2100                           ; 1 bytes @ 0x1
  2101     0071                     	ds	1
  2102     0072                     ?_SSD:
  2103     0072                     SSD@xn:	
  2104                           ; 1 bytes @ 0x2
  2105                           
  2106     0072                     ___awdiv@dividend:	
  2107                           ; 1 bytes @ 0x2
  2108                           
  2109     0072                     ___awmod@dividend:	
  2110                           ; 2 bytes @ 0x2
  2111                           
  2112     0072                     ___lwdiv@dividend:	
  2113                           ; 2 bytes @ 0x2
  2114                           
  2115     0072                     ___lwmod@dividend:	
  2116                           ; 2 bytes @ 0x2
  2117                           
  2118     0072                     ??_TMR0_SetInterruptHandler:	
  2119                           ; 2 bytes @ 0x2
  2120                           
  2121     0072                     ??_EUSART_Initialize:	
  2122                           ; 1 bytes @ 0x2
  2123                           
  2124     0072                     ??_EUSART_SetFramingErrorHandler:	
  2125                           ; 1 bytes @ 0x2
  2126                           
  2127     0072                     ??_EUSART_SetOverrunErrorHandler:	
  2128                           ; 1 bytes @ 0x2
  2129                           
  2130     0072                     ??_EUSART_SetErrorHandler:	
  2131                           ; 1 bytes @ 0x2
  2132                           
  2133     0072                     ??_TMR0_Initialize:	
  2134                           ; 1 bytes @ 0x2
  2135                           
  2136     0072                     ??_SYSTEM_Initialize:	
  2137                           ; 1 bytes @ 0x2
  2138                           
  2139     0072                     ??_ADC_GetConversion:	
  2140                           ; 1 bytes @ 0x2
  2141                           
  2142                           
  2143                           ; 1 bytes @ 0x2
  2144     0072                     	ds	1
  2145     0073                     SSD@num:
  2146     0073                     ADC_GetConversion@channel:	
  2147                           ; 1 bytes @ 0x3
  2148                           
  2149     0073                     ??_SSD:	
  2150                           ; 1 bytes @ 0x3
  2151                           
  2152                           
  2153                           ; 1 bytes @ 0x3
  2154     0073                     	ds	1
  2155     0074                     ?_disp_7seg:
  2156     0074                     disp_7seg@char2:	
  2157                           ; 1 bytes @ 0x4
  2158                           
  2159     0074                     ___awdiv@counter:	
  2160                           ; 1 bytes @ 0x4
  2161                           
  2162     0074                     ___awmod@counter:	
  2163                           ; 1 bytes @ 0x4
  2164                           
  2165     0074                     ___lwmod@counter:	
  2166                           ; 1 bytes @ 0x4
  2167                           
  2168     0074                     ___lwdiv@quotient:	
  2169                           ; 1 bytes @ 0x4
  2170                           
  2171     0074                     ??_getTime_ms:	
  2172                           ; 2 bytes @ 0x4
  2173                           
  2174     0074                     ??_keyDebounce:	
  2175                           ; 1 bytes @ 0x4
  2176                           
  2177     0074                     ??___awdiv:	
  2178                           ; 1 bytes @ 0x4
  2179                           
  2180     0074                     ??___awmod:	
  2181                           ; 1 bytes @ 0x4
  2182                           
  2183     0074                     ??___lwdiv:	
  2184                           ; 1 bytes @ 0x4
  2185                           
  2186     0074                     ??___lwmod:	
  2187                           ; 1 bytes @ 0x4
  2188                           
  2189                           
  2190                           ; 1 bytes @ 0x4
  2191     0074                     	ds	1
  2192     0075                     disp_7seg@char3:
  2193     0075                     ___awdiv@sign:	
  2194                           ; 1 bytes @ 0x5
  2195                           
  2196     0075                     ___awmod@sign:	
  2197                           ; 1 bytes @ 0x5
  2198                           
  2199                           
  2200                           ; 1 bytes @ 0x5
  2201     0075                     	ds	1
  2202     0076                     disp_7seg@char1:
  2203     0076                     ___lwdiv@counter:	
  2204                           ; 1 bytes @ 0x6
  2205                           
  2206     0076                     ___awdiv@quotient:	
  2207                           ; 1 bytes @ 0x6
  2208                           
  2209     0076                     ??_disp_7seg:	
  2210                           ; 2 bytes @ 0x6
  2211                           
  2212                           
  2213                           ; 1 bytes @ 0x6
  2214     0076                     	ds	1
  2215     0077                     ?_disp_sub:
  2216     0077                     disp_sub@disp_char:	
  2217                           ; 1 bytes @ 0x7
  2218                           
  2219                           
  2220                           ; 1 bytes @ 0x7
  2221     0077                     	ds	1
  2222     0078                     ?_CalTemperture:
  2223     0078                     CalTemperture@NTC_Value:	
  2224                           ; 1 bytes @ 0x8
  2225                           
  2226     0078                     ??_disp_sub:	
  2227                           ; 2 bytes @ 0x8
  2228                           
  2229                           
  2230                           ; 1 bytes @ 0x8
  2231     0078                     	ds	2
  2232     007A                     ??_CalTemperture:
  2233                           
  2234                           ; 1 bytes @ 0xA
  2235     007A                     	ds	2
  2236                           
  2237                           	psect	cstackBANK0
  2238     004F                     __pcstackBANK0:
  2239     004F                     disp_sub@disp_temp:
  2240     004F                     keyDebounce@SW1_CurrentState:	
  2241                           ; 1 bytes @ 0x0
  2242                           
  2243     004F                     CalTemperture@NTC:	
  2244                           ; 1 bytes @ 0x0
  2245                           
  2246                           
  2247                           ; 2 bytes @ 0x0
  2248     004F                     	ds	1
  2249     0050                     disp_sub@display_digital2:
  2250     0050                     keyDebounce@SW2_CurrentState:	
  2251                           ; 1 bytes @ 0x1
  2252                           
  2253                           
  2254                           ; 1 bytes @ 0x1
  2255     0050                     	ds	1
  2256     0051                     disp_sub@display_digital3:
  2257     0051                     keyDebounce@SW3_CurrentState:	
  2258                           ; 1 bytes @ 0x2
  2259                           
  2260     0051                     CalTemperture@temp:	
  2261                           ; 1 bytes @ 0x2
  2262                           
  2263                           
  2264                           ; 2 bytes @ 0x2
  2265     0051                     	ds	1
  2266     0052                     disp_sub@temp:
  2267     0052                     keyDebounce@CurrentTime:	
  2268                           ; 2 bytes @ 0x3
  2269                           
  2270                           
  2271                           ; 4 bytes @ 0x3
  2272     0052                     	ds	2
  2273     0054                     disp_sub@i:
  2274                           
  2275                           ; 2 bytes @ 0x5
  2276     0054                     	ds	2
  2277     0056                     disp_sub@display_digital1:
  2278                           
  2279                           ; 1 bytes @ 0x7
  2280     0056                     	ds	1
  2281     0057                     ??_main:
  2282                           
  2283                           ; 1 bytes @ 0x8
  2284     0057                     	ds	4
  2285                           
  2286                           	psect	maintext
  2287     061C                     __pmaintext:	
  2288 ;;
  2289 ;;Main: autosize = 0, tempsize = 4, incstack = 0, save=0
  2290 ;;
  2291 ;; *************** function _main *****************
  2292 ;; Defined at:
  2293 ;;		line 79 in file "main.c"
  2294 ;; Parameters:    Size  Location     Type
  2295 ;;		None
  2296 ;; Auto vars:     Size  Location     Type
  2297 ;;		None
  2298 ;; Return value:  Size  Location     Type
  2299 ;;                  2  685[None  ] int 
  2300 ;; Registers used:
  2301 ;;		wreg, status,2, status,0, pclath, cstack
  2302 ;; Tracked objects:
  2303 ;;		On entry : B1F/0
  2304 ;;		On exit  : 0/0
  2305 ;;		Unchanged: 0/0
  2306 ;; Data sizes:     COMMON   BANK0   BANK1   BANK2   BANK3   BANK4   BANK5
  2307 ;;      Params:         0       0       0       0       0       0       0
  2308 ;;      Locals:         0       0       0       0       0       0       0
  2309 ;;      Temps:          0       4       0       0       0       0       0
  2310 ;;      Totals:         0       4       0       0       0       0       0
  2311 ;;Total ram usage:        4 bytes
  2312 ;; Hardware stack levels required when called: 8
  2313 ;; This function calls:
  2314 ;;		_ADC_GetConversion
  2315 ;;		_CalTemperture
  2316 ;;		_SYSTEM_Initialize
  2317 ;;		_TMR0_SetInterruptHandler
  2318 ;;		_chkeckPressKeyNumber
  2319 ;;		_disp_sub
  2320 ;;		_getTime_ms
  2321 ;;		_keyDebounce
  2322 ;; This function is called by:
  2323 ;;		Startup code after reset
  2324 ;; This function uses a non-reentrant model
  2325 ;;
  2326                           
  2327     061C                     _main:	
  2328                           ;psect for function _main
  2329                           
  2330     061C                     l2911:	
  2331                           ;incstack = 0
  2332                           ; Regs used in _main: [wreg+status,2+status,0+pclath+cstack]
  2333                           
  2334                           
  2335                           ;main.c: 81:   SYSTEM_Initialize();
  2336     061C  318E  2669  3186   	fcall	_SYSTEM_Initialize
  2337                           
  2338                           ;main.c: 82:   TMR0_SetInterruptHandler(TMR0_timerHandler);
  2339     061F  30F4               	movlw	low _TMR0_timerHandler
  2340     0620  00F0               	movwf	TMR0_SetInterruptHandler@InterruptHandler
  2341     0621  300E               	movlw	high _TMR0_timerHandler
  2342     0622  00F1               	movwf	TMR0_SetInterruptHandler@InterruptHandler+1
  2343     0623  318E  2618  3186   	fcall	_TMR0_SetInterruptHandler
  2344     0626                     l2913:
  2345                           
  2346                           ;main.c: 85:   (INTCONbits.GIE = 1);
  2347     0626  178B               	bsf	11,7	;volatile
  2348     0627                     l2915:
  2349                           
  2350                           ;main.c: 87:   (INTCONbits.PEIE = 1);
  2351     0627  170B               	bsf	11,6	;volatile
  2352     0628                     l2917:
  2353                           
  2354                           ;main.c: 93:   (INTCONbits.GIE = 1);
  2355     0628  178B               	bsf	11,7	;volatile
  2356     0629                     l2919:
  2357                           
  2358                           ;main.c: 96:   (INTCONbits.PEIE = 1);
  2359     0629  170B               	bsf	11,6	;volatile
  2360     062A                     l686:	
  2361                           ;main.c: 104:   while (1) {
  2362                           
  2363                           
  2364                           ;main.c: 106:     adc_result = ADC_GetConversion(channel_AN0);
  2365     062A  3000               	movlw	0
  2366     062B  318E  267C  3186   	fcall	_ADC_GetConversion
  2367     062E  0871               	movf	?_ADC_GetConversion+1,w
  2368     062F  0020               	movlb	0	; select bank0
  2369     0630  00DC               	movwf	_adc_result+1
  2370     0631  0870               	movf	?_ADC_GetConversion,w
  2371     0632  00DB               	movwf	_adc_result
  2372                           
  2373                           ;main.c: 107:     temperture = CalTemperture(adc_result);
  2374     0633  085C               	movf	_adc_result+1,w
  2375     0634  00F9               	movwf	CalTemperture@NTC_Value+1
  2376     0635  085B               	movf	_adc_result,w
  2377     0636  00F8               	movwf	CalTemperture@NTC_Value
  2378     0637  318F  27BE  3186   	fcall	_CalTemperture
  2379     063A  0020               	movlb	0	; select bank0
  2380     063B  00E5               	movwf	_temperture
  2381                           
  2382                           ;main.c: 110:     keyDebounce();
  2383     063C  3182  22DD  3186   	fcall	_keyDebounce
  2384     063F                     l2921:
  2385                           
  2386                           ;main.c: 111:     longPressCurrentTime = getTime_ms();
  2387     063F  318E  2641  3186   	fcall	_getTime_ms
  2388     0642  0873               	movf	?_getTime_ms+3,w
  2389     0643  0020               	movlb	0	; select bank0
  2390     0644  00A3               	movwf	_longPressCurrentTime+3
  2391     0645  0872               	movf	?_getTime_ms+2,w
  2392     0646  00A2               	movwf	_longPressCurrentTime+2
  2393     0647  0871               	movf	?_getTime_ms+1,w
  2394     0648  00A1               	movwf	_longPressCurrentTime+1
  2395     0649  0870               	movf	?_getTime_ms,w
  2396     064A  00A0               	movwf	_longPressCurrentTime
  2397     064B                     l2923:
  2398                           
  2399                           ;main.c: 112:     chkeckPressKeyNumber();
  2400     064B  318F  2750  3186   	fcall	_chkeckPressKeyNumber
  2401     064E                     l2925:
  2402                           
  2403                           ;main.c: 115:     if (fTooManyKeyPress == 0) {
  2404     064E  0020               	movlb	0	; select bank0
  2405     064F  083C               	movf	_fTooManyKeyPress,w
  2406     0650  1D03               	btfss	3,2
  2407     0651  2E53               	goto	u2341
  2408     0652  2E54               	goto	u2340
  2409     0653                     u2341:
  2410     0653  2EDF               	goto	l2971
  2411     0654                     u2340:
  2412     0654                     l2927:
  2413                           
  2414                           ;main.c: 118:       if ((SW1_Status == KEY_STATE_SHORT_PRESS) &&
  2415     0654  0340               	decf	_SW1_Status,w
  2416     0655  1D03               	btfss	3,2
  2417     0656  2E58               	goto	u2351
  2418     0657  2E59               	goto	u2350
  2419     0658                     u2351:
  2420     0658  2E61               	goto	l2935
  2421     0659                     u2350:
  2422     0659                     l2929:
  2423     0659  034E               	decf	_fKeyRelease_SW1,w
  2424     065A  1D03               	btfss	3,2
  2425     065B  2E5D               	goto	u2361
  2426     065C  2E5E               	goto	u2360
  2427     065D                     u2361:
  2428     065D  2E61               	goto	l2935
  2429     065E                     u2360:
  2430     065E                     l2931:
  2431                           
  2432                           ;main.c: 119:           (fKeyRelease_SW1 == 1)) {;main.c: 120:         tempCnt++;
  2433     065E  3001               	movlw	1
  2434     065F  07FC               	addwf	_tempCnt,f
  2435     0660                     l2933:
  2436                           
  2437                           ;main.c: 121:         fKeyRelease_SW1 = 0;
  2438     0660  01CE               	clrf	_fKeyRelease_SW1
  2439     0661                     l2935:
  2440                           
  2441                           ;main.c: 125:       if ((SW2_Status == KEY_STATE_SHORT_PRESS) &&
  2442     0661  033F               	decf	_SW2_Status,w
  2443     0662  1D03               	btfss	3,2
  2444     0663  2E65               	goto	u2371
  2445     0664  2E66               	goto	u2370
  2446     0665                     u2371:
  2447     0665  2E6E               	goto	l2943
  2448     0666                     u2370:
  2449     0666                     l2937:
  2450     0666  034D               	decf	_fKeyRelease_SW2,w
  2451     0667  1D03               	btfss	3,2
  2452     0668  2E6A               	goto	u2381
  2453     0669  2E6B               	goto	u2380
  2454     066A                     u2381:
  2455     066A  2E6E               	goto	l2943
  2456     066B                     u2380:
  2457     066B                     l2939:
  2458                           
  2459                           ;main.c: 126:           (fKeyRelease_SW2 == 1)) {;main.c: 127:         tempCnt++;
  2460     066B  3001               	movlw	1
  2461     066C  07FC               	addwf	_tempCnt,f
  2462     066D                     l2941:
  2463                           
  2464                           ;main.c: 128:         fKeyRelease_SW2 = 0;
  2465     066D  01CD               	clrf	_fKeyRelease_SW2
  2466     066E                     l2943:
  2467                           
  2468                           ;main.c: 132:       if (SW2_Status == KEY_STATE_LONG_PRESS) {
  2469     066E  3002               	movlw	2
  2470     066F  063F               	xorwf	_SW2_Status,w
  2471     0670  1D03               	btfss	3,2
  2472     0671  2E73               	goto	u2391
  2473     0672  2E74               	goto	u2390
  2474     0673                     u2391:
  2475     0673  2EA0               	goto	l2953
  2476     0674                     u2390:
  2477     0674                     l2945:
  2478                           
  2479                           ;main.c: 133:         if (longPressCurrentTime - SW2_LongPressTime > 100) {
  2480     0674  0845               	movf	_SW2_LongPressTime,w
  2481     0675  0220               	subwf	_longPressCurrentTime,w
  2482     0676  00D7               	movwf	??_main
  2483     0677  0846               	movf	_SW2_LongPressTime+1,w
  2484     0678  3B21               	subwfb	_longPressCurrentTime+1,w
  2485     0679  00D8               	movwf	??_main+1
  2486     067A  0847               	movf	_SW2_LongPressTime+2,w
  2487     067B  3B22               	subwfb	_longPressCurrentTime+2,w
  2488     067C  00D9               	movwf	??_main+2
  2489     067D  0848               	movf	_SW2_LongPressTime+3,w
  2490     067E  3B23               	subwfb	_longPressCurrentTime+3,w
  2491     067F  00DA               	movwf	??_main+3
  2492     0680  085A               	movf	??_main+3,w
  2493     0681  1D03               	btfss	3,2
  2494     0682  2E8F               	goto	u2400
  2495     0683  0859               	movf	??_main+2,w
  2496     0684  1D03               	btfss	3,2
  2497     0685  2E8F               	goto	u2400
  2498     0686  0858               	movf	??_main+1,w
  2499     0687  1D03               	btfss	3,2
  2500     0688  2E8F               	goto	u2400
  2501     0689  3065               	movlw	101
  2502     068A  0257               	subwf	??_main,w
  2503     068B  1C03               	btfss	3,0
  2504     068C  2E8E               	goto	u2401
  2505     068D  2E8F               	goto	u2400
  2506     068E                     u2401:
  2507     068E  2EA0               	goto	l2953
  2508     068F                     u2400:
  2509     068F                     l2947:
  2510                           
  2511                           ;main.c: 134:           if (tempCnt < 99) {
  2512     068F  3063               	movlw	99
  2513     0690  027C               	subwf	_tempCnt,w
  2514     0691  1803               	skipnc
  2515     0692  2E94               	goto	u2411
  2516     0693  2E95               	goto	u2410
  2517     0694                     u2411:
  2518     0694  2E97               	goto	l2951
  2519     0695                     u2410:
  2520     0695                     l2949:
  2521                           
  2522                           ;main.c: 135:             tempCnt++;
  2523     0695  3001               	movlw	1
  2524     0696  07FC               	addwf	_tempCnt,f
  2525     0697                     l2951:
  2526                           
  2527                           ;main.c: 137:           SW2_LongPressTime = longPressCurrentTime;
  2528     0697  0020               	movlb	0	; select bank0
  2529     0698  0823               	movf	_longPressCurrentTime+3,w
  2530     0699  00C8               	movwf	_SW2_LongPressTime+3
  2531     069A  0822               	movf	_longPressCurrentTime+2,w
  2532     069B  00C7               	movwf	_SW2_LongPressTime+2
  2533     069C  0821               	movf	_longPressCurrentTime+1,w
  2534     069D  00C6               	movwf	_SW2_LongPressTime+1
  2535     069E  0820               	movf	_longPressCurrentTime,w
  2536     069F  00C5               	movwf	_SW2_LongPressTime
  2537     06A0                     l2953:
  2538                           
  2539                           ;main.c: 141:       if ((SW3_Status == KEY_STATE_SHORT_PRESS) &&
  2540     06A0  0020               	movlb	0	; select bank0
  2541     06A1  033E               	decf	_SW3_Status,w
  2542     06A2  1D03               	btfss	3,2
  2543     06A3  2EA5               	goto	u2421
  2544     06A4  2EA6               	goto	u2420
  2545     06A5                     u2421:
  2546     06A5  2EAE               	goto	l2961
  2547     06A6                     u2420:
  2548     06A6                     l2955:
  2549     06A6  034C               	decf	_fKeyRelease_SW3,w
  2550     06A7  1D03               	btfss	3,2
  2551     06A8  2EAA               	goto	u2431
  2552     06A9  2EAB               	goto	u2430
  2553     06AA                     u2431:
  2554     06AA  2EAE               	goto	l2961
  2555     06AB                     u2430:
  2556     06AB                     l2957:
  2557                           
  2558                           ;main.c: 142:           (fKeyRelease_SW3 == 1)) {;main.c: 143:         tempCnt--;
  2559     06AB  3001               	movlw	1
  2560     06AC  02FC               	subwf	_tempCnt,f
  2561     06AD                     l2959:
  2562                           
  2563                           ;main.c: 144:         fKeyRelease_SW3 = 0;
  2564     06AD  01CC               	clrf	_fKeyRelease_SW3
  2565     06AE                     l2961:
  2566                           
  2567                           ;main.c: 148:       if (SW3_Status == KEY_STATE_LONG_PRESS) {
  2568     06AE  3002               	movlw	2
  2569     06AF  063E               	xorwf	_SW3_Status,w
  2570     06B0  1D03               	btfss	3,2
  2571     06B1  2EB3               	goto	u2441
  2572     06B2  2EB4               	goto	u2440
  2573     06B3                     u2441:
  2574     06B3  2EDF               	goto	l2971
  2575     06B4                     u2440:
  2576     06B4                     l2963:
  2577                           
  2578                           ;main.c: 149:         if (longPressCurrentTime - SW3_LongPressTime > 100) {
  2579     06B4  0841               	movf	_SW3_LongPressTime,w
  2580     06B5  0220               	subwf	_longPressCurrentTime,w
  2581     06B6  00D7               	movwf	??_main
  2582     06B7  0842               	movf	_SW3_LongPressTime+1,w
  2583     06B8  3B21               	subwfb	_longPressCurrentTime+1,w
  2584     06B9  00D8               	movwf	??_main+1
  2585     06BA  0843               	movf	_SW3_LongPressTime+2,w
  2586     06BB  3B22               	subwfb	_longPressCurrentTime+2,w
  2587     06BC  00D9               	movwf	??_main+2
  2588     06BD  0844               	movf	_SW3_LongPressTime+3,w
  2589     06BE  3B23               	subwfb	_longPressCurrentTime+3,w
  2590     06BF  00DA               	movwf	??_main+3
  2591     06C0  085A               	movf	??_main+3,w
  2592     06C1  1D03               	btfss	3,2
  2593     06C2  2ECF               	goto	u2450
  2594     06C3  0859               	movf	??_main+2,w
  2595     06C4  1D03               	btfss	3,2
  2596     06C5  2ECF               	goto	u2450
  2597     06C6  0858               	movf	??_main+1,w
  2598     06C7  1D03               	btfss	3,2
  2599     06C8  2ECF               	goto	u2450
  2600     06C9  3065               	movlw	101
  2601     06CA  0257               	subwf	??_main,w
  2602     06CB  1C03               	btfss	3,0
  2603     06CC  2ECE               	goto	u2451
  2604     06CD  2ECF               	goto	u2450
  2605     06CE                     u2451:
  2606     06CE  2EDF               	goto	l2971
  2607     06CF                     u2450:
  2608     06CF                     l2965:
  2609                           
  2610                           ;main.c: 150:           if (tempCnt > 0) {
  2611     06CF  087C               	movf	_tempCnt,w
  2612     06D0  1903               	btfsc	3,2
  2613     06D1  2ED3               	goto	u2461
  2614     06D2  2ED4               	goto	u2460
  2615     06D3                     u2461:
  2616     06D3  2ED6               	goto	l2969
  2617     06D4                     u2460:
  2618     06D4                     l2967:
  2619                           
  2620                           ;main.c: 151:             tempCnt--;
  2621     06D4  3001               	movlw	1
  2622     06D5  02FC               	subwf	_tempCnt,f
  2623     06D6                     l2969:
  2624                           
  2625                           ;main.c: 153:           SW3_LongPressTime = longPressCurrentTime;
  2626     06D6  0020               	movlb	0	; select bank0
  2627     06D7  0823               	movf	_longPressCurrentTime+3,w
  2628     06D8  00C4               	movwf	_SW3_LongPressTime+3
  2629     06D9  0822               	movf	_longPressCurrentTime+2,w
  2630     06DA  00C3               	movwf	_SW3_LongPressTime+2
  2631     06DB  0821               	movf	_longPressCurrentTime+1,w
  2632     06DC  00C2               	movwf	_SW3_LongPressTime+1
  2633     06DD  0820               	movf	_longPressCurrentTime,w
  2634     06DE  00C1               	movwf	_SW3_LongPressTime
  2635     06DF                     l2971:
  2636                           
  2637                           ;main.c: 159:     disp_sub(temperture, 11);
  2638     06DF  300B               	movlw	11
  2639     06E0  00F7               	movwf	disp_sub@disp_char
  2640     06E1  0020               	movlb	0	; select bank0
  2641     06E2  0865               	movf	_temperture,w
  2642     06E3  3187  2744  3186   	fcall	_disp_sub
  2643     06E6  2E2A               	goto	l686
  2644     06E7  3180  2813         	ljmp	start
  2645     06E9                     __end_of_main:
  2646                           
  2647                           	psect	text1
  2648     02DD                     __ptext1:	
  2649 ;; *************** function _keyDebounce *****************
  2650 ;; Defined at:
  2651 ;;		line 23 in file "mcc_generated_files/key/key.c"
  2652 ;; Parameters:    Size  Location     Type
  2653 ;;		None
  2654 ;; Auto vars:     Size  Location     Type
  2655 ;;  CurrentTime     4    3[BANK0 ] unsigned long 
  2656 ;;  SW3_CurrentS    1    2[BANK0 ] unsigned char 
  2657 ;;  SW2_CurrentS    1    1[BANK0 ] unsigned char 
  2658 ;;  SW1_CurrentS    1    0[BANK0 ] unsigned char 
  2659 ;; Return value:  Size  Location     Type
  2660 ;;                  1    wreg      void 
  2661 ;; Registers used:
  2662 ;;		wreg, status,2, status,0, pclath, cstack
  2663 ;; Tracked objects:
  2664 ;;		On entry : 0/0
  2665 ;;		On exit  : 0/0
  2666 ;;		Unchanged: 0/0
  2667 ;; Data sizes:     COMMON   BANK0   BANK1   BANK2   BANK3   BANK4   BANK5
  2668 ;;      Params:         0       0       0       0       0       0       0
  2669 ;;      Locals:         0       7       0       0       0       0       0
  2670 ;;      Temps:          4       0       0       0       0       0       0
  2671 ;;      Totals:         4       7       0       0       0       0       0
  2672 ;;Total ram usage:       11 bytes
  2673 ;; Hardware stack levels used: 1
  2674 ;; Hardware stack levels required when called: 4
  2675 ;; This function calls:
  2676 ;;		_getTime_ms
  2677 ;; This function is called by:
  2678 ;;		_main
  2679 ;; This function uses a non-reentrant model
  2680 ;;
  2681                           
  2682     02DD                     _keyDebounce:	
  2683                           ;psect for function _keyDebounce
  2684                           
  2685     02DD                     l2745:	
  2686                           ;incstack = 0
  2687                           ; Regs used in _keyDebounce: [wreg+status,2+status,0+pclath+cstack]
  2688                           
  2689                           
  2690                           ;mcc_generated_files/key/key.c: 24:   static unsigned long SW1_PreviousTime;;mcc_generat
      +                          ed_files/key/key.c: 25:   unsigned char SW1_CurrentState;;mcc_generated_files/key/key.c:
      +                           26:   static unsigned char SW1_PreviousState = 1;;mcc_generated_files/key/key.c: 28:   
      +                          static unsigned long SW2_PreviousTime;;mcc_generated_files/key/key.c: 29:   unsigned cha
      +                          r SW2_CurrentState;;mcc_generated_files/key/key.c: 30:   static unsigned char SW2_Previo
      +                          usState = 1;;mcc_generated_files/key/key.c: 32:   static unsigned long SW3_PreviousTime;
  2691     02DD  318E  2641  3182   	fcall	_getTime_ms
  2692     02E0  0873               	movf	?_getTime_ms+3,w
  2693     02E1  0020               	movlb	0	; select bank0
  2694     02E2  00D5               	movwf	keyDebounce@CurrentTime+3
  2695     02E3  0872               	movf	?_getTime_ms+2,w
  2696     02E4  00D4               	movwf	keyDebounce@CurrentTime+2
  2697     02E5  0871               	movf	?_getTime_ms+1,w
  2698     02E6  00D3               	movwf	keyDebounce@CurrentTime+1
  2699     02E7  0870               	movf	?_getTime_ms,w
  2700     02E8  00D2               	movwf	keyDebounce@CurrentTime
  2701     02E9                     l2747:
  2702                           
  2703                           ;mcc_generated_files/key/key.c: 39:   SW1_CurrentState = PORTBbits.RB1;
  2704     02E9  0C0D               	rrf	13,w	;volatile
  2705     02EA  3901               	andlw	1
  2706     02EB  00CF               	movwf	keyDebounce@SW1_CurrentState
  2707     02EC                     l2749:
  2708                           
  2709                           ;mcc_generated_files/key/key.c: 40:   SW2_CurrentState = PORTBbits.RB2;
  2710     02EC  0C0D               	rrf	13,w	;volatile
  2711     02ED  0C89               	rrf	9,f
  2712     02EE  3901               	andlw	1
  2713     02EF  00D0               	movwf	keyDebounce@SW2_CurrentState
  2714     02F0                     l2751:
  2715                           
  2716                           ;mcc_generated_files/key/key.c: 41:   SW3_CurrentState = PORTBbits.RB3;
  2717     02F0  0C0D               	rrf	13,w	;volatile
  2718     02F1  00F4               	movwf	??_keyDebounce
  2719     02F2  0CF4               	rrf	??_keyDebounce,f
  2720     02F3  0C74               	rrf	??_keyDebounce,w
  2721     02F4  3901               	andlw	1
  2722     02F5  00D1               	movwf	keyDebounce@SW3_CurrentState
  2723     02F6                     l2753:
  2724                           
  2725                           ;mcc_generated_files/key/key.c: 46:   if (SW1_CurrentState == 0) {
  2726     02F6  084F               	movf	keyDebounce@SW1_CurrentState,w
  2727     02F7  1D03               	btfss	3,2
  2728     02F8  2AFA               	goto	u2011
  2729     02F9  2AFB               	goto	u2010
  2730     02FA                     u2011:
  2731     02FA  2B4B               	goto	l363
  2732     02FB                     u2010:
  2733     02FB                     l2755:
  2734                           
  2735                           ;mcc_generated_files/key/key.c: 48:     if (SW1_PreviousState != SW1_CurrentState) {
  2736     02FB  084B               	movf	keyDebounce@SW1_PreviousState,w
  2737     02FC  064F               	xorwf	keyDebounce@SW1_CurrentState,w
  2738     02FD  1903               	skipnz
  2739     02FE  2B00               	goto	u2021
  2740     02FF  2B01               	goto	u2020
  2741     0300                     u2021:
  2742     0300  2B0C               	goto	l2759
  2743     0301                     u2020:
  2744     0301                     l2757:
  2745                           
  2746                           ;mcc_generated_files/key/key.c: 50:       SW1_PreviousTime = CurrentTime;
  2747     0301  0855               	movf	keyDebounce@CurrentTime+3,w
  2748     0302  00AF               	movwf	keyDebounce@SW1_PreviousTime+3
  2749     0303  0854               	movf	keyDebounce@CurrentTime+2,w
  2750     0304  00AE               	movwf	keyDebounce@SW1_PreviousTime+2
  2751     0305  0853               	movf	keyDebounce@CurrentTime+1,w
  2752     0306  00AD               	movwf	keyDebounce@SW1_PreviousTime+1
  2753     0307  0852               	movf	keyDebounce@CurrentTime,w
  2754     0308  00AC               	movwf	keyDebounce@SW1_PreviousTime
  2755                           
  2756                           ;mcc_generated_files/key/key.c: 51:       SW1_PreviousState = SW1_CurrentState;
  2757     0309  084F               	movf	keyDebounce@SW1_CurrentState,w
  2758     030A  00CB               	movwf	keyDebounce@SW1_PreviousState
  2759                           
  2760                           ;mcc_generated_files/key/key.c: 52:     } else {
  2761     030B  2B7A               	goto	l2777
  2762     030C                     l2759:
  2763                           
  2764                           ;mcc_generated_files/key/key.c: 54:       if (CurrentTime - SW1_PreviousTime > 1000) {
  2765     030C  082C               	movf	keyDebounce@SW1_PreviousTime,w
  2766     030D  0252               	subwf	keyDebounce@CurrentTime,w
  2767     030E  00F4               	movwf	??_keyDebounce
  2768     030F  082D               	movf	keyDebounce@SW1_PreviousTime+1,w
  2769     0310  3B53               	subwfb	keyDebounce@CurrentTime+1,w
  2770     0311  00F5               	movwf	??_keyDebounce+1
  2771     0312  082E               	movf	keyDebounce@SW1_PreviousTime+2,w
  2772     0313  3B54               	subwfb	keyDebounce@CurrentTime+2,w
  2773     0314  00F6               	movwf	??_keyDebounce+2
  2774     0315  082F               	movf	keyDebounce@SW1_PreviousTime+3,w
  2775     0316  3B55               	subwfb	keyDebounce@CurrentTime+3,w
  2776     0317  00F7               	movwf	??_keyDebounce+3
  2777     0318  0877               	movf	??_keyDebounce+3,w
  2778     0319  1D03               	btfss	3,2
  2779     031A  2B26               	goto	u2030
  2780     031B  0876               	movf	??_keyDebounce+2,w
  2781     031C  1D03               	btfss	3,2
  2782     031D  2B26               	goto	u2030
  2783     031E  30E9               	movlw	233
  2784     031F  0274               	subwf	??_keyDebounce,w
  2785     0320  3003               	movlw	3
  2786     0321  3B75               	subwfb	??_keyDebounce+1,w
  2787     0322  1C03               	btfss	3,0
  2788     0323  2B25               	goto	u2031
  2789     0324  2B26               	goto	u2030
  2790     0325                     u2031:
  2791     0325  2B2A               	goto	l2763
  2792     0326                     u2030:
  2793     0326                     l2761:
  2794                           
  2795                           ;mcc_generated_files/key/key.c: 55:         SW1_Status = KEY_STATE_LONG_PRESS;
  2796     0326  3002               	movlw	2
  2797     0327  0020               	movlb	0	; select bank0
  2798     0328  00C0               	movwf	_SW1_Status
  2799                           
  2800                           ;mcc_generated_files/key/key.c: 56:       } else if (CurrentTime - SW1_PreviousTime > 50
      +                          ) {
  2801     0329  2B7A               	goto	l2777
  2802     032A                     l2763:
  2803     032A  0020               	movlb	0	; select bank0
  2804     032B  082C               	movf	keyDebounce@SW1_PreviousTime,w
  2805     032C  0252               	subwf	keyDebounce@CurrentTime,w
  2806     032D  00F4               	movwf	??_keyDebounce
  2807     032E  082D               	movf	keyDebounce@SW1_PreviousTime+1,w
  2808     032F  3B53               	subwfb	keyDebounce@CurrentTime+1,w
  2809     0330  00F5               	movwf	??_keyDebounce+1
  2810     0331  082E               	movf	keyDebounce@SW1_PreviousTime+2,w
  2811     0332  3B54               	subwfb	keyDebounce@CurrentTime+2,w
  2812     0333  00F6               	movwf	??_keyDebounce+2
  2813     0334  082F               	movf	keyDebounce@SW1_PreviousTime+3,w
  2814     0335  3B55               	subwfb	keyDebounce@CurrentTime+3,w
  2815     0336  00F7               	movwf	??_keyDebounce+3
  2816     0337  0877               	movf	??_keyDebounce+3,w
  2817     0338  1D03               	btfss	3,2
  2818     0339  2B46               	goto	u2040
  2819     033A  0876               	movf	??_keyDebounce+2,w
  2820     033B  1D03               	btfss	3,2
  2821     033C  2B46               	goto	u2040
  2822     033D  0875               	movf	??_keyDebounce+1,w
  2823     033E  1D03               	btfss	3,2
  2824     033F  2B46               	goto	u2040
  2825     0340  3033               	movlw	51
  2826     0341  0274               	subwf	??_keyDebounce,w
  2827     0342  1C03               	btfss	3,0
  2828     0343  2B45               	goto	u2041
  2829     0344  2B46               	goto	u2040
  2830     0345                     u2041:
  2831     0345  2B4A               	goto	l365
  2832     0346                     u2040:
  2833     0346                     l2765:
  2834                           
  2835                           ;mcc_generated_files/key/key.c: 57:         SW1_Status = KEY_STATE_SHORT_PRESS;
  2836     0346  3001               	movlw	1
  2837     0347  0020               	movlb	0	; select bank0
  2838     0348  00C0               	movwf	_SW1_Status
  2839     0349  2B7A               	goto	l2777
  2840     034A                     l365:	
  2841                           ;mcc_generated_files/key/key.c: 59:     }
  2842                           
  2843                           
  2844                           ;mcc_generated_files/key/key.c: 60:   } else {
  2845     034A  2B7A               	goto	l2777
  2846     034B                     l363:
  2847     034B                     l2767:
  2848                           
  2849                           ;mcc_generated_files/key/key.c: 63:     if (SW1_PreviousState != SW1_CurrentState) {
  2850     034B  034B               	decf	keyDebounce@SW1_PreviousState,w
  2851     034C  1903               	btfsc	3,2
  2852     034D  2B4F               	goto	u2051
  2853     034E  2B50               	goto	u2050
  2854     034F                     u2051:
  2855     034F  2B5B               	goto	l2771
  2856     0350                     u2050:
  2857     0350                     l2769:
  2858                           
  2859                           ;mcc_generated_files/key/key.c: 65:       SW1_PreviousTime = CurrentTime;
  2860     0350  0855               	movf	keyDebounce@CurrentTime+3,w
  2861     0351  00AF               	movwf	keyDebounce@SW1_PreviousTime+3
  2862     0352  0854               	movf	keyDebounce@CurrentTime+2,w
  2863     0353  00AE               	movwf	keyDebounce@SW1_PreviousTime+2
  2864     0354  0853               	movf	keyDebounce@CurrentTime+1,w
  2865     0355  00AD               	movwf	keyDebounce@SW1_PreviousTime+1
  2866     0356  0852               	movf	keyDebounce@CurrentTime,w
  2867     0357  00AC               	movwf	keyDebounce@SW1_PreviousTime
  2868                           
  2869                           ;mcc_generated_files/key/key.c: 66:       SW1_PreviousState = SW1_CurrentState;
  2870     0358  3001               	movlw	1
  2871     0359  00CB               	movwf	keyDebounce@SW1_PreviousState
  2872                           
  2873                           ;mcc_generated_files/key/key.c: 67:     } else {
  2874     035A  2B7A               	goto	l2777
  2875     035B                     l2771:
  2876                           
  2877                           ;mcc_generated_files/key/key.c: 68:       if (CurrentTime - SW1_PreviousTime > 50) {
  2878     035B  082C               	movf	keyDebounce@SW1_PreviousTime,w
  2879     035C  0252               	subwf	keyDebounce@CurrentTime,w
  2880     035D  00F4               	movwf	??_keyDebounce
  2881     035E  082D               	movf	keyDebounce@SW1_PreviousTime+1,w
  2882     035F  3B53               	subwfb	keyDebounce@CurrentTime+1,w
  2883     0360  00F5               	movwf	??_keyDebounce+1
  2884     0361  082E               	movf	keyDebounce@SW1_PreviousTime+2,w
  2885     0362  3B54               	subwfb	keyDebounce@CurrentTime+2,w
  2886     0363  00F6               	movwf	??_keyDebounce+2
  2887     0364  082F               	movf	keyDebounce@SW1_PreviousTime+3,w
  2888     0365  3B55               	subwfb	keyDebounce@CurrentTime+3,w
  2889     0366  00F7               	movwf	??_keyDebounce+3
  2890     0367  0877               	movf	??_keyDebounce+3,w
  2891     0368  1D03               	btfss	3,2
  2892     0369  2B76               	goto	u2060
  2893     036A  0876               	movf	??_keyDebounce+2,w
  2894     036B  1D03               	btfss	3,2
  2895     036C  2B76               	goto	u2060
  2896     036D  0875               	movf	??_keyDebounce+1,w
  2897     036E  1D03               	btfss	3,2
  2898     036F  2B76               	goto	u2060
  2899     0370  3033               	movlw	51
  2900     0371  0274               	subwf	??_keyDebounce,w
  2901     0372  1C03               	btfss	3,0
  2902     0373  2B75               	goto	u2061
  2903     0374  2B76               	goto	u2060
  2904     0375                     u2061:
  2905     0375  2B7A               	goto	l2777
  2906     0376                     u2060:
  2907     0376                     l2773:
  2908                           
  2909                           ;mcc_generated_files/key/key.c: 69:         SW1_Status = KEY_STATE_RELEASE;
  2910     0376  0020               	movlb	0	; select bank0
  2911     0377  01C0               	clrf	_SW1_Status
  2912     0378                     l2775:
  2913                           
  2914                           ;mcc_generated_files/key/key.c: 70:         fKeyRelease_SW1 = 1;
  2915     0378  3001               	movlw	1
  2916     0379  00CE               	movwf	_fKeyRelease_SW1
  2917     037A                     l2777:
  2918                           
  2919                           ;mcc_generated_files/key/key.c: 76:   if (SW2_CurrentState == 0) {
  2920     037A  0020               	movlb	0	; select bank0
  2921     037B  0850               	movf	keyDebounce@SW2_CurrentState,w
  2922     037C  1D03               	btfss	3,2
  2923     037D  2B7F               	goto	u2071
  2924     037E  2B80               	goto	u2070
  2925     037F                     u2071:
  2926     037F  2BD0               	goto	l373
  2927     0380                     u2070:
  2928     0380                     l2779:
  2929                           
  2930                           ;mcc_generated_files/key/key.c: 78:     if (SW2_PreviousState != SW2_CurrentState) {
  2931     0380  084A               	movf	keyDebounce@SW2_PreviousState,w
  2932     0381  0650               	xorwf	keyDebounce@SW2_CurrentState,w
  2933     0382  1903               	skipnz
  2934     0383  2B85               	goto	u2081
  2935     0384  2B86               	goto	u2080
  2936     0385                     u2081:
  2937     0385  2B91               	goto	l2783
  2938     0386                     u2080:
  2939     0386                     l2781:
  2940                           
  2941                           ;mcc_generated_files/key/key.c: 80:       SW2_PreviousTime = CurrentTime;
  2942     0386  0855               	movf	keyDebounce@CurrentTime+3,w
  2943     0387  00AB               	movwf	keyDebounce@SW2_PreviousTime+3
  2944     0388  0854               	movf	keyDebounce@CurrentTime+2,w
  2945     0389  00AA               	movwf	keyDebounce@SW2_PreviousTime+2
  2946     038A  0853               	movf	keyDebounce@CurrentTime+1,w
  2947     038B  00A9               	movwf	keyDebounce@SW2_PreviousTime+1
  2948     038C  0852               	movf	keyDebounce@CurrentTime,w
  2949     038D  00A8               	movwf	keyDebounce@SW2_PreviousTime
  2950                           
  2951                           ;mcc_generated_files/key/key.c: 81:       SW2_PreviousState = SW2_CurrentState;
  2952     038E  0850               	movf	keyDebounce@SW2_CurrentState,w
  2953     038F  00CA               	movwf	keyDebounce@SW2_PreviousState
  2954                           
  2955                           ;mcc_generated_files/key/key.c: 82:     } else {
  2956     0390  2BFF               	goto	l2801
  2957     0391                     l2783:
  2958                           
  2959                           ;mcc_generated_files/key/key.c: 84:       if (CurrentTime - SW2_PreviousTime > 1000) {
  2960     0391  0828               	movf	keyDebounce@SW2_PreviousTime,w
  2961     0392  0252               	subwf	keyDebounce@CurrentTime,w
  2962     0393  00F4               	movwf	??_keyDebounce
  2963     0394  0829               	movf	keyDebounce@SW2_PreviousTime+1,w
  2964     0395  3B53               	subwfb	keyDebounce@CurrentTime+1,w
  2965     0396  00F5               	movwf	??_keyDebounce+1
  2966     0397  082A               	movf	keyDebounce@SW2_PreviousTime+2,w
  2967     0398  3B54               	subwfb	keyDebounce@CurrentTime+2,w
  2968     0399  00F6               	movwf	??_keyDebounce+2
  2969     039A  082B               	movf	keyDebounce@SW2_PreviousTime+3,w
  2970     039B  3B55               	subwfb	keyDebounce@CurrentTime+3,w
  2971     039C  00F7               	movwf	??_keyDebounce+3
  2972     039D  0877               	movf	??_keyDebounce+3,w
  2973     039E  1D03               	btfss	3,2
  2974     039F  2BAB               	goto	u2090
  2975     03A0  0876               	movf	??_keyDebounce+2,w
  2976     03A1  1D03               	btfss	3,2
  2977     03A2  2BAB               	goto	u2090
  2978     03A3  30E9               	movlw	233
  2979     03A4  0274               	subwf	??_keyDebounce,w
  2980     03A5  3003               	movlw	3
  2981     03A6  3B75               	subwfb	??_keyDebounce+1,w
  2982     03A7  1C03               	btfss	3,0
  2983     03A8  2BAA               	goto	u2091
  2984     03A9  2BAB               	goto	u2090
  2985     03AA                     u2091:
  2986     03AA  2BAF               	goto	l2787
  2987     03AB                     u2090:
  2988     03AB                     l2785:
  2989                           
  2990                           ;mcc_generated_files/key/key.c: 85:         SW2_Status = KEY_STATE_LONG_PRESS;
  2991     03AB  3002               	movlw	2
  2992     03AC  0020               	movlb	0	; select bank0
  2993     03AD  00BF               	movwf	_SW2_Status
  2994                           
  2995                           ;mcc_generated_files/key/key.c: 86:       } else if (CurrentTime - SW2_PreviousTime > 50
      +                          ) {
  2996     03AE  2BFF               	goto	l2801
  2997     03AF                     l2787:
  2998     03AF  0020               	movlb	0	; select bank0
  2999     03B0  0828               	movf	keyDebounce@SW2_PreviousTime,w
  3000     03B1  0252               	subwf	keyDebounce@CurrentTime,w
  3001     03B2  00F4               	movwf	??_keyDebounce
  3002     03B3  0829               	movf	keyDebounce@SW2_PreviousTime+1,w
  3003     03B4  3B53               	subwfb	keyDebounce@CurrentTime+1,w
  3004     03B5  00F5               	movwf	??_keyDebounce+1
  3005     03B6  082A               	movf	keyDebounce@SW2_PreviousTime+2,w
  3006     03B7  3B54               	subwfb	keyDebounce@CurrentTime+2,w
  3007     03B8  00F6               	movwf	??_keyDebounce+2
  3008     03B9  082B               	movf	keyDebounce@SW2_PreviousTime+3,w
  3009     03BA  3B55               	subwfb	keyDebounce@CurrentTime+3,w
  3010     03BB  00F7               	movwf	??_keyDebounce+3
  3011     03BC  0877               	movf	??_keyDebounce+3,w
  3012     03BD  1D03               	btfss	3,2
  3013     03BE  2BCB               	goto	u2100
  3014     03BF  0876               	movf	??_keyDebounce+2,w
  3015     03C0  1D03               	btfss	3,2
  3016     03C1  2BCB               	goto	u2100
  3017     03C2  0875               	movf	??_keyDebounce+1,w
  3018     03C3  1D03               	btfss	3,2
  3019     03C4  2BCB               	goto	u2100
  3020     03C5  3033               	movlw	51
  3021     03C6  0274               	subwf	??_keyDebounce,w
  3022     03C7  1C03               	btfss	3,0
  3023     03C8  2BCA               	goto	u2101
  3024     03C9  2BCB               	goto	u2100
  3025     03CA                     u2101:
  3026     03CA  2BCF               	goto	l375
  3027     03CB                     u2100:
  3028     03CB                     l2789:
  3029                           
  3030                           ;mcc_generated_files/key/key.c: 87:         SW2_Status = KEY_STATE_SHORT_PRESS;
  3031     03CB  3001               	movlw	1
  3032     03CC  0020               	movlb	0	; select bank0
  3033     03CD  00BF               	movwf	_SW2_Status
  3034     03CE  2BFF               	goto	l2801
  3035     03CF                     l375:	
  3036                           ;mcc_generated_files/key/key.c: 89:     }
  3037                           
  3038                           
  3039                           ;mcc_generated_files/key/key.c: 90:   } else {
  3040     03CF  2BFF               	goto	l2801
  3041     03D0                     l373:
  3042     03D0                     l2791:
  3043                           
  3044                           ;mcc_generated_files/key/key.c: 93:     if (SW2_PreviousState != SW2_CurrentState) {
  3045     03D0  034A               	decf	keyDebounce@SW2_PreviousState,w
  3046     03D1  1903               	btfsc	3,2
  3047     03D2  2BD4               	goto	u2111
  3048     03D3  2BD5               	goto	u2110
  3049     03D4                     u2111:
  3050     03D4  2BE0               	goto	l2795
  3051     03D5                     u2110:
  3052     03D5                     l2793:
  3053                           
  3054                           ;mcc_generated_files/key/key.c: 95:       SW2_PreviousTime = CurrentTime;
  3055     03D5  0855               	movf	keyDebounce@CurrentTime+3,w
  3056     03D6  00AB               	movwf	keyDebounce@SW2_PreviousTime+3
  3057     03D7  0854               	movf	keyDebounce@CurrentTime+2,w
  3058     03D8  00AA               	movwf	keyDebounce@SW2_PreviousTime+2
  3059     03D9  0853               	movf	keyDebounce@CurrentTime+1,w
  3060     03DA  00A9               	movwf	keyDebounce@SW2_PreviousTime+1
  3061     03DB  0852               	movf	keyDebounce@CurrentTime,w
  3062     03DC  00A8               	movwf	keyDebounce@SW2_PreviousTime
  3063                           
  3064                           ;mcc_generated_files/key/key.c: 96:       SW2_PreviousState = SW2_CurrentState;
  3065     03DD  3001               	movlw	1
  3066     03DE  00CA               	movwf	keyDebounce@SW2_PreviousState
  3067                           
  3068                           ;mcc_generated_files/key/key.c: 97:     } else {
  3069     03DF  2BFF               	goto	l2801
  3070     03E0                     l2795:
  3071                           
  3072                           ;mcc_generated_files/key/key.c: 98:       if (CurrentTime - SW2_PreviousTime > 50) {
  3073     03E0  0828               	movf	keyDebounce@SW2_PreviousTime,w
  3074     03E1  0252               	subwf	keyDebounce@CurrentTime,w
  3075     03E2  00F4               	movwf	??_keyDebounce
  3076     03E3  0829               	movf	keyDebounce@SW2_PreviousTime+1,w
  3077     03E4  3B53               	subwfb	keyDebounce@CurrentTime+1,w
  3078     03E5  00F5               	movwf	??_keyDebounce+1
  3079     03E6  082A               	movf	keyDebounce@SW2_PreviousTime+2,w
  3080     03E7  3B54               	subwfb	keyDebounce@CurrentTime+2,w
  3081     03E8  00F6               	movwf	??_keyDebounce+2
  3082     03E9  082B               	movf	keyDebounce@SW2_PreviousTime+3,w
  3083     03EA  3B55               	subwfb	keyDebounce@CurrentTime+3,w
  3084     03EB  00F7               	movwf	??_keyDebounce+3
  3085     03EC  0877               	movf	??_keyDebounce+3,w
  3086     03ED  1D03               	btfss	3,2
  3087     03EE  2BFB               	goto	u2120
  3088     03EF  0876               	movf	??_keyDebounce+2,w
  3089     03F0  1D03               	btfss	3,2
  3090     03F1  2BFB               	goto	u2120
  3091     03F2  0875               	movf	??_keyDebounce+1,w
  3092     03F3  1D03               	btfss	3,2
  3093     03F4  2BFB               	goto	u2120
  3094     03F5  3033               	movlw	51
  3095     03F6  0274               	subwf	??_keyDebounce,w
  3096     03F7  1C03               	btfss	3,0
  3097     03F8  2BFA               	goto	u2121
  3098     03F9  2BFB               	goto	u2120
  3099     03FA                     u2121:
  3100     03FA  2BFF               	goto	l2801
  3101     03FB                     u2120:
  3102     03FB                     l2797:
  3103                           
  3104                           ;mcc_generated_files/key/key.c: 99:         SW2_Status = KEY_STATE_RELEASE;
  3105     03FB  0020               	movlb	0	; select bank0
  3106     03FC  01BF               	clrf	_SW2_Status
  3107     03FD                     l2799:
  3108                           
  3109                           ;mcc_generated_files/key/key.c: 100:         fKeyRelease_SW2 = 1;
  3110     03FD  3001               	movlw	1
  3111     03FE  00CD               	movwf	_fKeyRelease_SW2
  3112     03FF                     l2801:
  3113                           
  3114                           ;mcc_generated_files/key/key.c: 106:   if (SW3_CurrentState == 0) {
  3115     03FF  0020               	movlb	0	; select bank0
  3116     0400  0851               	movf	keyDebounce@SW3_CurrentState,w
  3117     0401  1D03               	btfss	3,2
  3118     0402  2C04               	goto	u2131
  3119     0403  2C05               	goto	u2130
  3120     0404                     u2131:
  3121     0404  2C55               	goto	l383
  3122     0405                     u2130:
  3123     0405                     l2803:
  3124                           
  3125                           ;mcc_generated_files/key/key.c: 108:     if (SW3_PreviousState != SW3_CurrentState) {
  3126     0405  0849               	movf	keyDebounce@SW3_PreviousState,w
  3127     0406  0651               	xorwf	keyDebounce@SW3_CurrentState,w
  3128     0407  1903               	skipnz
  3129     0408  2C0A               	goto	u2141
  3130     0409  2C0B               	goto	u2140
  3131     040A                     u2141:
  3132     040A  2C16               	goto	l2807
  3133     040B                     u2140:
  3134     040B                     l2805:
  3135                           
  3136                           ;mcc_generated_files/key/key.c: 110:       SW3_PreviousTime = CurrentTime;
  3137     040B  0855               	movf	keyDebounce@CurrentTime+3,w
  3138     040C  00A7               	movwf	keyDebounce@SW3_PreviousTime+3
  3139     040D  0854               	movf	keyDebounce@CurrentTime+2,w
  3140     040E  00A6               	movwf	keyDebounce@SW3_PreviousTime+2
  3141     040F  0853               	movf	keyDebounce@CurrentTime+1,w
  3142     0410  00A5               	movwf	keyDebounce@SW3_PreviousTime+1
  3143     0411  0852               	movf	keyDebounce@CurrentTime,w
  3144     0412  00A4               	movwf	keyDebounce@SW3_PreviousTime
  3145                           
  3146                           ;mcc_generated_files/key/key.c: 111:       SW3_PreviousState = SW3_CurrentState;
  3147     0413  0851               	movf	keyDebounce@SW3_CurrentState,w
  3148     0414  00C9               	movwf	keyDebounce@SW3_PreviousState
  3149                           
  3150                           ;mcc_generated_files/key/key.c: 112:     } else {
  3151     0415  2C84               	goto	l393
  3152     0416                     l2807:
  3153                           
  3154                           ;mcc_generated_files/key/key.c: 114:       if (CurrentTime - SW3_PreviousTime > 1000) {
  3155     0416  0824               	movf	keyDebounce@SW3_PreviousTime,w
  3156     0417  0252               	subwf	keyDebounce@CurrentTime,w
  3157     0418  00F4               	movwf	??_keyDebounce
  3158     0419  0825               	movf	keyDebounce@SW3_PreviousTime+1,w
  3159     041A  3B53               	subwfb	keyDebounce@CurrentTime+1,w
  3160     041B  00F5               	movwf	??_keyDebounce+1
  3161     041C  0826               	movf	keyDebounce@SW3_PreviousTime+2,w
  3162     041D  3B54               	subwfb	keyDebounce@CurrentTime+2,w
  3163     041E  00F6               	movwf	??_keyDebounce+2
  3164     041F  0827               	movf	keyDebounce@SW3_PreviousTime+3,w
  3165     0420  3B55               	subwfb	keyDebounce@CurrentTime+3,w
  3166     0421  00F7               	movwf	??_keyDebounce+3
  3167     0422  0877               	movf	??_keyDebounce+3,w
  3168     0423  1D03               	btfss	3,2
  3169     0424  2C30               	goto	u2150
  3170     0425  0876               	movf	??_keyDebounce+2,w
  3171     0426  1D03               	btfss	3,2
  3172     0427  2C30               	goto	u2150
  3173     0428  30E9               	movlw	233
  3174     0429  0274               	subwf	??_keyDebounce,w
  3175     042A  3003               	movlw	3
  3176     042B  3B75               	subwfb	??_keyDebounce+1,w
  3177     042C  1C03               	btfss	3,0
  3178     042D  2C2F               	goto	u2151
  3179     042E  2C30               	goto	u2150
  3180     042F                     u2151:
  3181     042F  2C34               	goto	l2811
  3182     0430                     u2150:
  3183     0430                     l2809:
  3184                           
  3185                           ;mcc_generated_files/key/key.c: 115:         SW3_Status = KEY_STATE_LONG_PRESS;
  3186     0430  3002               	movlw	2
  3187     0431  0020               	movlb	0	; select bank0
  3188     0432  00BE               	movwf	_SW3_Status
  3189                           
  3190                           ;mcc_generated_files/key/key.c: 116:       } else if (CurrentTime - SW3_PreviousTime > 5
      +                          0) {
  3191     0433  2C84               	goto	l393
  3192     0434                     l2811:
  3193     0434  0020               	movlb	0	; select bank0
  3194     0435  0824               	movf	keyDebounce@SW3_PreviousTime,w
  3195     0436  0252               	subwf	keyDebounce@CurrentTime,w
  3196     0437  00F4               	movwf	??_keyDebounce
  3197     0438  0825               	movf	keyDebounce@SW3_PreviousTime+1,w
  3198     0439  3B53               	subwfb	keyDebounce@CurrentTime+1,w
  3199     043A  00F5               	movwf	??_keyDebounce+1
  3200     043B  0826               	movf	keyDebounce@SW3_PreviousTime+2,w
  3201     043C  3B54               	subwfb	keyDebounce@CurrentTime+2,w
  3202     043D  00F6               	movwf	??_keyDebounce+2
  3203     043E  0827               	movf	keyDebounce@SW3_PreviousTime+3,w
  3204     043F  3B55               	subwfb	keyDebounce@CurrentTime+3,w
  3205     0440  00F7               	movwf	??_keyDebounce+3
  3206     0441  0877               	movf	??_keyDebounce+3,w
  3207     0442  1D03               	btfss	3,2
  3208     0443  2C50               	goto	u2160
  3209     0444  0876               	movf	??_keyDebounce+2,w
  3210     0445  1D03               	btfss	3,2
  3211     0446  2C50               	goto	u2160
  3212     0447  0875               	movf	??_keyDebounce+1,w
  3213     0448  1D03               	btfss	3,2
  3214     0449  2C50               	goto	u2160
  3215     044A  3033               	movlw	51
  3216     044B  0274               	subwf	??_keyDebounce,w
  3217     044C  1C03               	btfss	3,0
  3218     044D  2C4F               	goto	u2161
  3219     044E  2C50               	goto	u2160
  3220     044F                     u2161:
  3221     044F  2C54               	goto	l385
  3222     0450                     u2160:
  3223     0450                     l2813:
  3224                           
  3225                           ;mcc_generated_files/key/key.c: 117:         SW3_Status = KEY_STATE_SHORT_PRESS;
  3226     0450  3001               	movlw	1
  3227     0451  0020               	movlb	0	; select bank0
  3228     0452  00BE               	movwf	_SW3_Status
  3229     0453  2C84               	goto	l393
  3230     0454                     l385:	
  3231                           ;mcc_generated_files/key/key.c: 119:     }
  3232                           
  3233                           
  3234                           ;mcc_generated_files/key/key.c: 120:   } else {
  3235     0454  2C84               	goto	l393
  3236     0455                     l383:
  3237     0455                     l2815:
  3238                           
  3239                           ;mcc_generated_files/key/key.c: 123:     if (SW3_PreviousState != SW3_CurrentState) {
  3240     0455  0349               	decf	keyDebounce@SW3_PreviousState,w
  3241     0456  1903               	btfsc	3,2
  3242     0457  2C59               	goto	u2171
  3243     0458  2C5A               	goto	u2170
  3244     0459                     u2171:
  3245     0459  2C65               	goto	l2819
  3246     045A                     u2170:
  3247     045A                     l2817:
  3248                           
  3249                           ;mcc_generated_files/key/key.c: 125:       SW3_PreviousTime = CurrentTime;
  3250     045A  0855               	movf	keyDebounce@CurrentTime+3,w
  3251     045B  00A7               	movwf	keyDebounce@SW3_PreviousTime+3
  3252     045C  0854               	movf	keyDebounce@CurrentTime+2,w
  3253     045D  00A6               	movwf	keyDebounce@SW3_PreviousTime+2
  3254     045E  0853               	movf	keyDebounce@CurrentTime+1,w
  3255     045F  00A5               	movwf	keyDebounce@SW3_PreviousTime+1
  3256     0460  0852               	movf	keyDebounce@CurrentTime,w
  3257     0461  00A4               	movwf	keyDebounce@SW3_PreviousTime
  3258                           
  3259                           ;mcc_generated_files/key/key.c: 126:       SW3_PreviousState = SW3_CurrentState;
  3260     0462  3001               	movlw	1
  3261     0463  00C9               	movwf	keyDebounce@SW3_PreviousState
  3262                           
  3263                           ;mcc_generated_files/key/key.c: 127:     } else {
  3264     0464  2C84               	goto	l393
  3265     0465                     l2819:
  3266                           
  3267                           ;mcc_generated_files/key/key.c: 128:       if (CurrentTime - SW3_PreviousTime > 50) {
  3268     0465  0824               	movf	keyDebounce@SW3_PreviousTime,w
  3269     0466  0252               	subwf	keyDebounce@CurrentTime,w
  3270     0467  00F4               	movwf	??_keyDebounce
  3271     0468  0825               	movf	keyDebounce@SW3_PreviousTime+1,w
  3272     0469  3B53               	subwfb	keyDebounce@CurrentTime+1,w
  3273     046A  00F5               	movwf	??_keyDebounce+1
  3274     046B  0826               	movf	keyDebounce@SW3_PreviousTime+2,w
  3275     046C  3B54               	subwfb	keyDebounce@CurrentTime+2,w
  3276     046D  00F6               	movwf	??_keyDebounce+2
  3277     046E  0827               	movf	keyDebounce@SW3_PreviousTime+3,w
  3278     046F  3B55               	subwfb	keyDebounce@CurrentTime+3,w
  3279     0470  00F7               	movwf	??_keyDebounce+3
  3280     0471  0877               	movf	??_keyDebounce+3,w
  3281     0472  1D03               	btfss	3,2
  3282     0473  2C80               	goto	u2180
  3283     0474  0876               	movf	??_keyDebounce+2,w
  3284     0475  1D03               	btfss	3,2
  3285     0476  2C80               	goto	u2180
  3286     0477  0875               	movf	??_keyDebounce+1,w
  3287     0478  1D03               	btfss	3,2
  3288     0479  2C80               	goto	u2180
  3289     047A  3033               	movlw	51
  3290     047B  0274               	subwf	??_keyDebounce,w
  3291     047C  1C03               	btfss	3,0
  3292     047D  2C7F               	goto	u2181
  3293     047E  2C80               	goto	u2180
  3294     047F                     u2181:
  3295     047F  2C84               	goto	l393
  3296     0480                     u2180:
  3297     0480                     l2821:
  3298                           
  3299                           ;mcc_generated_files/key/key.c: 129:         SW3_Status = KEY_STATE_RELEASE;
  3300     0480  0020               	movlb	0	; select bank0
  3301     0481  01BE               	clrf	_SW3_Status
  3302     0482                     l2823:
  3303                           
  3304                           ;mcc_generated_files/key/key.c: 130:         fKeyRelease_SW3 = 1;
  3305     0482  3001               	movlw	1
  3306     0483  00CC               	movwf	_fKeyRelease_SW3
  3307     0484                     l393:
  3308     0484  0008               	return
  3309     0485                     __end_of_keyDebounce:
  3310                           
  3311                           	psect	text2
  3312     0E41                     __ptext2:	
  3313 ;; *************** function _getTime_ms *****************
  3314 ;; Defined at:
  3315 ;;		line 15 in file "mcc_generated_files/key/key.c"
  3316 ;; Parameters:    Size  Location     Type
  3317 ;;		None
  3318 ;; Auto vars:     Size  Location     Type
  3319 ;;		None
  3320 ;; Return value:  Size  Location     Type
  3321 ;;                  4    0[COMMON] unsigned long 
  3322 ;; Registers used:
  3323 ;;		wreg
  3324 ;; Tracked objects:
  3325 ;;		On entry : 0/0
  3326 ;;		On exit  : 0/0
  3327 ;;		Unchanged: 0/0
  3328 ;; Data sizes:     COMMON   BANK0   BANK1   BANK2   BANK3   BANK4   BANK5
  3329 ;;      Params:         4       0       0       0       0       0       0
  3330 ;;      Locals:         0       0       0       0       0       0       0
  3331 ;;      Temps:          0       0       0       0       0       0       0
  3332 ;;      Totals:         4       0       0       0       0       0       0
  3333 ;;Total ram usage:        4 bytes
  3334 ;; Hardware stack levels used: 1
  3335 ;; Hardware stack levels required when called: 3
  3336 ;; This function calls:
  3337 ;;		Nothing
  3338 ;; This function is called by:
  3339 ;;		_keyDebounce
  3340 ;;		_main
  3341 ;; This function uses a non-reentrant model
  3342 ;;
  3343                           
  3344     0E41                     _getTime_ms:	
  3345                           ;psect for function _getTime_ms
  3346                           
  3347     0E41                     l2521:	
  3348                           ;incstack = 0
  3349                           ; Regs used in _getTime_ms: [wreg]
  3350                           
  3351                           
  3352                           ;mcc_generated_files/key/key.c: 16:   return milliSeconds;
  3353     0E41  0020               	movlb	0	; select bank0
  3354     0E42  0833               	movf	_milliSeconds+3,w
  3355     0E43  00F3               	movwf	?_getTime_ms+3
  3356     0E44  0832               	movf	_milliSeconds+2,w
  3357     0E45  00F2               	movwf	?_getTime_ms+2
  3358     0E46  0831               	movf	_milliSeconds+1,w
  3359     0E47  00F1               	movwf	?_getTime_ms+1
  3360     0E48  0830               	movf	_milliSeconds,w
  3361     0E49  00F0               	movwf	?_getTime_ms
  3362     0E4A                     l342:
  3363     0E4A  0008               	return
  3364     0E4B                     __end_of_getTime_ms:
  3365                           
  3366                           	psect	text3
  3367     0744                     __ptext3:	
  3368 ;; *************** function _disp_sub *****************
  3369 ;; Defined at:
  3370 ;;		line 10 in file "mcc_generated_files/disp_7seg/disp_7seg.c"
  3371 ;; Parameters:    Size  Location     Type
  3372 ;;  disp_temp       1    wreg     unsigned char 
  3373 ;;  disp_char       1    7[COMMON] unsigned char 
  3374 ;; Auto vars:     Size  Location     Type
  3375 ;;  disp_temp       1    0[BANK0 ] unsigned char 
  3376 ;;  i               2    5[BANK0 ] unsigned int 
  3377 ;;  temp            2    3[BANK0 ] unsigned int 
  3378 ;;  display_digi    1    7[BANK0 ] unsigned char 
  3379 ;;  display_digi    1    2[BANK0 ] unsigned char 
  3380 ;;  display_digi    1    1[BANK0 ] unsigned char 
  3381 ;; Return value:  Size  Location     Type
  3382 ;;                  1    wreg      void 
  3383 ;; Registers used:
  3384 ;;		wreg, status,2, status,0, pclath, cstack
  3385 ;; Tracked objects:
  3386 ;;		On entry : 0/0
  3387 ;;		On exit  : 0/0
  3388 ;;		Unchanged: 0/0
  3389 ;; Data sizes:     COMMON   BANK0   BANK1   BANK2   BANK3   BANK4   BANK5
  3390 ;;      Params:         1       0       0       0       0       0       0
  3391 ;;      Locals:         0       8       0       0       0       0       0
  3392 ;;      Temps:          2       0       0       0       0       0       0
  3393 ;;      Totals:         3       8       0       0       0       0       0
  3394 ;;Total ram usage:       11 bytes
  3395 ;; Hardware stack levels used: 1
  3396 ;; Hardware stack levels required when called: 7
  3397 ;; This function calls:
  3398 ;;		___awmod
  3399 ;;		___lwdiv
  3400 ;;		___lwmod
  3401 ;;		_disp_7seg
  3402 ;; This function is called by:
  3403 ;;		_main
  3404 ;; This function uses a non-reentrant model
  3405 ;;
  3406                           
  3407     0744                     _disp_sub:	
  3408                           ;psect for function _disp_sub
  3409                           
  3410                           
  3411                           ;incstack = 0
  3412                           ; Regs used in _disp_sub: [wreg+status,2+status,0+pclath+cstack]
  3413                           ;disp_sub@disp_temp stored from wreg
  3414     0744  0020               	movlb	0	; select bank0
  3415     0745  00CF               	movwf	disp_sub@disp_temp
  3416     0746                     l2723:
  3417                           
  3418                           ;mcc_generated_files/disp_7seg/disp_7seg.c: 11:   unsigned int temp = disp_temp;
  3419     0746  084F               	movf	disp_sub@disp_temp,w
  3420     0747  00F8               	movwf	??_disp_sub
  3421     0748  01F9               	clrf	??_disp_sub+1
  3422     0749  0878               	movf	??_disp_sub,w
  3423     074A  00D2               	movwf	disp_sub@temp
  3424     074B  0879               	movf	??_disp_sub+1,w
  3425     074C  00D3               	movwf	disp_sub@temp+1
  3426     074D                     l2725:
  3427                           
  3428                           ;mcc_generated_files/disp_7seg/disp_7seg.c: 12:   unsigned char display_digital1 = (unsi
      +                          gned char)(temp / 10);
  3429     074D  300A               	movlw	10
  3430     074E  00F0               	movwf	___lwdiv@divisor
  3431     074F  3000               	movlw	0
  3432     0750  00F1               	movwf	___lwdiv@divisor+1
  3433     0751  0853               	movf	disp_sub@temp+1,w
  3434     0752  00F3               	movwf	___lwdiv@dividend+1
  3435     0753  0852               	movf	disp_sub@temp,w
  3436     0754  00F2               	movwf	___lwdiv@dividend
  3437     0755  318F  2784  3187   	fcall	___lwdiv
  3438     0758  0870               	movf	?___lwdiv,w
  3439     0759  0020               	movlb	0	; select bank0
  3440     075A  00D6               	movwf	disp_sub@display_digital1
  3441     075B                     l2727:
  3442                           
  3443                           ;mcc_generated_files/disp_7seg/disp_7seg.c: 15:   if(display_digital1 >9) {
  3444     075B  300A               	movlw	10
  3445     075C  0256               	subwf	disp_sub@display_digital1,w
  3446     075D  1C03               	skipc
  3447     075E  2F60               	goto	u1991
  3448     075F  2F61               	goto	u1990
  3449     0760                     u1991:
  3450     0760  2F72               	goto	l17
  3451     0761                     u1990:
  3452     0761                     l2729:
  3453                           
  3454                           ;mcc_generated_files/disp_7seg/disp_7seg.c: 16:     display_digital1 %= 10;
  3455     0761  300A               	movlw	10
  3456     0762  00F0               	movwf	___awmod@divisor
  3457     0763  3000               	movlw	0
  3458     0764  00F1               	movwf	___awmod@divisor+1
  3459     0765  0856               	movf	disp_sub@display_digital1,w
  3460     0766  00F8               	movwf	??_disp_sub
  3461     0767  01F9               	clrf	??_disp_sub+1
  3462     0768  0878               	movf	??_disp_sub,w
  3463     0769  00F2               	movwf	___awmod@dividend
  3464     076A  0879               	movf	??_disp_sub+1,w
  3465     076B  00F3               	movwf	___awmod@dividend+1
  3466     076C  3187  279B  3187   	fcall	___awmod
  3467     076F  0870               	movf	?___awmod,w
  3468     0770  0020               	movlb	0	; select bank0
  3469     0771  00D6               	movwf	disp_sub@display_digital1
  3470     0772                     l17:	
  3471                           ;mcc_generated_files/disp_7seg/disp_7seg.c: 17:   }
  3472                           
  3473                           
  3474                           ;mcc_generated_files/disp_7seg/disp_7seg.c: 18:   unsigned char display_digital2 = (unsi
      +                          gned char)(temp % 10);
  3475     0772  300A               	movlw	10
  3476     0773  00F0               	movwf	___lwmod@divisor
  3477     0774  3000               	movlw	0
  3478     0775  00F1               	movwf	___lwmod@divisor+1
  3479     0776  0853               	movf	disp_sub@temp+1,w
  3480     0777  00F3               	movwf	___lwmod@dividend+1
  3481     0778  0852               	movf	disp_sub@temp,w
  3482     0779  00F2               	movwf	___lwmod@dividend
  3483     077A  318F  271E  3187   	fcall	___lwmod
  3484     077D  0870               	movf	?___lwmod,w
  3485     077E  0020               	movlb	0	; select bank0
  3486     077F  00D0               	movwf	disp_sub@display_digital2
  3487     0780                     l2731:
  3488                           
  3489                           ;mcc_generated_files/disp_7seg/disp_7seg.c: 19:   unsigned char display_digital3 = disp_
      +                          char;
  3490     0780  0877               	movf	disp_sub@disp_char,w
  3491     0781  00D1               	movwf	disp_sub@display_digital3
  3492     0782                     l2733:
  3493                           
  3494                           ;mcc_generated_files/disp_7seg/disp_7seg.c: 21:   for (unsigned int i = 0; i < 10; i++) 
      +                          {
  3495     0782  01D4               	clrf	disp_sub@i
  3496     0783  01D5               	clrf	disp_sub@i+1
  3497     0784                     l2739:
  3498                           
  3499                           ;mcc_generated_files/disp_7seg/disp_7seg.c: 22:     disp_7seg(display_digital1, display_
      +                          digital2, display_digital3);
  3500     0784  0850               	movf	disp_sub@display_digital2,w
  3501     0785  00F4               	movwf	disp_7seg@char2
  3502     0786  0851               	movf	disp_sub@display_digital3,w
  3503     0787  00F5               	movwf	disp_7seg@char3
  3504     0788  0856               	movf	disp_sub@display_digital1,w
  3505     0789  318E  26B2  3187   	fcall	_disp_7seg
  3506     078C                     l2741:
  3507                           
  3508                           ;mcc_generated_files/disp_7seg/disp_7seg.c: 23:   }
  3509     078C  3001               	movlw	1
  3510     078D  0020               	movlb	0	; select bank0
  3511     078E  07D4               	addwf	disp_sub@i,f
  3512     078F  3000               	movlw	0
  3513     0790  3DD5               	addwfc	disp_sub@i+1,f
  3514     0791                     l2743:
  3515     0791  3000               	movlw	0
  3516     0792  0255               	subwf	disp_sub@i+1,w
  3517     0793  300A               	movlw	10
  3518     0794  1903               	skipnz
  3519     0795  0254               	subwf	disp_sub@i,w
  3520     0796  1C03               	skipc
  3521     0797  2F99               	goto	u2001
  3522     0798  2F9A               	goto	u2000
  3523     0799                     u2001:
  3524     0799  2F84               	goto	l2739
  3525     079A                     u2000:
  3526     079A                     l20:
  3527     079A  0008               	return
  3528     079B                     __end_of_disp_sub:
  3529                           
  3530                           	psect	text4
  3531     0EB2                     __ptext4:	
  3532 ;; *************** function _disp_7seg *****************
  3533 ;; Defined at:
  3534 ;;		line 26 in file "mcc_generated_files/disp_7seg/disp_7seg.c"
  3535 ;; Parameters:    Size  Location     Type
  3536 ;;  char1           1    wreg     unsigned char 
  3537 ;;  char2           1    4[COMMON] unsigned char 
  3538 ;;  char3           1    5[COMMON] unsigned char 
  3539 ;; Auto vars:     Size  Location     Type
  3540 ;;  char1           1    6[COMMON] unsigned char 
  3541 ;; Return value:  Size  Location     Type
  3542 ;;                  1    wreg      void 
  3543 ;; Registers used:
  3544 ;;		wreg, status,2, status,0, pclath, cstack
  3545 ;; Tracked objects:
  3546 ;;		On entry : 0/0
  3547 ;;		On exit  : 0/0
  3548 ;;		Unchanged: 0/0
  3549 ;; Data sizes:     COMMON   BANK0   BANK1   BANK2   BANK3   BANK4   BANK5
  3550 ;;      Params:         2       0       0       0       0       0       0
  3551 ;;      Locals:         1       0       0       0       0       0       0
  3552 ;;      Temps:          0       0       0       0       0       0       0
  3553 ;;      Totals:         3       0       0       0       0       0       0
  3554 ;;Total ram usage:        3 bytes
  3555 ;; Hardware stack levels used: 1
  3556 ;; Hardware stack levels required when called: 6
  3557 ;; This function calls:
  3558 ;;		_SSD
  3559 ;; This function is called by:
  3560 ;;		_disp_sub
  3561 ;; This function uses a non-reentrant model
  3562 ;;
  3563                           
  3564     0EB2                     _disp_7seg:	
  3565                           ;psect for function _disp_7seg
  3566                           
  3567                           
  3568                           ;incstack = 0
  3569                           ; Regs used in _disp_7seg: [wreg+status,2+status,0+pclath+cstack]
  3570                           ;disp_7seg@char1 stored from wreg
  3571     0EB2  00F6               	movwf	disp_7seg@char1
  3572     0EB3                     l2519:
  3573                           
  3574                           ;mcc_generated_files/disp_7seg/disp_7seg.c: 27:   SSD(char1, 1);
  3575     0EB3  01F2               	clrf	SSD@xn
  3576     0EB4  0AF2               	incf	SSD@xn,f
  3577     0EB5  0876               	movf	disp_7seg@char1,w
  3578     0EB6  3180  202F  318E   	fcall	_SSD
  3579                           
  3580                           ;mcc_generated_files/disp_7seg/disp_7seg.c: 28:   SSD(char2, 2);
  3581     0EB9  3002               	movlw	2
  3582     0EBA  00F2               	movwf	SSD@xn
  3583     0EBB  0874               	movf	disp_7seg@char2,w
  3584     0EBC  3180  202F  318E   	fcall	_SSD
  3585                           
  3586                           ;mcc_generated_files/disp_7seg/disp_7seg.c: 29:   SSD(10, 3);
  3587     0EBF  3003               	movlw	3
  3588     0EC0  00F2               	movwf	SSD@xn
  3589     0EC1  300A               	movlw	10
  3590     0EC2  3180  202F  318E   	fcall	_SSD
  3591                           
  3592                           ;mcc_generated_files/disp_7seg/disp_7seg.c: 30:   SSD(char3, 3);
  3593     0EC5  3003               	movlw	3
  3594     0EC6  00F2               	movwf	SSD@xn
  3595     0EC7  0875               	movf	disp_7seg@char3,w
  3596     0EC8  3180  202F  318E   	fcall	_SSD
  3597                           
  3598                           ;mcc_generated_files/disp_7seg/disp_7seg.c: 31:   SSD(10, 1);
  3599     0ECB  01F2               	clrf	SSD@xn
  3600     0ECC  0AF2               	incf	SSD@xn,f
  3601     0ECD  300A               	movlw	10
  3602     0ECE  3180  202F  318E   	fcall	_SSD
  3603     0ED1                     l23:
  3604     0ED1  0008               	return
  3605     0ED2                     __end_of_disp_7seg:
  3606                           
  3607                           	psect	text5
  3608     002F                     __ptext5:	
  3609 ;; *************** function _SSD *****************
  3610 ;; Defined at:
  3611 ;;		line 331 in file "mcc_generated_files/disp_7seg/disp_7seg.c"
  3612 ;; Parameters:    Size  Location     Type
  3613 ;;  num             1    wreg     unsigned char 
  3614 ;;  xn              1    2[COMMON] unsigned char 
  3615 ;; Auto vars:     Size  Location     Type
  3616 ;;  num             1    3[COMMON] unsigned char 
  3617 ;; Return value:  Size  Location     Type
  3618 ;;                  1    wreg      void 
  3619 ;; Registers used:
  3620 ;;		wreg, status,2, status,0, pclath, cstack
  3621 ;; Tracked objects:
  3622 ;;		On entry : 0/0
  3623 ;;		On exit  : 0/0
  3624 ;;		Unchanged: 0/0
  3625 ;; Data sizes:     COMMON   BANK0   BANK1   BANK2   BANK3   BANK4   BANK5
  3626 ;;      Params:         1       0       0       0       0       0       0
  3627 ;;      Locals:         1       0       0       0       0       0       0
  3628 ;;      Temps:          0       0       0       0       0       0       0
  3629 ;;      Totals:         2       0       0       0       0       0       0
  3630 ;;Total ram usage:        2 bytes
  3631 ;; Hardware stack levels used: 1
  3632 ;; Hardware stack levels required when called: 5
  3633 ;; This function calls:
  3634 ;;		_SSLED
  3635 ;; This function is called by:
  3636 ;;		_disp_7seg
  3637 ;; This function uses a non-reentrant model
  3638 ;;
  3639                           
  3640     002F                     _SSD:	
  3641                           ;psect for function _SSD
  3642                           
  3643                           
  3644                           ;incstack = 0
  3645                           ; Regs used in _SSD: [wreg+status,2+status,0+pclath+cstack]
  3646                           ;SSD@num stored from wreg
  3647     002F  00F3               	movwf	SSD@num
  3648     0030                     l2455:
  3649                           
  3650                           ;mcc_generated_files/disp_7seg/disp_7seg.c: 332:   if (num == 0) {
  3651     0030  0873               	movf	SSD@num,w
  3652     0031  1D03               	btfss	3,2
  3653     0032  2834               	goto	u1511
  3654     0033  2835               	goto	u1510
  3655     0034                     u1511:
  3656     0034  2860               	goto	l2459
  3657     0035                     u1510:
  3658     0035                     l2457:
  3659                           
  3660                           ;mcc_generated_files/disp_7seg/disp_7seg.c: 333:     SSLED(xn, 1);
  3661     0035  01F0               	clrf	SSLED@xa
  3662     0036  0AF0               	incf	SSLED@xa,f
  3663     0037  0872               	movf	SSD@xn,w
  3664     0038  3184  2485  3180   	fcall	_SSLED
  3665                           
  3666                           ;mcc_generated_files/disp_7seg/disp_7seg.c: 334:     SSLED(xn, 2);
  3667     003B  3002               	movlw	2
  3668     003C  00F0               	movwf	SSLED@xa
  3669     003D  0872               	movf	SSD@xn,w
  3670     003E  3184  2485  3180   	fcall	_SSLED
  3671                           
  3672                           ;mcc_generated_files/disp_7seg/disp_7seg.c: 335:     SSLED(xn, 3);
  3673     0041  3003               	movlw	3
  3674     0042  00F0               	movwf	SSLED@xa
  3675     0043  0872               	movf	SSD@xn,w
  3676     0044  3184  2485  3180   	fcall	_SSLED
  3677                           
  3678                           ;mcc_generated_files/disp_7seg/disp_7seg.c: 336:     SSLED(xn, 4);
  3679     0047  3004               	movlw	4
  3680     0048  00F0               	movwf	SSLED@xa
  3681     0049  0872               	movf	SSD@xn,w
  3682     004A  3184  2485  3180   	fcall	_SSLED
  3683                           
  3684                           ;mcc_generated_files/disp_7seg/disp_7seg.c: 337:     SSLED(xn, 5);
  3685     004D  3005               	movlw	5
  3686     004E  00F0               	movwf	SSLED@xa
  3687     004F  0872               	movf	SSD@xn,w
  3688     0050  3184  2485  3180   	fcall	_SSLED
  3689                           
  3690                           ;mcc_generated_files/disp_7seg/disp_7seg.c: 338:     SSLED(xn, 6);
  3691     0053  3006               	movlw	6
  3692     0054  00F0               	movwf	SSLED@xa
  3693     0055  0872               	movf	SSD@xn,w
  3694     0056  3184  2485  3180   	fcall	_SSLED
  3695                           
  3696                           ;mcc_generated_files/disp_7seg/disp_7seg.c: 339:     SSLED(1, 8);
  3697     0059  3008               	movlw	8
  3698     005A  00F0               	movwf	SSLED@xa
  3699     005B  3001               	movlw	1
  3700     005C  3184  2485  3180   	fcall	_SSLED
  3701                           
  3702                           ;mcc_generated_files/disp_7seg/disp_7seg.c: 340:   } else if (num == 1) {
  3703     005F  2ADC               	goto	l329
  3704     0060                     l2459:
  3705     0060  0373               	decf	SSD@num,w
  3706     0061  1D03               	btfss	3,2
  3707     0062  2864               	goto	u1521
  3708     0063  2865               	goto	u1520
  3709     0064                     u1521:
  3710     0064  2890               	goto	l2463
  3711     0065                     u1520:
  3712     0065                     l2461:
  3713                           
  3714                           ;mcc_generated_files/disp_7seg/disp_7seg.c: 341:     SSLED(xn, 5);
  3715     0065  3005               	movlw	5
  3716     0066  00F0               	movwf	SSLED@xa
  3717     0067  0872               	movf	SSD@xn,w
  3718     0068  3184  2485  3180   	fcall	_SSLED
  3719                           
  3720                           ;mcc_generated_files/disp_7seg/disp_7seg.c: 342:     SSLED(xn, 6);
  3721     006B  3006               	movlw	6
  3722     006C  00F0               	movwf	SSLED@xa
  3723     006D  0872               	movf	SSD@xn,w
  3724     006E  3184  2485  3180   	fcall	_SSLED
  3725                           
  3726                           ;mcc_generated_files/disp_7seg/disp_7seg.c: 343:     SSLED(1, 8);
  3727     0071  3008               	movlw	8
  3728     0072  00F0               	movwf	SSLED@xa
  3729     0073  3001               	movlw	1
  3730     0074  3184  2485  3180   	fcall	_SSLED
  3731                           
  3732                           ;mcc_generated_files/disp_7seg/disp_7seg.c: 344:     SSLED(1, 8);
  3733     0077  3008               	movlw	8
  3734     0078  00F0               	movwf	SSLED@xa
  3735     0079  3001               	movlw	1
  3736     007A  3184  2485  3180   	fcall	_SSLED
  3737                           
  3738                           ;mcc_generated_files/disp_7seg/disp_7seg.c: 345:     SSLED(1, 8);
  3739     007D  3008               	movlw	8
  3740     007E  00F0               	movwf	SSLED@xa
  3741     007F  3001               	movlw	1
  3742     0080  3184  2485  3180   	fcall	_SSLED
  3743                           
  3744                           ;mcc_generated_files/disp_7seg/disp_7seg.c: 346:     SSLED(1, 8);
  3745     0083  3008               	movlw	8
  3746     0084  00F0               	movwf	SSLED@xa
  3747     0085  3001               	movlw	1
  3748     0086  3184  2485  3180   	fcall	_SSLED
  3749                           
  3750                           ;mcc_generated_files/disp_7seg/disp_7seg.c: 347:     SSLED(1, 8);
  3751     0089  3008               	movlw	8
  3752     008A  00F0               	movwf	SSLED@xa
  3753     008B  3001               	movlw	1
  3754     008C  3184  2485  3180   	fcall	_SSLED
  3755                           
  3756                           ;mcc_generated_files/disp_7seg/disp_7seg.c: 348:   } else if (num == 2) {
  3757     008F  2ADC               	goto	l329
  3758     0090                     l2463:
  3759     0090  3002               	movlw	2
  3760     0091  0673               	xorwf	SSD@num,w
  3761     0092  1D03               	btfss	3,2
  3762     0093  2895               	goto	u1531
  3763     0094  2896               	goto	u1530
  3764     0095                     u1531:
  3765     0095  28C1               	goto	l2467
  3766     0096                     u1530:
  3767     0096                     l2465:
  3768                           
  3769                           ;mcc_generated_files/disp_7seg/disp_7seg.c: 349:     SSLED(xn, 1);
  3770     0096  01F0               	clrf	SSLED@xa
  3771     0097  0AF0               	incf	SSLED@xa,f
  3772     0098  0872               	movf	SSD@xn,w
  3773     0099  3184  2485  3180   	fcall	_SSLED
  3774                           
  3775                           ;mcc_generated_files/disp_7seg/disp_7seg.c: 350:     SSLED(xn, 2);
  3776     009C  3002               	movlw	2
  3777     009D  00F0               	movwf	SSLED@xa
  3778     009E  0872               	movf	SSD@xn,w
  3779     009F  3184  2485  3180   	fcall	_SSLED
  3780                           
  3781                           ;mcc_generated_files/disp_7seg/disp_7seg.c: 351:     SSLED(xn, 4);
  3782     00A2  3004               	movlw	4
  3783     00A3  00F0               	movwf	SSLED@xa
  3784     00A4  0872               	movf	SSD@xn,w
  3785     00A5  3184  2485  3180   	fcall	_SSLED
  3786                           
  3787                           ;mcc_generated_files/disp_7seg/disp_7seg.c: 352:     SSLED(xn, 5);
  3788     00A8  3005               	movlw	5
  3789     00A9  00F0               	movwf	SSLED@xa
  3790     00AA  0872               	movf	SSD@xn,w
  3791     00AB  3184  2485  3180   	fcall	_SSLED
  3792                           
  3793                           ;mcc_generated_files/disp_7seg/disp_7seg.c: 353:     SSLED(xn, 7);
  3794     00AE  3007               	movlw	7
  3795     00AF  00F0               	movwf	SSLED@xa
  3796     00B0  0872               	movf	SSD@xn,w
  3797     00B1  3184  2485  3180   	fcall	_SSLED
  3798                           
  3799                           ;mcc_generated_files/disp_7seg/disp_7seg.c: 354:     SSLED(1, 8);
  3800     00B4  3008               	movlw	8
  3801     00B5  00F0               	movwf	SSLED@xa
  3802     00B6  3001               	movlw	1
  3803     00B7  3184  2485  3180   	fcall	_SSLED
  3804                           
  3805                           ;mcc_generated_files/disp_7seg/disp_7seg.c: 355:     SSLED(1, 8);
  3806     00BA  3008               	movlw	8
  3807     00BB  00F0               	movwf	SSLED@xa
  3808     00BC  3001               	movlw	1
  3809     00BD  3184  2485  3180   	fcall	_SSLED
  3810                           
  3811                           ;mcc_generated_files/disp_7seg/disp_7seg.c: 356:   } else if (num == 3) {
  3812     00C0  2ADC               	goto	l329
  3813     00C1                     l2467:
  3814     00C1  3003               	movlw	3
  3815     00C2  0673               	xorwf	SSD@num,w
  3816     00C3  1D03               	btfss	3,2
  3817     00C4  28C6               	goto	u1541
  3818     00C5  28C7               	goto	u1540
  3819     00C6                     u1541:
  3820     00C6  28F2               	goto	l2471
  3821     00C7                     u1540:
  3822     00C7                     l2469:
  3823                           
  3824                           ;mcc_generated_files/disp_7seg/disp_7seg.c: 357:     SSLED(xn, 1);
  3825     00C7  01F0               	clrf	SSLED@xa
  3826     00C8  0AF0               	incf	SSLED@xa,f
  3827     00C9  0872               	movf	SSD@xn,w
  3828     00CA  3184  2485  3180   	fcall	_SSLED
  3829                           
  3830                           ;mcc_generated_files/disp_7seg/disp_7seg.c: 358:     SSLED(xn, 4);
  3831     00CD  3004               	movlw	4
  3832     00CE  00F0               	movwf	SSLED@xa
  3833     00CF  0872               	movf	SSD@xn,w
  3834     00D0  3184  2485  3180   	fcall	_SSLED
  3835                           
  3836                           ;mcc_generated_files/disp_7seg/disp_7seg.c: 359:     SSLED(xn, 5);
  3837     00D3  3005               	movlw	5
  3838     00D4  00F0               	movwf	SSLED@xa
  3839     00D5  0872               	movf	SSD@xn,w
  3840     00D6  3184  2485  3180   	fcall	_SSLED
  3841                           
  3842                           ;mcc_generated_files/disp_7seg/disp_7seg.c: 360:     SSLED(xn, 6);
  3843     00D9  3006               	movlw	6
  3844     00DA  00F0               	movwf	SSLED@xa
  3845     00DB  0872               	movf	SSD@xn,w
  3846     00DC  3184  2485  3180   	fcall	_SSLED
  3847                           
  3848                           ;mcc_generated_files/disp_7seg/disp_7seg.c: 361:     SSLED(xn, 7);
  3849     00DF  3007               	movlw	7
  3850     00E0  00F0               	movwf	SSLED@xa
  3851     00E1  0872               	movf	SSD@xn,w
  3852     00E2  3184  2485  3180   	fcall	_SSLED
  3853                           
  3854                           ;mcc_generated_files/disp_7seg/disp_7seg.c: 362:     SSLED(1, 8);
  3855     00E5  3008               	movlw	8
  3856     00E6  00F0               	movwf	SSLED@xa
  3857     00E7  3001               	movlw	1
  3858     00E8  3184  2485  3180   	fcall	_SSLED
  3859                           
  3860                           ;mcc_generated_files/disp_7seg/disp_7seg.c: 363:     SSLED(1, 8);
  3861     00EB  3008               	movlw	8
  3862     00EC  00F0               	movwf	SSLED@xa
  3863     00ED  3001               	movlw	1
  3864     00EE  3184  2485  3180   	fcall	_SSLED
  3865                           
  3866                           ;mcc_generated_files/disp_7seg/disp_7seg.c: 364:   } else if (num == 4) {
  3867     00F1  2ADC               	goto	l329
  3868     00F2                     l2471:
  3869     00F2  3004               	movlw	4
  3870     00F3  0673               	xorwf	SSD@num,w
  3871     00F4  1D03               	btfss	3,2
  3872     00F5  28F7               	goto	u1551
  3873     00F6  28F8               	goto	u1550
  3874     00F7                     u1551:
  3875     00F7  2923               	goto	l2475
  3876     00F8                     u1550:
  3877     00F8                     l2473:
  3878                           
  3879                           ;mcc_generated_files/disp_7seg/disp_7seg.c: 365:     SSLED(xn, 3);
  3880     00F8  3003               	movlw	3
  3881     00F9  00F0               	movwf	SSLED@xa
  3882     00FA  0872               	movf	SSD@xn,w
  3883     00FB  3184  2485  3180   	fcall	_SSLED
  3884                           
  3885                           ;mcc_generated_files/disp_7seg/disp_7seg.c: 366:     SSLED(xn, 5);
  3886     00FE  3005               	movlw	5
  3887     00FF  00F0               	movwf	SSLED@xa
  3888     0100  0872               	movf	SSD@xn,w
  3889     0101  3184  2485  3180   	fcall	_SSLED
  3890                           
  3891                           ;mcc_generated_files/disp_7seg/disp_7seg.c: 367:     SSLED(xn, 6);
  3892     0104  3006               	movlw	6
  3893     0105  00F0               	movwf	SSLED@xa
  3894     0106  0872               	movf	SSD@xn,w
  3895     0107  3184  2485  3180   	fcall	_SSLED
  3896                           
  3897                           ;mcc_generated_files/disp_7seg/disp_7seg.c: 368:     SSLED(xn, 7);
  3898     010A  3007               	movlw	7
  3899     010B  00F0               	movwf	SSLED@xa
  3900     010C  0872               	movf	SSD@xn,w
  3901     010D  3184  2485  3180   	fcall	_SSLED
  3902                           
  3903                           ;mcc_generated_files/disp_7seg/disp_7seg.c: 369:     SSLED(1, 8);
  3904     0110  3008               	movlw	8
  3905     0111  00F0               	movwf	SSLED@xa
  3906     0112  3001               	movlw	1
  3907     0113  3184  2485  3180   	fcall	_SSLED
  3908                           
  3909                           ;mcc_generated_files/disp_7seg/disp_7seg.c: 370:     SSLED(1, 8);
  3910     0116  3008               	movlw	8
  3911     0117  00F0               	movwf	SSLED@xa
  3912     0118  3001               	movlw	1
  3913     0119  3184  2485  3180   	fcall	_SSLED
  3914                           
  3915                           ;mcc_generated_files/disp_7seg/disp_7seg.c: 371:     SSLED(1, 8);
  3916     011C  3008               	movlw	8
  3917     011D  00F0               	movwf	SSLED@xa
  3918     011E  3001               	movlw	1
  3919     011F  3184  2485  3180   	fcall	_SSLED
  3920                           
  3921                           ;mcc_generated_files/disp_7seg/disp_7seg.c: 372:   } else if (num == 5) {
  3922     0122  2ADC               	goto	l329
  3923     0123                     l2475:
  3924     0123  3005               	movlw	5
  3925     0124  0673               	xorwf	SSD@num,w
  3926     0125  1D03               	btfss	3,2
  3927     0126  2928               	goto	u1561
  3928     0127  2929               	goto	u1560
  3929     0128                     u1561:
  3930     0128  2954               	goto	l2479
  3931     0129                     u1560:
  3932     0129                     l2477:
  3933                           
  3934                           ;mcc_generated_files/disp_7seg/disp_7seg.c: 373:     SSLED(xn, 1);
  3935     0129  01F0               	clrf	SSLED@xa
  3936     012A  0AF0               	incf	SSLED@xa,f
  3937     012B  0872               	movf	SSD@xn,w
  3938     012C  3184  2485  3180   	fcall	_SSLED
  3939                           
  3940                           ;mcc_generated_files/disp_7seg/disp_7seg.c: 374:     SSLED(xn, 3);
  3941     012F  3003               	movlw	3
  3942     0130  00F0               	movwf	SSLED@xa
  3943     0131  0872               	movf	SSD@xn,w
  3944     0132  3184  2485  3180   	fcall	_SSLED
  3945                           
  3946                           ;mcc_generated_files/disp_7seg/disp_7seg.c: 375:     SSLED(xn, 4);
  3947     0135  3004               	movlw	4
  3948     0136  00F0               	movwf	SSLED@xa
  3949     0137  0872               	movf	SSD@xn,w
  3950     0138  3184  2485  3180   	fcall	_SSLED
  3951                           
  3952                           ;mcc_generated_files/disp_7seg/disp_7seg.c: 376:     SSLED(xn, 6);
  3953     013B  3006               	movlw	6
  3954     013C  00F0               	movwf	SSLED@xa
  3955     013D  0872               	movf	SSD@xn,w
  3956     013E  3184  2485  3180   	fcall	_SSLED
  3957                           
  3958                           ;mcc_generated_files/disp_7seg/disp_7seg.c: 377:     SSLED(xn, 7);
  3959     0141  3007               	movlw	7
  3960     0142  00F0               	movwf	SSLED@xa
  3961     0143  0872               	movf	SSD@xn,w
  3962     0144  3184  2485  3180   	fcall	_SSLED
  3963                           
  3964                           ;mcc_generated_files/disp_7seg/disp_7seg.c: 378:     SSLED(1, 8);
  3965     0147  3008               	movlw	8
  3966     0148  00F0               	movwf	SSLED@xa
  3967     0149  3001               	movlw	1
  3968     014A  3184  2485  3180   	fcall	_SSLED
  3969                           
  3970                           ;mcc_generated_files/disp_7seg/disp_7seg.c: 379:     SSLED(1, 8);
  3971     014D  3008               	movlw	8
  3972     014E  00F0               	movwf	SSLED@xa
  3973     014F  3001               	movlw	1
  3974     0150  3184  2485  3180   	fcall	_SSLED
  3975                           
  3976                           ;mcc_generated_files/disp_7seg/disp_7seg.c: 380:   } else if (num == 6) {
  3977     0153  2ADC               	goto	l329
  3978     0154                     l2479:
  3979     0154  3006               	movlw	6
  3980     0155  0673               	xorwf	SSD@num,w
  3981     0156  1D03               	btfss	3,2
  3982     0157  2959               	goto	u1571
  3983     0158  295A               	goto	u1570
  3984     0159                     u1571:
  3985     0159  2985               	goto	l2483
  3986     015A                     u1570:
  3987     015A                     l2481:
  3988                           
  3989                           ;mcc_generated_files/disp_7seg/disp_7seg.c: 381:     SSLED(xn, 1);
  3990     015A  01F0               	clrf	SSLED@xa
  3991     015B  0AF0               	incf	SSLED@xa,f
  3992     015C  0872               	movf	SSD@xn,w
  3993     015D  3184  2485  3180   	fcall	_SSLED
  3994                           
  3995                           ;mcc_generated_files/disp_7seg/disp_7seg.c: 382:     SSLED(xn, 2);
  3996     0160  3002               	movlw	2
  3997     0161  00F0               	movwf	SSLED@xa
  3998     0162  0872               	movf	SSD@xn,w
  3999     0163  3184  2485  3180   	fcall	_SSLED
  4000                           
  4001                           ;mcc_generated_files/disp_7seg/disp_7seg.c: 383:     SSLED(xn, 3);
  4002     0166  3003               	movlw	3
  4003     0167  00F0               	movwf	SSLED@xa
  4004     0168  0872               	movf	SSD@xn,w
  4005     0169  3184  2485  3180   	fcall	_SSLED
  4006                           
  4007                           ;mcc_generated_files/disp_7seg/disp_7seg.c: 384:     SSLED(xn, 6);
  4008     016C  3006               	movlw	6
  4009     016D  00F0               	movwf	SSLED@xa
  4010     016E  0872               	movf	SSD@xn,w
  4011     016F  3184  2485  3180   	fcall	_SSLED
  4012                           
  4013                           ;mcc_generated_files/disp_7seg/disp_7seg.c: 385:     SSLED(xn, 7);
  4014     0172  3007               	movlw	7
  4015     0173  00F0               	movwf	SSLED@xa
  4016     0174  0872               	movf	SSD@xn,w
  4017     0175  3184  2485  3180   	fcall	_SSLED
  4018                           
  4019                           ;mcc_generated_files/disp_7seg/disp_7seg.c: 386:     SSLED(1, 8);
  4020     0178  3008               	movlw	8
  4021     0179  00F0               	movwf	SSLED@xa
  4022     017A  3001               	movlw	1
  4023     017B  3184  2485  3180   	fcall	_SSLED
  4024                           
  4025                           ;mcc_generated_files/disp_7seg/disp_7seg.c: 387:     SSLED(1, 8);
  4026     017E  3008               	movlw	8
  4027     017F  00F0               	movwf	SSLED@xa
  4028     0180  3001               	movlw	1
  4029     0181  3184  2485  3180   	fcall	_SSLED
  4030                           
  4031                           ;mcc_generated_files/disp_7seg/disp_7seg.c: 388:   } else if (num == 7) {
  4032     0184  2ADC               	goto	l329
  4033     0185                     l2483:
  4034     0185  3007               	movlw	7
  4035     0186  0673               	xorwf	SSD@num,w
  4036     0187  1D03               	btfss	3,2
  4037     0188  298A               	goto	u1581
  4038     0189  298B               	goto	u1580
  4039     018A                     u1581:
  4040     018A  29B6               	goto	l2487
  4041     018B                     u1580:
  4042     018B                     l2485:
  4043                           
  4044                           ;mcc_generated_files/disp_7seg/disp_7seg.c: 389:     SSLED(xn, 3);
  4045     018B  3003               	movlw	3
  4046     018C  00F0               	movwf	SSLED@xa
  4047     018D  0872               	movf	SSD@xn,w
  4048     018E  3184  2485  3180   	fcall	_SSLED
  4049                           
  4050                           ;mcc_generated_files/disp_7seg/disp_7seg.c: 390:     SSLED(xn, 4);
  4051     0191  3004               	movlw	4
  4052     0192  00F0               	movwf	SSLED@xa
  4053     0193  0872               	movf	SSD@xn,w
  4054     0194  3184  2485  3180   	fcall	_SSLED
  4055                           
  4056                           ;mcc_generated_files/disp_7seg/disp_7seg.c: 391:     SSLED(xn, 5);
  4057     0197  3005               	movlw	5
  4058     0198  00F0               	movwf	SSLED@xa
  4059     0199  0872               	movf	SSD@xn,w
  4060     019A  3184  2485  3180   	fcall	_SSLED
  4061                           
  4062                           ;mcc_generated_files/disp_7seg/disp_7seg.c: 392:     SSLED(xn, 6);
  4063     019D  3006               	movlw	6
  4064     019E  00F0               	movwf	SSLED@xa
  4065     019F  0872               	movf	SSD@xn,w
  4066     01A0  3184  2485  3180   	fcall	_SSLED
  4067                           
  4068                           ;mcc_generated_files/disp_7seg/disp_7seg.c: 393:     SSLED(1, 8);
  4069     01A3  3008               	movlw	8
  4070     01A4  00F0               	movwf	SSLED@xa
  4071     01A5  3001               	movlw	1
  4072     01A6  3184  2485  3180   	fcall	_SSLED
  4073                           
  4074                           ;mcc_generated_files/disp_7seg/disp_7seg.c: 394:     SSLED(1, 8);
  4075     01A9  3008               	movlw	8
  4076     01AA  00F0               	movwf	SSLED@xa
  4077     01AB  3001               	movlw	1
  4078     01AC  3184  2485  3180   	fcall	_SSLED
  4079                           
  4080                           ;mcc_generated_files/disp_7seg/disp_7seg.c: 395:     SSLED(1, 8);
  4081     01AF  3008               	movlw	8
  4082     01B0  00F0               	movwf	SSLED@xa
  4083     01B1  3001               	movlw	1
  4084     01B2  3184  2485  3180   	fcall	_SSLED
  4085                           
  4086                           ;mcc_generated_files/disp_7seg/disp_7seg.c: 396:   } else if (num == 8) {
  4087     01B5  2ADC               	goto	l329
  4088     01B6                     l2487:
  4089     01B6  3008               	movlw	8
  4090     01B7  0673               	xorwf	SSD@num,w
  4091     01B8  1D03               	btfss	3,2
  4092     01B9  29BB               	goto	u1591
  4093     01BA  29BC               	goto	u1590
  4094     01BB                     u1591:
  4095     01BB  29E7               	goto	l2491
  4096     01BC                     u1590:
  4097     01BC                     l2489:
  4098                           
  4099                           ;mcc_generated_files/disp_7seg/disp_7seg.c: 397:     SSLED(xn, 1);
  4100     01BC  01F0               	clrf	SSLED@xa
  4101     01BD  0AF0               	incf	SSLED@xa,f
  4102     01BE  0872               	movf	SSD@xn,w
  4103     01BF  3184  2485  3180   	fcall	_SSLED
  4104                           
  4105                           ;mcc_generated_files/disp_7seg/disp_7seg.c: 398:     SSLED(xn, 2);
  4106     01C2  3002               	movlw	2
  4107     01C3  00F0               	movwf	SSLED@xa
  4108     01C4  0872               	movf	SSD@xn,w
  4109     01C5  3184  2485  3180   	fcall	_SSLED
  4110                           
  4111                           ;mcc_generated_files/disp_7seg/disp_7seg.c: 399:     SSLED(xn, 3);
  4112     01C8  3003               	movlw	3
  4113     01C9  00F0               	movwf	SSLED@xa
  4114     01CA  0872               	movf	SSD@xn,w
  4115     01CB  3184  2485  3180   	fcall	_SSLED
  4116                           
  4117                           ;mcc_generated_files/disp_7seg/disp_7seg.c: 400:     SSLED(xn, 4);
  4118     01CE  3004               	movlw	4
  4119     01CF  00F0               	movwf	SSLED@xa
  4120     01D0  0872               	movf	SSD@xn,w
  4121     01D1  3184  2485  3180   	fcall	_SSLED
  4122                           
  4123                           ;mcc_generated_files/disp_7seg/disp_7seg.c: 401:     SSLED(xn, 5);
  4124     01D4  3005               	movlw	5
  4125     01D5  00F0               	movwf	SSLED@xa
  4126     01D6  0872               	movf	SSD@xn,w
  4127     01D7  3184  2485  3180   	fcall	_SSLED
  4128                           
  4129                           ;mcc_generated_files/disp_7seg/disp_7seg.c: 402:     SSLED(xn, 6);
  4130     01DA  3006               	movlw	6
  4131     01DB  00F0               	movwf	SSLED@xa
  4132     01DC  0872               	movf	SSD@xn,w
  4133     01DD  3184  2485  3180   	fcall	_SSLED
  4134                           
  4135                           ;mcc_generated_files/disp_7seg/disp_7seg.c: 403:     SSLED(xn, 7);
  4136     01E0  3007               	movlw	7
  4137     01E1  00F0               	movwf	SSLED@xa
  4138     01E2  0872               	movf	SSD@xn,w
  4139     01E3  3184  2485  3180   	fcall	_SSLED
  4140                           
  4141                           ;mcc_generated_files/disp_7seg/disp_7seg.c: 404:   } else if (num == 9) {
  4142     01E6  2ADC               	goto	l329
  4143     01E7                     l2491:
  4144     01E7  3009               	movlw	9
  4145     01E8  0673               	xorwf	SSD@num,w
  4146     01E9  1D03               	btfss	3,2
  4147     01EA  29EC               	goto	u1601
  4148     01EB  29ED               	goto	u1600
  4149     01EC                     u1601:
  4150     01EC  2A18               	goto	l2495
  4151     01ED                     u1600:
  4152     01ED                     l2493:
  4153                           
  4154                           ;mcc_generated_files/disp_7seg/disp_7seg.c: 405:     SSLED(xn, 3);
  4155     01ED  3003               	movlw	3
  4156     01EE  00F0               	movwf	SSLED@xa
  4157     01EF  0872               	movf	SSD@xn,w
  4158     01F0  3184  2485  3180   	fcall	_SSLED
  4159                           
  4160                           ;mcc_generated_files/disp_7seg/disp_7seg.c: 406:     SSLED(xn, 4);
  4161     01F3  3004               	movlw	4
  4162     01F4  00F0               	movwf	SSLED@xa
  4163     01F5  0872               	movf	SSD@xn,w
  4164     01F6  3184  2485  3180   	fcall	_SSLED
  4165                           
  4166                           ;mcc_generated_files/disp_7seg/disp_7seg.c: 407:     SSLED(xn, 5);
  4167     01F9  3005               	movlw	5
  4168     01FA  00F0               	movwf	SSLED@xa
  4169     01FB  0872               	movf	SSD@xn,w
  4170     01FC  3184  2485  3180   	fcall	_SSLED
  4171                           
  4172                           ;mcc_generated_files/disp_7seg/disp_7seg.c: 408:     SSLED(xn, 6);
  4173     01FF  3006               	movlw	6
  4174     0200  00F0               	movwf	SSLED@xa
  4175     0201  0872               	movf	SSD@xn,w
  4176     0202  3184  2485  3180   	fcall	_SSLED
  4177                           
  4178                           ;mcc_generated_files/disp_7seg/disp_7seg.c: 409:     SSLED(xn, 7);
  4179     0205  3007               	movlw	7
  4180     0206  00F0               	movwf	SSLED@xa
  4181     0207  0872               	movf	SSD@xn,w
  4182     0208  3184  2485  3180   	fcall	_SSLED
  4183                           
  4184                           ;mcc_generated_files/disp_7seg/disp_7seg.c: 410:     SSLED(1, 8);
  4185     020B  3008               	movlw	8
  4186     020C  00F0               	movwf	SSLED@xa
  4187     020D  3001               	movlw	1
  4188     020E  3184  2485  3180   	fcall	_SSLED
  4189                           
  4190                           ;mcc_generated_files/disp_7seg/disp_7seg.c: 411:     SSLED(1, 8);
  4191     0211  3008               	movlw	8
  4192     0212  00F0               	movwf	SSLED@xa
  4193     0213  3001               	movlw	1
  4194     0214  3184  2485  3180   	fcall	_SSLED
  4195                           
  4196                           ;mcc_generated_files/disp_7seg/disp_7seg.c: 412:   } else if (num == 10) {
  4197     0217  2ADC               	goto	l329
  4198     0218                     l2495:
  4199     0218  300A               	movlw	10
  4200     0219  0673               	xorwf	SSD@num,w
  4201     021A  1D03               	btfss	3,2
  4202     021B  2A1D               	goto	u1611
  4203     021C  2A1E               	goto	u1610
  4204     021D                     u1611:
  4205     021D  2A49               	goto	l2499
  4206     021E                     u1610:
  4207     021E                     l2497:
  4208                           
  4209                           ;mcc_generated_files/disp_7seg/disp_7seg.c: 413:     SSLED(xn, 8);
  4210     021E  3008               	movlw	8
  4211     021F  00F0               	movwf	SSLED@xa
  4212     0220  0872               	movf	SSD@xn,w
  4213     0221  3184  2485  3180   	fcall	_SSLED
  4214                           
  4215                           ;mcc_generated_files/disp_7seg/disp_7seg.c: 414:     SSLED(1, 8);
  4216     0224  3008               	movlw	8
  4217     0225  00F0               	movwf	SSLED@xa
  4218     0226  3001               	movlw	1
  4219     0227  3184  2485  3180   	fcall	_SSLED
  4220                           
  4221                           ;mcc_generated_files/disp_7seg/disp_7seg.c: 415:     SSLED(1, 8);
  4222     022A  3008               	movlw	8
  4223     022B  00F0               	movwf	SSLED@xa
  4224     022C  3001               	movlw	1
  4225     022D  3184  2485  3180   	fcall	_SSLED
  4226                           
  4227                           ;mcc_generated_files/disp_7seg/disp_7seg.c: 416:     SSLED(1, 8);
  4228     0230  3008               	movlw	8
  4229     0231  00F0               	movwf	SSLED@xa
  4230     0232  3001               	movlw	1
  4231     0233  3184  2485  3180   	fcall	_SSLED
  4232                           
  4233                           ;mcc_generated_files/disp_7seg/disp_7seg.c: 417:     SSLED(1, 8);
  4234     0236  3008               	movlw	8
  4235     0237  00F0               	movwf	SSLED@xa
  4236     0238  3001               	movlw	1
  4237     0239  3184  2485  3180   	fcall	_SSLED
  4238                           
  4239                           ;mcc_generated_files/disp_7seg/disp_7seg.c: 418:     SSLED(1, 8);
  4240     023C  3008               	movlw	8
  4241     023D  00F0               	movwf	SSLED@xa
  4242     023E  3001               	movlw	1
  4243     023F  3184  2485  3180   	fcall	_SSLED
  4244                           
  4245                           ;mcc_generated_files/disp_7seg/disp_7seg.c: 419:     SSLED(1, 8);
  4246     0242  3008               	movlw	8
  4247     0243  00F0               	movwf	SSLED@xa
  4248     0244  3001               	movlw	1
  4249     0245  3184  2485  3180   	fcall	_SSLED
  4250                           
  4251                           ;mcc_generated_files/disp_7seg/disp_7seg.c: 420:   } else if (num == 11) {
  4252     0248  2ADC               	goto	l329
  4253     0249                     l2499:
  4254     0249  300B               	movlw	11
  4255     024A  0673               	xorwf	SSD@num,w
  4256     024B  1D03               	btfss	3,2
  4257     024C  2A4E               	goto	u1621
  4258     024D  2A4F               	goto	u1620
  4259     024E                     u1621:
  4260     024E  2A7A               	goto	l2503
  4261     024F                     u1620:
  4262     024F                     l2501:
  4263                           
  4264                           ;mcc_generated_files/disp_7seg/disp_7seg.c: 421:     SSLED(xn, 1);
  4265     024F  01F0               	clrf	SSLED@xa
  4266     0250  0AF0               	incf	SSLED@xa,f
  4267     0251  0872               	movf	SSD@xn,w
  4268     0252  3184  2485  3180   	fcall	_SSLED
  4269                           
  4270                           ;mcc_generated_files/disp_7seg/disp_7seg.c: 422:     SSLED(xn, 2);
  4271     0255  3002               	movlw	2
  4272     0256  00F0               	movwf	SSLED@xa
  4273     0257  0872               	movf	SSD@xn,w
  4274     0258  3184  2485  3180   	fcall	_SSLED
  4275                           
  4276                           ;mcc_generated_files/disp_7seg/disp_7seg.c: 423:     SSLED(xn, 3);
  4277     025B  3003               	movlw	3
  4278     025C  00F0               	movwf	SSLED@xa
  4279     025D  0872               	movf	SSD@xn,w
  4280     025E  3184  2485  3180   	fcall	_SSLED
  4281                           
  4282                           ;mcc_generated_files/disp_7seg/disp_7seg.c: 424:     SSLED(xn, 4);
  4283     0261  3004               	movlw	4
  4284     0262  00F0               	movwf	SSLED@xa
  4285     0263  0872               	movf	SSD@xn,w
  4286     0264  3184  2485  3180   	fcall	_SSLED
  4287                           
  4288                           ;mcc_generated_files/disp_7seg/disp_7seg.c: 425:     SSLED(1, 8);
  4289     0267  3008               	movlw	8
  4290     0268  00F0               	movwf	SSLED@xa
  4291     0269  3001               	movlw	1
  4292     026A  3184  2485  3180   	fcall	_SSLED
  4293                           
  4294                           ;mcc_generated_files/disp_7seg/disp_7seg.c: 426:     SSLED(1, 8);
  4295     026D  3008               	movlw	8
  4296     026E  00F0               	movwf	SSLED@xa
  4297     026F  3001               	movlw	1
  4298     0270  3184  2485  3180   	fcall	_SSLED
  4299                           
  4300                           ;mcc_generated_files/disp_7seg/disp_7seg.c: 427:     SSLED(1, 8);
  4301     0273  3008               	movlw	8
  4302     0274  00F0               	movwf	SSLED@xa
  4303     0275  3001               	movlw	1
  4304     0276  3184  2485  3180   	fcall	_SSLED
  4305                           
  4306                           ;mcc_generated_files/disp_7seg/disp_7seg.c: 428:   } else if (num == 12) {
  4307     0279  2ADC               	goto	l329
  4308     027A                     l2503:
  4309     027A  300C               	movlw	12
  4310     027B  0673               	xorwf	SSD@num,w
  4311     027C  1D03               	btfss	3,2
  4312     027D  2A7F               	goto	u1631
  4313     027E  2A80               	goto	u1630
  4314     027F                     u1631:
  4315     027F  2AAB               	goto	l2507
  4316     0280                     u1630:
  4317     0280                     l2505:
  4318                           
  4319                           ;mcc_generated_files/disp_7seg/disp_7seg.c: 429:     SSLED(xn, 3);
  4320     0280  3003               	movlw	3
  4321     0281  00F0               	movwf	SSLED@xa
  4322     0282  0872               	movf	SSD@xn,w
  4323     0283  3184  2485  3180   	fcall	_SSLED
  4324                           
  4325                           ;mcc_generated_files/disp_7seg/disp_7seg.c: 430:     SSLED(xn, 4);
  4326     0286  3004               	movlw	4
  4327     0287  00F0               	movwf	SSLED@xa
  4328     0288  0872               	movf	SSD@xn,w
  4329     0289  3184  2485  3180   	fcall	_SSLED
  4330                           
  4331                           ;mcc_generated_files/disp_7seg/disp_7seg.c: 431:     SSLED(xn, 5);
  4332     028C  3005               	movlw	5
  4333     028D  00F0               	movwf	SSLED@xa
  4334     028E  0872               	movf	SSD@xn,w
  4335     028F  3184  2485  3180   	fcall	_SSLED
  4336                           
  4337                           ;mcc_generated_files/disp_7seg/disp_7seg.c: 432:     SSLED(xn, 7);
  4338     0292  3007               	movlw	7
  4339     0293  00F0               	movwf	SSLED@xa
  4340     0294  0872               	movf	SSD@xn,w
  4341     0295  3184  2485  3180   	fcall	_SSLED
  4342                           
  4343                           ;mcc_generated_files/disp_7seg/disp_7seg.c: 433:     SSLED(1, 8);
  4344     0298  3008               	movlw	8
  4345     0299  00F0               	movwf	SSLED@xa
  4346     029A  3001               	movlw	1
  4347     029B  3184  2485  3180   	fcall	_SSLED
  4348                           
  4349                           ;mcc_generated_files/disp_7seg/disp_7seg.c: 434:     SSLED(1, 8);
  4350     029E  3008               	movlw	8
  4351     029F  00F0               	movwf	SSLED@xa
  4352     02A0  3001               	movlw	1
  4353     02A1  3184  2485  3180   	fcall	_SSLED
  4354                           
  4355                           ;mcc_generated_files/disp_7seg/disp_7seg.c: 435:     SSLED(1, 8);
  4356     02A4  3008               	movlw	8
  4357     02A5  00F0               	movwf	SSLED@xa
  4358     02A6  3001               	movlw	1
  4359     02A7  3184  2485  3180   	fcall	_SSLED
  4360                           
  4361                           ;mcc_generated_files/disp_7seg/disp_7seg.c: 436:   } else if (num == 13) {
  4362     02AA  2ADC               	goto	l329
  4363     02AB                     l2507:
  4364     02AB  300D               	movlw	13
  4365     02AC  0673               	xorwf	SSD@num,w
  4366     02AD  1D03               	btfss	3,2
  4367     02AE  2AB0               	goto	u1641
  4368     02AF  2AB1               	goto	u1640
  4369     02B0                     u1641:
  4370     02B0  2ADC               	goto	l323
  4371     02B1                     u1640:
  4372     02B1                     l2509:
  4373                           
  4374                           ;mcc_generated_files/disp_7seg/disp_7seg.c: 437:     SSLED(xn, 1);
  4375     02B1  01F0               	clrf	SSLED@xa
  4376     02B2  0AF0               	incf	SSLED@xa,f
  4377     02B3  0872               	movf	SSD@xn,w
  4378     02B4  3184  2485  3180   	fcall	_SSLED
  4379                           
  4380                           ;mcc_generated_files/disp_7seg/disp_7seg.c: 438:     SSLED(xn, 2);
  4381     02B7  3002               	movlw	2
  4382     02B8  00F0               	movwf	SSLED@xa
  4383     02B9  0872               	movf	SSD@xn,w
  4384     02BA  3184  2485  3180   	fcall	_SSLED
  4385                           
  4386                           ;mcc_generated_files/disp_7seg/disp_7seg.c: 439:     SSLED(xn, 6);
  4387     02BD  3006               	movlw	6
  4388     02BE  00F0               	movwf	SSLED@xa
  4389     02BF  0872               	movf	SSD@xn,w
  4390     02C0  3184  2485  3180   	fcall	_SSLED
  4391                           
  4392                           ;mcc_generated_files/disp_7seg/disp_7seg.c: 440:     SSLED(xn, 7);
  4393     02C3  3007               	movlw	7
  4394     02C4  00F0               	movwf	SSLED@xa
  4395     02C5  0872               	movf	SSD@xn,w
  4396     02C6  3184  2485  3180   	fcall	_SSLED
  4397                           
  4398                           ;mcc_generated_files/disp_7seg/disp_7seg.c: 441:     SSLED(1, 8);
  4399     02C9  3008               	movlw	8
  4400     02CA  00F0               	movwf	SSLED@xa
  4401     02CB  3001               	movlw	1
  4402     02CC  3184  2485  3180   	fcall	_SSLED
  4403                           
  4404                           ;mcc_generated_files/disp_7seg/disp_7seg.c: 442:     SSLED(1, 8);
  4405     02CF  3008               	movlw	8
  4406     02D0  00F0               	movwf	SSLED@xa
  4407     02D1  3001               	movlw	1
  4408     02D2  3184  2485  3180   	fcall	_SSLED
  4409                           
  4410                           ;mcc_generated_files/disp_7seg/disp_7seg.c: 443:     SSLED(1, 8);
  4411     02D5  3008               	movlw	8
  4412     02D6  00F0               	movwf	SSLED@xa
  4413     02D7  3001               	movlw	1
  4414     02D8  3184  2485  3180   	fcall	_SSLED
  4415     02DB  2ADC               	goto	l329
  4416     02DC                     l323:
  4417     02DC                     l329:
  4418     02DC  0008               	return
  4419     02DD                     __end_of_SSD:
  4420                           
  4421                           	psect	text6
  4422     0485                     __ptext6:	
  4423 ;; *************** function _SSLED *****************
  4424 ;; Defined at:
  4425 ;;		line 51 in file "mcc_generated_files/disp_7seg/disp_7seg.c"
  4426 ;; Parameters:    Size  Location     Type
  4427 ;;  nu              1    wreg     unsigned char 
  4428 ;;  xa              1    0[COMMON] unsigned char 
  4429 ;; Auto vars:     Size  Location     Type
  4430 ;;  nu              1    1[COMMON] unsigned char 
  4431 ;; Return value:  Size  Location     Type
  4432 ;;                  1    wreg      void 
  4433 ;; Registers used:
  4434 ;;		wreg, status,2, status,0, pclath, cstack
  4435 ;; Tracked objects:
  4436 ;;		On entry : 0/0
  4437 ;;		On exit  : 0/0
  4438 ;;		Unchanged: 0/0
  4439 ;; Data sizes:     COMMON   BANK0   BANK1   BANK2   BANK3   BANK4   BANK5
  4440 ;;      Params:         1       0       0       0       0       0       0
  4441 ;;      Locals:         1       0       0       0       0       0       0
  4442 ;;      Temps:          0       0       0       0       0       0       0
  4443 ;;      Totals:         2       0       0       0       0       0       0
  4444 ;;Total ram usage:        2 bytes
  4445 ;; Hardware stack levels used: 1
  4446 ;; Hardware stack levels required when called: 4
  4447 ;; This function calls:
  4448 ;;		_LED_DISABLE
  4449 ;; This function is called by:
  4450 ;;		_SSD
  4451 ;; This function uses a non-reentrant model
  4452 ;;
  4453                           
  4454     0485                     _SSLED:	
  4455                           ;psect for function _SSLED
  4456                           
  4457                           
  4458                           ;incstack = 0
  4459                           ; Regs used in _SSLED: [wreg+status,2+status,0+pclath+cstack]
  4460                           ;SSLED@nu stored from wreg
  4461     0485  00F1               	movwf	SSLED@nu
  4462     0486                     l2169:
  4463                           
  4464                           ;mcc_generated_files/disp_7seg/disp_7seg.c: 52:   if (nu == 1) {
  4465     0486  0371               	decf	SSLED@nu,w
  4466     0487  1D03               	btfss	3,2
  4467     0488  2C8A               	goto	u1241
  4468     0489  2C8B               	goto	u1240
  4469     048A                     u1241:
  4470     048A  2D0F               	goto	l2257
  4471     048B                     u1240:
  4472     048B                     l2171:
  4473                           
  4474                           ;mcc_generated_files/disp_7seg/disp_7seg.c: 53:     if (xa == 1)
  4475     048B  0370               	decf	SSLED@xa,w
  4476     048C  1D03               	btfss	3,2
  4477     048D  2C8F               	goto	u1251
  4478     048E  2C90               	goto	u1250
  4479     048F                     u1251:
  4480     048F  2C9A               	goto	l2183
  4481     0490                     u1250:
  4482     0490                     l2173:
  4483                           
  4484                           ;mcc_generated_files/disp_7seg/disp_7seg.c: 54:     {;mcc_generated_files/disp_7seg/disp
      +                          _7seg.c: 59:       LED_DISABLE();
  4485     0490  318E  2639  3184   	fcall	_LED_DISABLE
  4486     0493                     l2175:
  4487     0493  0021               	movlb	1	; select bank1
  4488     0494  118E               	bcf	14,3	;volatile
  4489     0495                     l2177:
  4490     0495  138C               	bcf	12,7	;volatile
  4491     0496                     l2179:
  4492     0496  0022               	movlb	2	; select bank2
  4493     0497  118E               	bcf	14,3	;volatile
  4494     0498                     l2181:
  4495     0498  178C               	bsf	12,7	;volatile
  4496     0499  2E18               	goto	l2453
  4497     049A                     l2183:
  4498     049A  3002               	movlw	2
  4499     049B  0670               	xorwf	SSLED@xa,w
  4500     049C  1D03               	btfss	3,2
  4501     049D  2C9F               	goto	u1261
  4502     049E  2CA0               	goto	u1260
  4503     049F                     u1261:
  4504     049F  2CAA               	goto	l2195
  4505     04A0                     u1260:
  4506     04A0                     l2185:
  4507                           
  4508                           ;mcc_generated_files/disp_7seg/disp_7seg.c: 65:     {;mcc_generated_files/disp_7seg/disp
      +                          _7seg.c: 70:       LED_DISABLE();
  4509     04A0  318E  2639  3184   	fcall	_LED_DISABLE
  4510     04A3                     l2187:
  4511     04A3  0021               	movlb	1	; select bank1
  4512     04A4  118E               	bcf	14,3	;volatile
  4513     04A5                     l2189:
  4514     04A5  100E               	bcf	14,0	;volatile
  4515     04A6                     l2191:
  4516     04A6  0022               	movlb	2	; select bank2
  4517     04A7  118E               	bcf	14,3	;volatile
  4518     04A8                     l2193:
  4519     04A8  140E               	bsf	14,0	;volatile
  4520     04A9  2E18               	goto	l2453
  4521     04AA                     l2195:
  4522     04AA  3003               	movlw	3
  4523     04AB  0670               	xorwf	SSLED@xa,w
  4524     04AC  1D03               	btfss	3,2
  4525     04AD  2CAF               	goto	u1271
  4526     04AE  2CB0               	goto	u1270
  4527     04AF                     u1271:
  4528     04AF  2CBA               	goto	l2207
  4529     04B0                     u1270:
  4530     04B0                     l2197:
  4531                           
  4532                           ;mcc_generated_files/disp_7seg/disp_7seg.c: 76:     {;mcc_generated_files/disp_7seg/disp
      +                          _7seg.c: 81:       LED_DISABLE();
  4533     04B0  318E  2639  3184   	fcall	_LED_DISABLE
  4534     04B3                     l2199:
  4535     04B3  0021               	movlb	1	; select bank1
  4536     04B4  118E               	bcf	14,3	;volatile
  4537     04B5                     l2201:
  4538     04B5  110E               	bcf	14,2	;volatile
  4539     04B6                     l2203:
  4540     04B6  0022               	movlb	2	; select bank2
  4541     04B7  118E               	bcf	14,3	;volatile
  4542     04B8                     l2205:
  4543     04B8  150E               	bsf	14,2	;volatile
  4544     04B9  2E18               	goto	l2453
  4545     04BA                     l2207:
  4546     04BA  3004               	movlw	4
  4547     04BB  0670               	xorwf	SSLED@xa,w
  4548     04BC  1D03               	btfss	3,2
  4549     04BD  2CBF               	goto	u1281
  4550     04BE  2CC0               	goto	u1280
  4551     04BF                     u1281:
  4552     04BF  2CCA               	goto	l2219
  4553     04C0                     u1280:
  4554     04C0                     l2209:
  4555                           
  4556                           ;mcc_generated_files/disp_7seg/disp_7seg.c: 87:     {;mcc_generated_files/disp_7seg/disp
      +                          _7seg.c: 92:       LED_DISABLE();
  4557     04C0  318E  2639  3184   	fcall	_LED_DISABLE
  4558     04C3                     l2211:
  4559     04C3  0021               	movlb	1	; select bank1
  4560     04C4  108E               	bcf	14,1	;volatile
  4561     04C5                     l2213:
  4562     04C5  118E               	bcf	14,3	;volatile
  4563     04C6                     l2215:
  4564     04C6  0022               	movlb	2	; select bank2
  4565     04C7  108E               	bcf	14,1	;volatile
  4566     04C8                     l2217:
  4567     04C8  158E               	bsf	14,3	;volatile
  4568     04C9  2E18               	goto	l2453
  4569     04CA                     l2219:
  4570     04CA  3005               	movlw	5
  4571     04CB  0670               	xorwf	SSLED@xa,w
  4572     04CC  1D03               	btfss	3,2
  4573     04CD  2CCF               	goto	u1291
  4574     04CE  2CD0               	goto	u1290
  4575     04CF                     u1291:
  4576     04CF  2CDA               	goto	l2231
  4577     04D0                     u1290:
  4578     04D0                     l2221:
  4579                           
  4580                           ;mcc_generated_files/disp_7seg/disp_7seg.c: 98:     {;mcc_generated_files/disp_7seg/disp
      +                          _7seg.c: 103:       LED_DISABLE();
  4581     04D0  318E  2639  3184   	fcall	_LED_DISABLE
  4582     04D3                     l2223:
  4583     04D3  0021               	movlb	1	; select bank1
  4584     04D4  118E               	bcf	14,3	;volatile
  4585     04D5                     l2225:
  4586     04D5  108E               	bcf	14,1	;volatile
  4587     04D6                     l2227:
  4588     04D6  0022               	movlb	2	; select bank2
  4589     04D7  118E               	bcf	14,3	;volatile
  4590     04D8                     l2229:
  4591     04D8  148E               	bsf	14,1	;volatile
  4592     04D9  2E18               	goto	l2453
  4593     04DA                     l2231:
  4594     04DA  3006               	movlw	6
  4595     04DB  0670               	xorwf	SSLED@xa,w
  4596     04DC  1D03               	btfss	3,2
  4597     04DD  2CDF               	goto	u1301
  4598     04DE  2CE0               	goto	u1300
  4599     04DF                     u1301:
  4600     04DF  2CEA               	goto	l2243
  4601     04E0                     u1300:
  4602     04E0                     l2233:
  4603                           
  4604                           ;mcc_generated_files/disp_7seg/disp_7seg.c: 109:     {;mcc_generated_files/disp_7seg/dis
      +                          p_7seg.c: 114:       LED_DISABLE();
  4605     04E0  318E  2639  3184   	fcall	_LED_DISABLE
  4606     04E3                     l2235:
  4607     04E3  0021               	movlb	1	; select bank1
  4608     04E4  110E               	bcf	14,2	;volatile
  4609     04E5                     l2237:
  4610     04E5  118E               	bcf	14,3	;volatile
  4611     04E6                     l2239:
  4612     04E6  0022               	movlb	2	; select bank2
  4613     04E7  110E               	bcf	14,2	;volatile
  4614     04E8                     l2241:
  4615     04E8  158E               	bsf	14,3	;volatile
  4616     04E9  2E18               	goto	l2453
  4617     04EA                     l2243:
  4618     04EA  3007               	movlw	7
  4619     04EB  0670               	xorwf	SSLED@xa,w
  4620     04EC  1D03               	btfss	3,2
  4621     04ED  2CEF               	goto	u1311
  4622     04EE  2CF0               	goto	u1310
  4623     04EF                     u1311:
  4624     04EF  2CFA               	goto	l2255
  4625     04F0                     u1310:
  4626     04F0                     l2245:
  4627                           
  4628                           ;mcc_generated_files/disp_7seg/disp_7seg.c: 120:     {;mcc_generated_files/disp_7seg/dis
      +                          p_7seg.c: 125:       LED_DISABLE();
  4629     04F0  318E  2639  3184   	fcall	_LED_DISABLE
  4630     04F3                     l2247:
  4631     04F3  0021               	movlb	1	; select bank1
  4632     04F4  110E               	bcf	14,2	;volatile
  4633     04F5                     l2249:
  4634     04F5  138C               	bcf	12,7	;volatile
  4635     04F6                     l2251:
  4636     04F6  0022               	movlb	2	; select bank2
  4637     04F7  110E               	bcf	14,2	;volatile
  4638     04F8                     l2253:
  4639     04F8  178C               	bsf	12,7	;volatile
  4640     04F9  2E18               	goto	l2453
  4641     04FA                     l2255:
  4642     04FA  3008               	movlw	8
  4643     04FB  0670               	xorwf	SSLED@xa,w
  4644     04FC  1D03               	btfss	3,2
  4645     04FD  2CFF               	goto	u1321
  4646     04FE  2D00               	goto	u1320
  4647     04FF                     u1321:
  4648     04FF  2E18               	goto	l2453
  4649     0500                     u1320:
  4650     0500                     l113:	
  4651                           ;mcc_generated_files/disp_7seg/disp_7seg.c: 131:     {;mcc_generated_files/disp_7seg/dis
      +                          p_7seg.c: 134:       do { TRISAbits.TRISA7 = 0; } while(0);
  4652                           
  4653     0500  0021               	movlb	1	; select bank1
  4654     0501  138C               	bcf	12,7	;volatile
  4655     0502                     l115:	
  4656                           ;mcc_generated_files/disp_7seg/disp_7seg.c: 135:       do { TRISAbits.TRISA6 = 0; } whil
      +                          e(0);
  4657                           
  4658     0502  130C               	bcf	12,6	;volatile
  4659     0503                     l117:	
  4660                           ;mcc_generated_files/disp_7seg/disp_7seg.c: 136:       do { TRISCbits.TRISC0 = 0; } whil
      +                          e(0);
  4661                           
  4662     0503  100E               	bcf	14,0	;volatile
  4663     0504                     l119:	
  4664                           ;mcc_generated_files/disp_7seg/disp_7seg.c: 137:       do { TRISCbits.TRISC1 = 0; } whil
      +                          e(0);
  4665                           
  4666     0504  108E               	bcf	14,1	;volatile
  4667     0505                     l121:	
  4668                           ;mcc_generated_files/disp_7seg/disp_7seg.c: 138:       do { TRISCbits.TRISC2 = 0; } whil
      +                          e(0);
  4669                           
  4670     0505  110E               	bcf	14,2	;volatile
  4671     0506                     l123:	
  4672                           ;mcc_generated_files/disp_7seg/disp_7seg.c: 139:       do { TRISCbits.TRISC3 = 0; } whil
      +                          e(0);
  4673                           
  4674     0506  118E               	bcf	14,3	;volatile
  4675     0507                     l125:	
  4676                           ;mcc_generated_files/disp_7seg/disp_7seg.c: 140:       do { LATAbits.LATA7 = 0; } while(
      +                          0);
  4677                           
  4678     0507  0022               	movlb	2	; select bank2
  4679     0508  138C               	bcf	12,7	;volatile
  4680     0509                     l127:	
  4681                           ;mcc_generated_files/disp_7seg/disp_7seg.c: 141:       do { LATAbits.LATA6 = 0; } while(
      +                          0);
  4682                           
  4683     0509  130C               	bcf	12,6	;volatile
  4684     050A                     l129:	
  4685                           ;mcc_generated_files/disp_7seg/disp_7seg.c: 142:       do { LATCbits.LATC0 = 0; } while(
      +                          0);
  4686                           
  4687     050A  100E               	bcf	14,0	;volatile
  4688     050B                     l131:	
  4689                           ;mcc_generated_files/disp_7seg/disp_7seg.c: 143:       do { LATCbits.LATC1 = 0; } while(
      +                          0);
  4690                           
  4691     050B  108E               	bcf	14,1	;volatile
  4692     050C                     l133:	
  4693                           ;mcc_generated_files/disp_7seg/disp_7seg.c: 144:       do { LATCbits.LATC2 = 0; } while(
      +                          0);
  4694                           
  4695     050C  110E               	bcf	14,2	;volatile
  4696     050D                     l135:	
  4697                           ;mcc_generated_files/disp_7seg/disp_7seg.c: 145:       do { LATCbits.LATC3 = 0; } while(
      +                          0);
  4698                           
  4699     050D  118E               	bcf	14,3	;volatile
  4700     050E  2E18               	goto	l2453
  4701     050F                     l2257:
  4702     050F  3002               	movlw	2
  4703     0510  0671               	xorwf	SSLED@nu,w
  4704     0511  1D03               	btfss	3,2
  4705     0512  2D14               	goto	u1331
  4706     0513  2D15               	goto	u1330
  4707     0514                     u1331:
  4708     0514  2D94               	goto	l2355
  4709     0515                     u1330:
  4710     0515                     l2259:
  4711                           
  4712                           ;mcc_generated_files/disp_7seg/disp_7seg.c: 148:     if (xa == 1)
  4713     0515  0370               	decf	SSLED@xa,w
  4714     0516  1D03               	btfss	3,2
  4715     0517  2D19               	goto	u1341
  4716     0518  2D1A               	goto	u1340
  4717     0519                     u1341:
  4718     0519  2D24               	goto	l2271
  4719     051A                     u1340:
  4720     051A                     l2261:
  4721                           
  4722                           ;mcc_generated_files/disp_7seg/disp_7seg.c: 149:     {;mcc_generated_files/disp_7seg/dis
      +                          p_7seg.c: 154:       LED_DISABLE();
  4723     051A  318E  2639  3184   	fcall	_LED_DISABLE
  4724     051D                     l2263:
  4725     051D  0021               	movlb	1	; select bank1
  4726     051E  108E               	bcf	14,1	;volatile
  4727     051F                     l2265:
  4728     051F  110E               	bcf	14,2	;volatile
  4729     0520                     l2267:
  4730     0520  0022               	movlb	2	; select bank2
  4731     0521  108E               	bcf	14,1	;volatile
  4732     0522                     l2269:
  4733     0522  150E               	bsf	14,2	;volatile
  4734     0523  2E18               	goto	l2453
  4735     0524                     l2271:
  4736     0524  3002               	movlw	2
  4737     0525  0670               	xorwf	SSLED@xa,w
  4738     0526  1D03               	btfss	3,2
  4739     0527  2D29               	goto	u1351
  4740     0528  2D2A               	goto	u1350
  4741     0529                     u1351:
  4742     0529  2D34               	goto	l2283
  4743     052A                     u1350:
  4744     052A                     l2273:
  4745                           
  4746                           ;mcc_generated_files/disp_7seg/disp_7seg.c: 160:     {;mcc_generated_files/disp_7seg/dis
      +                          p_7seg.c: 165:       LED_DISABLE();
  4747     052A  318E  2639  3184   	fcall	_LED_DISABLE
  4748     052D                     l2275:
  4749     052D  0021               	movlb	1	; select bank1
  4750     052E  110E               	bcf	14,2	;volatile
  4751     052F                     l2277:
  4752     052F  100E               	bcf	14,0	;volatile
  4753     0530                     l2279:
  4754     0530  0022               	movlb	2	; select bank2
  4755     0531  110E               	bcf	14,2	;volatile
  4756     0532                     l2281:
  4757     0532  140E               	bsf	14,0	;volatile
  4758     0533  2E18               	goto	l2453
  4759     0534                     l2283:
  4760     0534  3003               	movlw	3
  4761     0535  0670               	xorwf	SSLED@xa,w
  4762     0536  1D03               	btfss	3,2
  4763     0537  2D39               	goto	u1361
  4764     0538  2D3A               	goto	u1360
  4765     0539                     u1361:
  4766     0539  2D44               	goto	l2295
  4767     053A                     u1360:
  4768     053A                     l2285:
  4769                           
  4770                           ;mcc_generated_files/disp_7seg/disp_7seg.c: 171:     {;mcc_generated_files/disp_7seg/dis
      +                          p_7seg.c: 176:       LED_DISABLE();
  4771     053A  318E  2639  3184   	fcall	_LED_DISABLE
  4772     053D                     l2287:
  4773     053D  0021               	movlb	1	; select bank1
  4774     053E  110E               	bcf	14,2	;volatile
  4775     053F                     l2289:
  4776     053F  108E               	bcf	14,1	;volatile
  4777     0540                     l2291:
  4778     0540  0022               	movlb	2	; select bank2
  4779     0541  110E               	bcf	14,2	;volatile
  4780     0542                     l2293:
  4781     0542  148E               	bsf	14,1	;volatile
  4782     0543  2E18               	goto	l2453
  4783     0544                     l2295:
  4784     0544  3004               	movlw	4
  4785     0545  0670               	xorwf	SSLED@xa,w
  4786     0546  1D03               	btfss	3,2
  4787     0547  2D49               	goto	u1371
  4788     0548  2D4A               	goto	u1370
  4789     0549                     u1371:
  4790     0549  2D54               	goto	l2307
  4791     054A                     u1370:
  4792     054A                     l2297:
  4793                           
  4794                           ;mcc_generated_files/disp_7seg/disp_7seg.c: 182:     {;mcc_generated_files/disp_7seg/dis
      +                          p_7seg.c: 187:       LED_DISABLE();
  4795     054A  318E  2639  3184   	fcall	_LED_DISABLE
  4796     054D                     l2299:
  4797     054D  0021               	movlb	1	; select bank1
  4798     054E  108E               	bcf	14,1	;volatile
  4799     054F                     l2301:
  4800     054F  100E               	bcf	14,0	;volatile
  4801     0550                     l2303:
  4802     0550  0022               	movlb	2	; select bank2
  4803     0551  108E               	bcf	14,1	;volatile
  4804     0552                     l2305:
  4805     0552  140E               	bsf	14,0	;volatile
  4806     0553  2E18               	goto	l2453
  4807     0554                     l2307:
  4808     0554  3005               	movlw	5
  4809     0555  0670               	xorwf	SSLED@xa,w
  4810     0556  1D03               	btfss	3,2
  4811     0557  2D59               	goto	u1381
  4812     0558  2D5A               	goto	u1380
  4813     0559                     u1381:
  4814     0559  2D64               	goto	l2319
  4815     055A                     u1380:
  4816     055A                     l2309:
  4817                           
  4818                           ;mcc_generated_files/disp_7seg/disp_7seg.c: 193:     {;mcc_generated_files/disp_7seg/dis
      +                          p_7seg.c: 198:       LED_DISABLE();
  4819     055A  318E  2639  3184   	fcall	_LED_DISABLE
  4820     055D                     l2311:
  4821     055D  0021               	movlb	1	; select bank1
  4822     055E  100E               	bcf	14,0	;volatile
  4823     055F                     l2313:
  4824     055F  118E               	bcf	14,3	;volatile
  4825     0560                     l2315:
  4826     0560  0022               	movlb	2	; select bank2
  4827     0561  100E               	bcf	14,0	;volatile
  4828     0562                     l2317:
  4829     0562  158E               	bsf	14,3	;volatile
  4830     0563  2E18               	goto	l2453
  4831     0564                     l2319:
  4832     0564  3006               	movlw	6
  4833     0565  0670               	xorwf	SSLED@xa,w
  4834     0566  1D03               	btfss	3,2
  4835     0567  2D69               	goto	u1391
  4836     0568  2D6A               	goto	u1390
  4837     0569                     u1391:
  4838     0569  2D74               	goto	l2331
  4839     056A                     u1390:
  4840     056A                     l2321:
  4841                           
  4842                           ;mcc_generated_files/disp_7seg/disp_7seg.c: 204:     {;mcc_generated_files/disp_7seg/dis
      +                          p_7seg.c: 209:       LED_DISABLE();
  4843     056A  318E  2639  3184   	fcall	_LED_DISABLE
  4844     056D                     l2323:
  4845     056D  0021               	movlb	1	; select bank1
  4846     056E  100E               	bcf	14,0	;volatile
  4847     056F                     l2325:
  4848     056F  108E               	bcf	14,1	;volatile
  4849     0570                     l2327:
  4850     0570  0022               	movlb	2	; select bank2
  4851     0571  100E               	bcf	14,0	;volatile
  4852     0572                     l2329:
  4853     0572  148E               	bsf	14,1	;volatile
  4854     0573  2E18               	goto	l2453
  4855     0574                     l2331:
  4856     0574  3007               	movlw	7
  4857     0575  0670               	xorwf	SSLED@xa,w
  4858     0576  1D03               	btfss	3,2
  4859     0577  2D79               	goto	u1401
  4860     0578  2D7A               	goto	u1400
  4861     0579                     u1401:
  4862     0579  2D84               	goto	l2343
  4863     057A                     u1400:
  4864     057A                     l2333:
  4865                           
  4866                           ;mcc_generated_files/disp_7seg/disp_7seg.c: 215:     {;mcc_generated_files/disp_7seg/dis
      +                          p_7seg.c: 220:       LED_DISABLE();
  4867     057A  318E  2639  3184   	fcall	_LED_DISABLE
  4868     057D                     l2335:
  4869     057D  0021               	movlb	1	; select bank1
  4870     057E  100E               	bcf	14,0	;volatile
  4871     057F                     l2337:
  4872     057F  110E               	bcf	14,2	;volatile
  4873     0580                     l2339:
  4874     0580  0022               	movlb	2	; select bank2
  4875     0581  100E               	bcf	14,0	;volatile
  4876     0582                     l2341:
  4877     0582  150E               	bsf	14,2	;volatile
  4878     0583  2E18               	goto	l2453
  4879     0584                     l2343:
  4880     0584  3008               	movlw	8
  4881     0585  0670               	xorwf	SSLED@xa,w
  4882     0586  1D03               	btfss	3,2
  4883     0587  2D89               	goto	u1411
  4884     0588  2D8A               	goto	u1410
  4885     0589                     u1411:
  4886     0589  2E18               	goto	l2453
  4887     058A                     u1410:
  4888     058A                     l2345:
  4889                           
  4890                           ;mcc_generated_files/disp_7seg/disp_7seg.c: 226:     {;mcc_generated_files/disp_7seg/dis
      +                          p_7seg.c: 231:       LED_DISABLE();
  4891     058A  318E  2639  3184   	fcall	_LED_DISABLE
  4892     058D                     l2347:
  4893     058D  0021               	movlb	1	; select bank1
  4894     058E  138C               	bcf	12,7	;volatile
  4895     058F                     l2349:
  4896     058F  100E               	bcf	14,0	;volatile
  4897     0590                     l2351:
  4898     0590  0022               	movlb	2	; select bank2
  4899     0591  138C               	bcf	12,7	;volatile
  4900     0592                     l2353:
  4901     0592  140E               	bsf	14,0	;volatile
  4902     0593  2E18               	goto	l2453
  4903     0594                     l2355:
  4904     0594  3003               	movlw	3
  4905     0595  0671               	xorwf	SSLED@nu,w
  4906     0596  1D03               	btfss	3,2
  4907     0597  2D99               	goto	u1421
  4908     0598  2D9A               	goto	u1420
  4909     0599                     u1421:
  4910     0599  2E18               	goto	l2453
  4911     059A                     u1420:
  4912     059A                     l2357:
  4913                           
  4914                           ;mcc_generated_files/disp_7seg/disp_7seg.c: 238:     if (xa == 1)
  4915     059A  0370               	decf	SSLED@xa,w
  4916     059B  1D03               	btfss	3,2
  4917     059C  2D9E               	goto	u1431
  4918     059D  2D9F               	goto	u1430
  4919     059E                     u1431:
  4920     059E  2DA9               	goto	l2369
  4921     059F                     u1430:
  4922     059F                     l2359:
  4923                           
  4924                           ;mcc_generated_files/disp_7seg/disp_7seg.c: 239:     {;mcc_generated_files/disp_7seg/dis
      +                          p_7seg.c: 244:       LED_DISABLE();
  4925     059F  318E  2639  3184   	fcall	_LED_DISABLE
  4926     05A2                     l2361:
  4927     05A2  0021               	movlb	1	; select bank1
  4928     05A3  100E               	bcf	14,0	;volatile
  4929     05A4                     l2363:
  4930     05A4  130C               	bcf	12,6	;volatile
  4931     05A5                     l2365:
  4932     05A5  0022               	movlb	2	; select bank2
  4933     05A6  100E               	bcf	14,0	;volatile
  4934     05A7                     l2367:
  4935     05A7  170C               	bsf	12,6	;volatile
  4936     05A8  2E18               	goto	l2453
  4937     05A9                     l2369:
  4938     05A9  3002               	movlw	2
  4939     05AA  0670               	xorwf	SSLED@xa,w
  4940     05AB  1D03               	btfss	3,2
  4941     05AC  2DAE               	goto	u1441
  4942     05AD  2DAF               	goto	u1440
  4943     05AE                     u1441:
  4944     05AE  2DB9               	goto	l2381
  4945     05AF                     u1440:
  4946     05AF                     l2371:
  4947                           
  4948                           ;mcc_generated_files/disp_7seg/disp_7seg.c: 250:     {;mcc_generated_files/disp_7seg/dis
      +                          p_7seg.c: 255:       LED_DISABLE();
  4949     05AF  318E  2639  3184   	fcall	_LED_DISABLE
  4950     05B2                     l2373:
  4951     05B2  0021               	movlb	1	; select bank1
  4952     05B3  108E               	bcf	14,1	;volatile
  4953     05B4                     l2375:
  4954     05B4  130C               	bcf	12,6	;volatile
  4955     05B5                     l2377:
  4956     05B5  0022               	movlb	2	; select bank2
  4957     05B6  108E               	bcf	14,1	;volatile
  4958     05B7                     l2379:
  4959     05B7  170C               	bsf	12,6	;volatile
  4960     05B8  2E18               	goto	l2453
  4961     05B9                     l2381:
  4962     05B9  3003               	movlw	3
  4963     05BA  0670               	xorwf	SSLED@xa,w
  4964     05BB  1D03               	btfss	3,2
  4965     05BC  2DBE               	goto	u1451
  4966     05BD  2DBF               	goto	u1450
  4967     05BE                     u1451:
  4968     05BE  2DC9               	goto	l2393
  4969     05BF                     u1450:
  4970     05BF                     l2383:
  4971                           
  4972                           ;mcc_generated_files/disp_7seg/disp_7seg.c: 261:     {;mcc_generated_files/disp_7seg/dis
      +                          p_7seg.c: 266:       LED_DISABLE();
  4973     05BF  318E  2639  3184   	fcall	_LED_DISABLE
  4974     05C2                     l2385:
  4975     05C2  0021               	movlb	1	; select bank1
  4976     05C3  130C               	bcf	12,6	;volatile
  4977     05C4                     l2387:
  4978     05C4  110E               	bcf	14,2	;volatile
  4979     05C5                     l2389:
  4980     05C5  0022               	movlb	2	; select bank2
  4981     05C6  130C               	bcf	12,6	;volatile
  4982     05C7                     l2391:
  4983     05C7  150E               	bsf	14,2	;volatile
  4984     05C8  2E18               	goto	l2453
  4985     05C9                     l2393:
  4986     05C9  3004               	movlw	4
  4987     05CA  0670               	xorwf	SSLED@xa,w
  4988     05CB  1D03               	btfss	3,2
  4989     05CC  2DCE               	goto	u1461
  4990     05CD  2DCF               	goto	u1460
  4991     05CE                     u1461:
  4992     05CE  2DD9               	goto	l2405
  4993     05CF                     u1460:
  4994     05CF                     l2395:
  4995                           
  4996                           ;mcc_generated_files/disp_7seg/disp_7seg.c: 272:     {;mcc_generated_files/disp_7seg/dis
      +                          p_7seg.c: 277:       LED_DISABLE();
  4997     05CF  318E  2639  3184   	fcall	_LED_DISABLE
  4998     05D2                     l2397:
  4999     05D2  0021               	movlb	1	; select bank1
  5000     05D3  118E               	bcf	14,3	;volatile
  5001     05D4                     l2399:
  5002     05D4  130C               	bcf	12,6	;volatile
  5003     05D5                     l2401:
  5004     05D5  0022               	movlb	2	; select bank2
  5005     05D6  118E               	bcf	14,3	;volatile
  5006     05D7                     l2403:
  5007     05D7  170C               	bsf	12,6	;volatile
  5008     05D8  2E18               	goto	l2453
  5009     05D9                     l2405:
  5010     05D9  3005               	movlw	5
  5011     05DA  0670               	xorwf	SSLED@xa,w
  5012     05DB  1D03               	btfss	3,2
  5013     05DC  2DDE               	goto	u1471
  5014     05DD  2DDF               	goto	u1470
  5015     05DE                     u1471:
  5016     05DE  2DE9               	goto	l2417
  5017     05DF                     u1470:
  5018     05DF                     l2407:
  5019                           
  5020                           ;mcc_generated_files/disp_7seg/disp_7seg.c: 283:     {;mcc_generated_files/disp_7seg/dis
      +                          p_7seg.c: 288:       LED_DISABLE();
  5021     05DF  318E  2639  3184   	fcall	_LED_DISABLE
  5022     05E2                     l2409:
  5023     05E2  0021               	movlb	1	; select bank1
  5024     05E3  110E               	bcf	14,2	;volatile
  5025     05E4                     l2411:
  5026     05E4  130C               	bcf	12,6	;volatile
  5027     05E5                     l2413:
  5028     05E5  0022               	movlb	2	; select bank2
  5029     05E6  110E               	bcf	14,2	;volatile
  5030     05E7                     l2415:
  5031     05E7  170C               	bsf	12,6	;volatile
  5032     05E8  2E18               	goto	l2453
  5033     05E9                     l2417:
  5034     05E9  3006               	movlw	6
  5035     05EA  0670               	xorwf	SSLED@xa,w
  5036     05EB  1D03               	btfss	3,2
  5037     05EC  2DEE               	goto	u1481
  5038     05ED  2DEF               	goto	u1480
  5039     05EE                     u1481:
  5040     05EE  2DF9               	goto	l2429
  5041     05EF                     u1480:
  5042     05EF                     l2419:
  5043                           
  5044                           ;mcc_generated_files/disp_7seg/disp_7seg.c: 294:     {;mcc_generated_files/disp_7seg/dis
      +                          p_7seg.c: 299:       LED_DISABLE();
  5045     05EF  318E  2639  3184   	fcall	_LED_DISABLE
  5046     05F2                     l2421:
  5047     05F2  0021               	movlb	1	; select bank1
  5048     05F3  130C               	bcf	12,6	;volatile
  5049     05F4                     l2423:
  5050     05F4  100E               	bcf	14,0	;volatile
  5051     05F5                     l2425:
  5052     05F5  0022               	movlb	2	; select bank2
  5053     05F6  130C               	bcf	12,6	;volatile
  5054     05F7                     l2427:
  5055     05F7  140E               	bsf	14,0	;volatile
  5056     05F8  2E18               	goto	l2453
  5057     05F9                     l2429:
  5058     05F9  3007               	movlw	7
  5059     05FA  0670               	xorwf	SSLED@xa,w
  5060     05FB  1D03               	btfss	3,2
  5061     05FC  2DFE               	goto	u1491
  5062     05FD  2DFF               	goto	u1490
  5063     05FE                     u1491:
  5064     05FE  2E09               	goto	l2441
  5065     05FF                     u1490:
  5066     05FF                     l2431:
  5067                           
  5068                           ;mcc_generated_files/disp_7seg/disp_7seg.c: 305:     {;mcc_generated_files/disp_7seg/dis
      +                          p_7seg.c: 310:       LED_DISABLE();
  5069     05FF  318E  2639  3184   	fcall	_LED_DISABLE
  5070     0602                     l2433:
  5071     0602  0021               	movlb	1	; select bank1
  5072     0603  130C               	bcf	12,6	;volatile
  5073     0604                     l2435:
  5074     0604  108E               	bcf	14,1	;volatile
  5075     0605                     l2437:
  5076     0605  0022               	movlb	2	; select bank2
  5077     0606  130C               	bcf	12,6	;volatile
  5078     0607                     l2439:
  5079     0607  148E               	bsf	14,1	;volatile
  5080     0608  2E18               	goto	l2453
  5081     0609                     l2441:
  5082     0609  3008               	movlw	8
  5083     060A  0670               	xorwf	SSLED@xa,w
  5084     060B  1D03               	btfss	3,2
  5085     060C  2E0E               	goto	u1501
  5086     060D  2E0F               	goto	u1500
  5087     060E                     u1501:
  5088     060E  2E18               	goto	l2453
  5089     060F                     u1500:
  5090     060F                     l2443:
  5091                           
  5092                           ;mcc_generated_files/disp_7seg/disp_7seg.c: 316:     {;mcc_generated_files/disp_7seg/dis
      +                          p_7seg.c: 321:       LED_DISABLE();
  5093     060F  318E  2639  3184   	fcall	_LED_DISABLE
  5094     0612                     l2445:
  5095     0612  0021               	movlb	1	; select bank1
  5096     0613  138C               	bcf	12,7	;volatile
  5097     0614                     l2447:
  5098     0614  130C               	bcf	12,6	;volatile
  5099     0615                     l2449:
  5100     0615  0022               	movlb	2	; select bank2
  5101     0616  138C               	bcf	12,7	;volatile
  5102     0617                     l2451:
  5103     0617  170C               	bsf	12,6	;volatile
  5104     0618                     l2453:
  5105                           
  5106                           ;mcc_generated_files/disp_7seg/disp_7seg.c: 328:   _delay((unsigned long)((30)*(16000000
      +                          /4000000.0)));
  5107     0618  3028               	movlw	40
  5108     0619                     u2477:
  5109     0619  0B89               	decfsz	9,f
  5110     061A  2E19               	goto	u2477
  5111     061B                     l299:
  5112     061B  0008               	return
  5113     061C                     __end_of_SSLED:
  5114                           
  5115                           	psect	text7
  5116     0E39                     __ptext7:	
  5117 ;; *************** function _LED_DISABLE *****************
  5118 ;; Defined at:
  5119 ;;		line 42 in file "mcc_generated_files/disp_7seg/disp_7seg.c"
  5120 ;; Parameters:    Size  Location     Type
  5121 ;;		None
  5122 ;; Auto vars:     Size  Location     Type
  5123 ;;		None
  5124 ;; Return value:  Size  Location     Type
  5125 ;;                  1    wreg      void 
  5126 ;; Registers used:
  5127 ;;		None
  5128 ;; Tracked objects:
  5129 ;;		On entry : 0/0
  5130 ;;		On exit  : 0/0
  5131 ;;		Unchanged: 0/0
  5132 ;; Data sizes:     COMMON   BANK0   BANK1   BANK2   BANK3   BANK4   BANK5
  5133 ;;      Params:         0       0       0       0       0       0       0
  5134 ;;      Locals:         0       0       0       0       0       0       0
  5135 ;;      Temps:          0       0       0       0       0       0       0
  5136 ;;      Totals:         0       0       0       0       0       0       0
  5137 ;;Total ram usage:        0 bytes
  5138 ;; Hardware stack levels used: 1
  5139 ;; Hardware stack levels required when called: 3
  5140 ;; This function calls:
  5141 ;;		Nothing
  5142 ;; This function is called by:
  5143 ;;		_SSLED
  5144 ;; This function uses a non-reentrant model
  5145 ;;
  5146                           
  5147     0E39                     _LED_DISABLE:	
  5148                           ;psect for function _LED_DISABLE
  5149                           
  5150     0E39                     l26:	
  5151                           ;incstack = 0
  5152                           ; Regs used in _LED_DISABLE: []
  5153                           ;mcc_generated_files/disp_7seg/disp_7seg.c: 43:   do { TRISAbits.TRISA7 = 1; } while(0);
  5154                           
  5155     0E39  0021               	movlb	1	; select bank1
  5156     0E3A  178C               	bsf	12,7	;volatile
  5157     0E3B                     l28:	
  5158                           ;mcc_generated_files/disp_7seg/disp_7seg.c: 44:   do { TRISAbits.TRISA6 = 1; } while(0);
  5159                           
  5160     0E3B  170C               	bsf	12,6	;volatile
  5161     0E3C                     l30:	
  5162                           ;mcc_generated_files/disp_7seg/disp_7seg.c: 45:   do { TRISCbits.TRISC0 = 1; } while(0);
  5163                           
  5164     0E3C  140E               	bsf	14,0	;volatile
  5165     0E3D                     l32:	
  5166                           ;mcc_generated_files/disp_7seg/disp_7seg.c: 46:   do { TRISCbits.TRISC1 = 1; } while(0);
  5167                           
  5168     0E3D  148E               	bsf	14,1	;volatile
  5169     0E3E                     l34:	
  5170                           ;mcc_generated_files/disp_7seg/disp_7seg.c: 47:   do { TRISCbits.TRISC2 = 1; } while(0);
  5171                           
  5172     0E3E  150E               	bsf	14,2	;volatile
  5173     0E3F                     l36:	
  5174                           ;mcc_generated_files/disp_7seg/disp_7seg.c: 48:   do { TRISCbits.TRISC3 = 1; } while(0);
  5175                           
  5176     0E3F  158E               	bsf	14,3	;volatile
  5177     0E40                     l38:
  5178     0E40  0008               	return
  5179     0E41                     __end_of_LED_DISABLE:
  5180                           
  5181                           	psect	text8
  5182     0F1E                     __ptext8:	
  5183 ;; *************** function ___lwmod *****************
  5184 ;; Defined at:
  5185 ;;		line 5 in file "C:\Program Files\Microchip\xc8\v3.00\pic\sources\c99\common\lwmod.c"
  5186 ;; Parameters:    Size  Location     Type
  5187 ;;  divisor         2    0[COMMON] unsigned int 
  5188 ;;  dividend        2    2[COMMON] unsigned int 
  5189 ;; Auto vars:     Size  Location     Type
  5190 ;;  counter         1    4[COMMON] unsigned char 
  5191 ;; Return value:  Size  Location     Type
  5192 ;;                  2    0[COMMON] unsigned int 
  5193 ;; Registers used:
  5194 ;;		wreg, status,2, status,0
  5195 ;; Tracked objects:
  5196 ;;		On entry : 0/0
  5197 ;;		On exit  : 0/0
  5198 ;;		Unchanged: 0/0
  5199 ;; Data sizes:     COMMON   BANK0   BANK1   BANK2   BANK3   BANK4   BANK5
  5200 ;;      Params:         4       0       0       0       0       0       0
  5201 ;;      Locals:         1       0       0       0       0       0       0
  5202 ;;      Temps:          0       0       0       0       0       0       0
  5203 ;;      Totals:         5       0       0       0       0       0       0
  5204 ;;Total ram usage:        5 bytes
  5205 ;; Hardware stack levels used: 1
  5206 ;; Hardware stack levels required when called: 3
  5207 ;; This function calls:
  5208 ;;		Nothing
  5209 ;; This function is called by:
  5210 ;;		_disp_sub
  5211 ;; This function uses a non-reentrant model
  5212 ;;
  5213                           
  5214     0F1E                     ___lwmod:	
  5215                           ;psect for function ___lwmod
  5216                           
  5217     0F1E                     l2701:	
  5218                           ;incstack = 0
  5219                           ; Regs used in ___lwmod: [wreg+status,2+status,0]
  5220                           
  5221     0F1E  0870               	movf	___lwmod@divisor,w
  5222     0F1F  0471               	iorwf	___lwmod@divisor+1,w
  5223     0F20  1903               	btfsc	3,2
  5224     0F21  2F23               	goto	u1931
  5225     0F22  2F24               	goto	u1930
  5226     0F23                     u1931:
  5227     0F23  2F4B               	goto	l2719
  5228     0F24                     u1930:
  5229     0F24                     l2703:
  5230     0F24  3001               	movlw	1
  5231     0F25  00F4               	movwf	___lwmod@counter
  5232     0F26  2F2E               	goto	l2709
  5233     0F27                     l2705:
  5234     0F27  3001               	movlw	1
  5235     0F28                     u1945:
  5236     0F28  35F0               	lslf	___lwmod@divisor,f
  5237     0F29  0DF1               	rlf	___lwmod@divisor+1,f
  5238     0F2A  0B89               	decfsz	9,f
  5239     0F2B  2F28               	goto	u1945
  5240     0F2C                     l2707:
  5241     0F2C  3001               	movlw	1
  5242     0F2D  07F4               	addwf	___lwmod@counter,f
  5243     0F2E                     l2709:
  5244     0F2E  1FF1               	btfss	___lwmod@divisor+1,7
  5245     0F2F  2F31               	goto	u1951
  5246     0F30  2F32               	goto	u1950
  5247     0F31                     u1951:
  5248     0F31  2F27               	goto	l2705
  5249     0F32                     u1950:
  5250     0F32                     l2711:
  5251     0F32  0871               	movf	___lwmod@divisor+1,w
  5252     0F33  0273               	subwf	___lwmod@dividend+1,w
  5253     0F34  1D03               	skipz
  5254     0F35  2F38               	goto	u1965
  5255     0F36  0870               	movf	___lwmod@divisor,w
  5256     0F37  0272               	subwf	___lwmod@dividend,w
  5257     0F38                     u1965:
  5258     0F38  1C03               	skipc
  5259     0F39  2F3B               	goto	u1961
  5260     0F3A  2F3C               	goto	u1960
  5261     0F3B                     u1961:
  5262     0F3B  2F40               	goto	l2715
  5263     0F3C                     u1960:
  5264     0F3C                     l2713:
  5265     0F3C  0870               	movf	___lwmod@divisor,w
  5266     0F3D  02F2               	subwf	___lwmod@dividend,f
  5267     0F3E  0871               	movf	___lwmod@divisor+1,w
  5268     0F3F  3BF3               	subwfb	___lwmod@dividend+1,f
  5269     0F40                     l2715:
  5270     0F40  3001               	movlw	1
  5271     0F41                     u1975:
  5272     0F41  36F1               	lsrf	___lwmod@divisor+1,f
  5273     0F42  0CF0               	rrf	___lwmod@divisor,f
  5274     0F43  0B89               	decfsz	9,f
  5275     0F44  2F41               	goto	u1975
  5276     0F45                     l2717:
  5277     0F45  3001               	movlw	1
  5278     0F46  02F4               	subwf	___lwmod@counter,f
  5279     0F47  1D03               	btfss	3,2
  5280     0F48  2F4A               	goto	u1981
  5281     0F49  2F4B               	goto	u1980
  5282     0F4A                     u1981:
  5283     0F4A  2F32               	goto	l2711
  5284     0F4B                     u1980:
  5285     0F4B                     l2719:
  5286     0F4B  0873               	movf	___lwmod@dividend+1,w
  5287     0F4C  00F1               	movwf	?___lwmod+1
  5288     0F4D  0872               	movf	___lwmod@dividend,w
  5289     0F4E  00F0               	movwf	?___lwmod
  5290     0F4F                     l1163:
  5291     0F4F  0008               	return
  5292     0F50                     __end_of___lwmod:
  5293                           
  5294                           	psect	text9
  5295     0F84                     __ptext9:	
  5296 ;; *************** function ___lwdiv *****************
  5297 ;; Defined at:
  5298 ;;		line 5 in file "C:\Program Files\Microchip\xc8\v3.00\pic\sources\c99\common\lwdiv.c"
  5299 ;; Parameters:    Size  Location     Type
  5300 ;;  divisor         2    0[COMMON] unsigned int 
  5301 ;;  dividend        2    2[COMMON] unsigned int 
  5302 ;; Auto vars:     Size  Location     Type
  5303 ;;  quotient        2    4[COMMON] unsigned int 
  5304 ;;  counter         1    6[COMMON] unsigned char 
  5305 ;; Return value:  Size  Location     Type
  5306 ;;                  2    0[COMMON] unsigned int 
  5307 ;; Registers used:
  5308 ;;		wreg, status,2, status,0
  5309 ;; Tracked objects:
  5310 ;;		On entry : 0/0
  5311 ;;		On exit  : 0/0
  5312 ;;		Unchanged: 0/0
  5313 ;; Data sizes:     COMMON   BANK0   BANK1   BANK2   BANK3   BANK4   BANK5
  5314 ;;      Params:         4       0       0       0       0       0       0
  5315 ;;      Locals:         3       0       0       0       0       0       0
  5316 ;;      Temps:          0       0       0       0       0       0       0
  5317 ;;      Totals:         7       0       0       0       0       0       0
  5318 ;;Total ram usage:        7 bytes
  5319 ;; Hardware stack levels used: 1
  5320 ;; Hardware stack levels required when called: 3
  5321 ;; This function calls:
  5322 ;;		Nothing
  5323 ;; This function is called by:
  5324 ;;		_disp_sub
  5325 ;; This function uses a non-reentrant model
  5326 ;;
  5327                           
  5328     0F84                     ___lwdiv:	
  5329                           ;psect for function ___lwdiv
  5330                           
  5331     0F84                     l2675:	
  5332                           ;incstack = 0
  5333                           ; Regs used in ___lwdiv: [wreg+status,2+status,0]
  5334                           
  5335     0F84  01F4               	clrf	___lwdiv@quotient
  5336     0F85  01F5               	clrf	___lwdiv@quotient+1
  5337     0F86                     l2677:
  5338     0F86  0870               	movf	___lwdiv@divisor,w
  5339     0F87  0471               	iorwf	___lwdiv@divisor+1,w
  5340     0F88  1903               	btfsc	3,2
  5341     0F89  2F8B               	goto	u1861
  5342     0F8A  2F8C               	goto	u1860
  5343     0F8B                     u1861:
  5344     0F8B  2FB9               	goto	l2697
  5345     0F8C                     u1860:
  5346     0F8C                     l2679:
  5347     0F8C  3001               	movlw	1
  5348     0F8D  00F6               	movwf	___lwdiv@counter
  5349     0F8E  2F96               	goto	l2685
  5350     0F8F                     l2681:
  5351     0F8F  3001               	movlw	1
  5352     0F90                     u1875:
  5353     0F90  35F0               	lslf	___lwdiv@divisor,f
  5354     0F91  0DF1               	rlf	___lwdiv@divisor+1,f
  5355     0F92  0B89               	decfsz	9,f
  5356     0F93  2F90               	goto	u1875
  5357     0F94                     l2683:
  5358     0F94  3001               	movlw	1
  5359     0F95  07F6               	addwf	___lwdiv@counter,f
  5360     0F96                     l2685:
  5361     0F96  1FF1               	btfss	___lwdiv@divisor+1,7
  5362     0F97  2F99               	goto	u1881
  5363     0F98  2F9A               	goto	u1880
  5364     0F99                     u1881:
  5365     0F99  2F8F               	goto	l2681
  5366     0F9A                     u1880:
  5367     0F9A                     l2687:
  5368     0F9A  3001               	movlw	1
  5369     0F9B                     u1895:
  5370     0F9B  35F4               	lslf	___lwdiv@quotient,f
  5371     0F9C  0DF5               	rlf	___lwdiv@quotient+1,f
  5372     0F9D  0B89               	decfsz	9,f
  5373     0F9E  2F9B               	goto	u1895
  5374     0F9F  0871               	movf	___lwdiv@divisor+1,w
  5375     0FA0  0273               	subwf	___lwdiv@dividend+1,w
  5376     0FA1  1D03               	skipz
  5377     0FA2  2FA5               	goto	u1905
  5378     0FA3  0870               	movf	___lwdiv@divisor,w
  5379     0FA4  0272               	subwf	___lwdiv@dividend,w
  5380     0FA5                     u1905:
  5381     0FA5  1C03               	skipc
  5382     0FA6  2FA8               	goto	u1901
  5383     0FA7  2FA9               	goto	u1900
  5384     0FA8                     u1901:
  5385     0FA8  2FAE               	goto	l2693
  5386     0FA9                     u1900:
  5387     0FA9                     l2689:
  5388     0FA9  0870               	movf	___lwdiv@divisor,w
  5389     0FAA  02F2               	subwf	___lwdiv@dividend,f
  5390     0FAB  0871               	movf	___lwdiv@divisor+1,w
  5391     0FAC  3BF3               	subwfb	___lwdiv@dividend+1,f
  5392     0FAD                     l2691:
  5393     0FAD  1474               	bsf	___lwdiv@quotient,0
  5394     0FAE                     l2693:
  5395     0FAE  3001               	movlw	1
  5396     0FAF                     u1915:
  5397     0FAF  36F1               	lsrf	___lwdiv@divisor+1,f
  5398     0FB0  0CF0               	rrf	___lwdiv@divisor,f
  5399     0FB1  0B89               	decfsz	9,f
  5400     0FB2  2FAF               	goto	u1915
  5401     0FB3                     l2695:
  5402     0FB3  3001               	movlw	1
  5403     0FB4  02F6               	subwf	___lwdiv@counter,f
  5404     0FB5  1D03               	btfss	3,2
  5405     0FB6  2FB8               	goto	u1921
  5406     0FB7  2FB9               	goto	u1920
  5407     0FB8                     u1921:
  5408     0FB8  2F9A               	goto	l2687
  5409     0FB9                     u1920:
  5410     0FB9                     l2697:
  5411     0FB9  0875               	movf	___lwdiv@quotient+1,w
  5412     0FBA  00F1               	movwf	?___lwdiv+1
  5413     0FBB  0874               	movf	___lwdiv@quotient,w
  5414     0FBC  00F0               	movwf	?___lwdiv
  5415     0FBD                     l1153:
  5416     0FBD  0008               	return
  5417     0FBE                     __end_of___lwdiv:
  5418                           
  5419                           	psect	text10
  5420     079B                     __ptext10:	
  5421 ;; *************** function ___awmod *****************
  5422 ;; Defined at:
  5423 ;;		line 5 in file "C:\Program Files\Microchip\xc8\v3.00\pic\sources\c99\common\awmod.c"
  5424 ;; Parameters:    Size  Location     Type
  5425 ;;  divisor         2    0[COMMON] int 
  5426 ;;  dividend        2    2[COMMON] int 
  5427 ;; Auto vars:     Size  Location     Type
  5428 ;;  sign            1    5[COMMON] unsigned char 
  5429 ;;  counter         1    4[COMMON] unsigned char 
  5430 ;; Return value:  Size  Location     Type
  5431 ;;                  2    0[COMMON] int 
  5432 ;; Registers used:
  5433 ;;		wreg, status,2, status,0
  5434 ;; Tracked objects:
  5435 ;;		On entry : 0/0
  5436 ;;		On exit  : 0/0
  5437 ;;		Unchanged: 0/0
  5438 ;; Data sizes:     COMMON   BANK0   BANK1   BANK2   BANK3   BANK4   BANK5
  5439 ;;      Params:         4       0       0       0       0       0       0
  5440 ;;      Locals:         2       0       0       0       0       0       0
  5441 ;;      Temps:          0       0       0       0       0       0       0
  5442 ;;      Totals:         6       0       0       0       0       0       0
  5443 ;;Total ram usage:        6 bytes
  5444 ;; Hardware stack levels used: 1
  5445 ;; Hardware stack levels required when called: 3
  5446 ;; This function calls:
  5447 ;;		Nothing
  5448 ;; This function is called by:
  5449 ;;		_disp_sub
  5450 ;; This function uses a non-reentrant model
  5451 ;;
  5452                           
  5453     079B                     ___awmod:	
  5454                           ;psect for function ___awmod
  5455                           
  5456     079B                     l2637:	
  5457                           ;incstack = 0
  5458                           ; Regs used in ___awmod: [wreg+status,2+status,0]
  5459                           
  5460     079B  01F5               	clrf	___awmod@sign
  5461     079C                     l2639:
  5462     079C  1FF3               	btfss	___awmod@dividend+1,7
  5463     079D  2F9F               	goto	u1771
  5464     079E  2FA0               	goto	u1770
  5465     079F                     u1771:
  5466     079F  2FA7               	goto	l2645
  5467     07A0                     u1770:
  5468     07A0                     l2641:
  5469     07A0  09F2               	comf	___awmod@dividend,f
  5470     07A1  09F3               	comf	___awmod@dividend+1,f
  5471     07A2  0AF2               	incf	___awmod@dividend,f
  5472     07A3  1903               	skipnz
  5473     07A4  0AF3               	incf	___awmod@dividend+1,f
  5474     07A5                     l2643:
  5475     07A5  3001               	movlw	1
  5476     07A6  00F5               	movwf	___awmod@sign
  5477     07A7                     l2645:
  5478     07A7  1FF1               	btfss	___awmod@divisor+1,7
  5479     07A8  2FAA               	goto	u1781
  5480     07A9  2FAB               	goto	u1780
  5481     07AA                     u1781:
  5482     07AA  2FB0               	goto	l2649
  5483     07AB                     u1780:
  5484     07AB                     l2647:
  5485     07AB  09F0               	comf	___awmod@divisor,f
  5486     07AC  09F1               	comf	___awmod@divisor+1,f
  5487     07AD  0AF0               	incf	___awmod@divisor,f
  5488     07AE  1903               	skipnz
  5489     07AF  0AF1               	incf	___awmod@divisor+1,f
  5490     07B0                     l2649:
  5491     07B0  0870               	movf	___awmod@divisor,w
  5492     07B1  0471               	iorwf	___awmod@divisor+1,w
  5493     07B2  1903               	btfsc	3,2
  5494     07B3  2FB5               	goto	u1791
  5495     07B4  2FB6               	goto	u1790
  5496     07B5                     u1791:
  5497     07B5  2FDD               	goto	l2667
  5498     07B6                     u1790:
  5499     07B6                     l2651:
  5500     07B6  3001               	movlw	1
  5501     07B7  00F4               	movwf	___awmod@counter
  5502     07B8  2FC0               	goto	l2657
  5503     07B9                     l2653:
  5504     07B9  3001               	movlw	1
  5505     07BA                     u1805:
  5506     07BA  35F0               	lslf	___awmod@divisor,f
  5507     07BB  0DF1               	rlf	___awmod@divisor+1,f
  5508     07BC  0B89               	decfsz	9,f
  5509     07BD  2FBA               	goto	u1805
  5510     07BE                     l2655:
  5511     07BE  3001               	movlw	1
  5512     07BF  07F4               	addwf	___awmod@counter,f
  5513     07C0                     l2657:
  5514     07C0  1FF1               	btfss	___awmod@divisor+1,7
  5515     07C1  2FC3               	goto	u1811
  5516     07C2  2FC4               	goto	u1810
  5517     07C3                     u1811:
  5518     07C3  2FB9               	goto	l2653
  5519     07C4                     u1810:
  5520     07C4                     l2659:
  5521     07C4  0871               	movf	___awmod@divisor+1,w
  5522     07C5  0273               	subwf	___awmod@dividend+1,w
  5523     07C6  1D03               	skipz
  5524     07C7  2FCA               	goto	u1825
  5525     07C8  0870               	movf	___awmod@divisor,w
  5526     07C9  0272               	subwf	___awmod@dividend,w
  5527     07CA                     u1825:
  5528     07CA  1C03               	skipc
  5529     07CB  2FCD               	goto	u1821
  5530     07CC  2FCE               	goto	u1820
  5531     07CD                     u1821:
  5532     07CD  2FD2               	goto	l2663
  5533     07CE                     u1820:
  5534     07CE                     l2661:
  5535     07CE  0870               	movf	___awmod@divisor,w
  5536     07CF  02F2               	subwf	___awmod@dividend,f
  5537     07D0  0871               	movf	___awmod@divisor+1,w
  5538     07D1  3BF3               	subwfb	___awmod@dividend+1,f
  5539     07D2                     l2663:
  5540     07D2  3001               	movlw	1
  5541     07D3                     u1835:
  5542     07D3  36F1               	lsrf	___awmod@divisor+1,f
  5543     07D4  0CF0               	rrf	___awmod@divisor,f
  5544     07D5  0B89               	decfsz	9,f
  5545     07D6  2FD3               	goto	u1835
  5546     07D7                     l2665:
  5547     07D7  3001               	movlw	1
  5548     07D8  02F4               	subwf	___awmod@counter,f
  5549     07D9  1D03               	btfss	3,2
  5550     07DA  2FDC               	goto	u1841
  5551     07DB  2FDD               	goto	u1840
  5552     07DC                     u1841:
  5553     07DC  2FC4               	goto	l2659
  5554     07DD                     u1840:
  5555     07DD                     l2667:
  5556     07DD  0875               	movf	___awmod@sign,w
  5557     07DE  1903               	btfsc	3,2
  5558     07DF  2FE1               	goto	u1851
  5559     07E0  2FE2               	goto	u1850
  5560     07E1                     u1851:
  5561     07E1  2FE7               	goto	l2671
  5562     07E2                     u1850:
  5563     07E2                     l2669:
  5564     07E2  09F2               	comf	___awmod@dividend,f
  5565     07E3  09F3               	comf	___awmod@dividend+1,f
  5566     07E4  0AF2               	incf	___awmod@dividend,f
  5567     07E5  1903               	skipnz
  5568     07E6  0AF3               	incf	___awmod@dividend+1,f
  5569     07E7                     l2671:
  5570     07E7  0873               	movf	___awmod@dividend+1,w
  5571     07E8  00F1               	movwf	?___awmod+1
  5572     07E9  0872               	movf	___awmod@dividend,w
  5573     07EA  00F0               	movwf	?___awmod
  5574     07EB                     l1039:
  5575     07EB  0008               	return
  5576     07EC                     __end_of___awmod:
  5577                           
  5578                           	psect	text11
  5579     0F50                     __ptext11:	
  5580 ;; *************** function _chkeckPressKeyNumber *****************
  5581 ;; Defined at:
  5582 ;;		line 183 in file "main.c"
  5583 ;; Parameters:    Size  Location     Type
  5584 ;;		None
  5585 ;; Auto vars:     Size  Location     Type
  5586 ;;  keyCnt          1    0[COMMON] unsigned char 
  5587 ;; Return value:  Size  Location     Type
  5588 ;;                  1    wreg      void 
  5589 ;; Registers used:
  5590 ;;		wreg, status,2, status,0
  5591 ;; Tracked objects:
  5592 ;;		On entry : 0/0
  5593 ;;		On exit  : 0/0
  5594 ;;		Unchanged: 0/0
  5595 ;; Data sizes:     COMMON   BANK0   BANK1   BANK2   BANK3   BANK4   BANK5
  5596 ;;      Params:         0       0       0       0       0       0       0
  5597 ;;      Locals:         1       0       0       0       0       0       0
  5598 ;;      Temps:          0       0       0       0       0       0       0
  5599 ;;      Totals:         1       0       0       0       0       0       0
  5600 ;;Total ram usage:        1 bytes
  5601 ;; Hardware stack levels used: 1
  5602 ;; Hardware stack levels required when called: 3
  5603 ;; This function calls:
  5604 ;;		Nothing
  5605 ;; This function is called by:
  5606 ;;		_main
  5607 ;; This function uses a non-reentrant model
  5608 ;;
  5609                           
  5610     0F50                     _chkeckPressKeyNumber:	
  5611                           ;psect for function _chkeckPressKeyNumber
  5612                           
  5613     0F50                     l2871:	
  5614                           ;incstack = 0
  5615                           ; Regs used in _chkeckPressKeyNumber: [wreg+status,2+status,0]
  5616                           
  5617                           
  5618                           ;main.c: 184:   unsigned char keyCnt = 0;
  5619     0F50  01F0               	clrf	chkeckPressKeyNumber@keyCnt
  5620     0F51                     l2873:
  5621                           
  5622                           ;main.c: 185:   if ((SW1_Status == KEY_STATE_SHORT_PRESS) ||
  5623     0F51  0020               	movlb	0	; select bank0
  5624     0F52  0340               	decf	_SW1_Status,w
  5625     0F53  1903               	btfsc	3,2
  5626     0F54  2F56               	goto	u2231
  5627     0F55  2F57               	goto	u2230
  5628     0F56                     u2231:
  5629     0F56  2F5D               	goto	l2877
  5630     0F57                     u2230:
  5631     0F57                     l2875:
  5632     0F57  3002               	movlw	2
  5633     0F58  0640               	xorwf	_SW1_Status,w
  5634     0F59  1D03               	btfss	3,2
  5635     0F5A  2F5C               	goto	u2241
  5636     0F5B  2F5D               	goto	u2240
  5637     0F5C                     u2241:
  5638     0F5C  2F5F               	goto	l707
  5639     0F5D                     u2240:
  5640     0F5D                     l2877:
  5641                           
  5642                           ;main.c: 186:       (SW1_Status == KEY_STATE_LONG_PRESS)) {;main.c: 187:     keyCnt++;
  5643     0F5D  3001               	movlw	1
  5644     0F5E  07F0               	addwf	chkeckPressKeyNumber@keyCnt,f
  5645     0F5F                     l707:	
  5646                           ;main.c: 188:   }
  5647                           
  5648                           
  5649                           ;main.c: 189:   if ((SW2_Status == KEY_STATE_SHORT_PRESS) ||
  5650     0F5F  033F               	decf	_SW2_Status,w
  5651     0F60  1903               	btfsc	3,2
  5652     0F61  2F63               	goto	u2251
  5653     0F62  2F64               	goto	u2250
  5654     0F63                     u2251:
  5655     0F63  2F6A               	goto	l2881
  5656     0F64                     u2250:
  5657     0F64                     l2879:
  5658     0F64  3002               	movlw	2
  5659     0F65  063F               	xorwf	_SW2_Status,w
  5660     0F66  1D03               	btfss	3,2
  5661     0F67  2F69               	goto	u2261
  5662     0F68  2F6A               	goto	u2260
  5663     0F69                     u2261:
  5664     0F69  2F6C               	goto	l710
  5665     0F6A                     u2260:
  5666     0F6A                     l2881:
  5667                           
  5668                           ;main.c: 190:       (SW2_Status == KEY_STATE_LONG_PRESS)) {;main.c: 191:     keyCnt++;
  5669     0F6A  3001               	movlw	1
  5670     0F6B  07F0               	addwf	chkeckPressKeyNumber@keyCnt,f
  5671     0F6C                     l710:	
  5672                           ;main.c: 192:   }
  5673                           
  5674                           
  5675                           ;main.c: 193:   if ((SW3_Status == KEY_STATE_SHORT_PRESS) ||
  5676     0F6C  033E               	decf	_SW3_Status,w
  5677     0F6D  1903               	btfsc	3,2
  5678     0F6E  2F70               	goto	u2271
  5679     0F6F  2F71               	goto	u2270
  5680     0F70                     u2271:
  5681     0F70  2F77               	goto	l2885
  5682     0F71                     u2270:
  5683     0F71                     l2883:
  5684     0F71  3002               	movlw	2
  5685     0F72  063E               	xorwf	_SW3_Status,w
  5686     0F73  1D03               	btfss	3,2
  5687     0F74  2F76               	goto	u2281
  5688     0F75  2F77               	goto	u2280
  5689     0F76                     u2281:
  5690     0F76  2F79               	goto	l2887
  5691     0F77                     u2280:
  5692     0F77                     l2885:
  5693                           
  5694                           ;main.c: 194:       (SW3_Status == KEY_STATE_LONG_PRESS)) {;main.c: 195:     keyCnt++;
  5695     0F77  3001               	movlw	1
  5696     0F78  07F0               	addwf	chkeckPressKeyNumber@keyCnt,f
  5697     0F79                     l2887:
  5698                           
  5699                           ;main.c: 197:   if (keyCnt > 1) {
  5700     0F79  3002               	movlw	2
  5701     0F7A  0270               	subwf	chkeckPressKeyNumber@keyCnt,w
  5702     0F7B  1C03               	skipc
  5703     0F7C  2F7E               	goto	u2291
  5704     0F7D  2F7F               	goto	u2290
  5705     0F7E                     u2291:
  5706     0F7E  2F82               	goto	l2891
  5707     0F7F                     u2290:
  5708     0F7F                     l2889:
  5709                           
  5710                           ;main.c: 198:     fTooManyKeyPress = 1;
  5711     0F7F  3001               	movlw	1
  5712     0F80  00BC               	movwf	_fTooManyKeyPress
  5713                           
  5714                           ;main.c: 199:   } else {
  5715     0F81  2F83               	goto	l718
  5716     0F82                     l2891:
  5717                           
  5718                           ;main.c: 200:     fTooManyKeyPress = 0;
  5719     0F82  01BC               	clrf	_fTooManyKeyPress
  5720     0F83                     l718:
  5721     0F83  0008               	return
  5722     0F84                     __end_of_chkeckPressKeyNumber:
  5723                           
  5724                           	psect	text12
  5725     0E69                     __ptext12:	
  5726 ;; *************** function _SYSTEM_Initialize *****************
  5727 ;; Defined at:
  5728 ;;		line 50 in file "mcc_generated_files/mcc.c"
  5729 ;; Parameters:    Size  Location     Type
  5730 ;;		None
  5731 ;; Auto vars:     Size  Location     Type
  5732 ;;		None
  5733 ;; Return value:  Size  Location     Type
  5734 ;;                  1    wreg      void 
  5735 ;; Registers used:
  5736 ;;		wreg, status,2, status,0, pclath, cstack
  5737 ;; Tracked objects:
  5738 ;;		On entry : 0/0
  5739 ;;		On exit  : 0/0
  5740 ;;		Unchanged: 0/0
  5741 ;; Data sizes:     COMMON   BANK0   BANK1   BANK2   BANK3   BANK4   BANK5
  5742 ;;      Params:         0       0       0       0       0       0       0
  5743 ;;      Locals:         0       0       0       0       0       0       0
  5744 ;;      Temps:          0       0       0       0       0       0       0
  5745 ;;      Totals:         0       0       0       0       0       0       0
  5746 ;;Total ram usage:        0 bytes
  5747 ;; Hardware stack levels used: 1
  5748 ;; Hardware stack levels required when called: 5
  5749 ;; This function calls:
  5750 ;;		_ADC_Initialize
  5751 ;;		_EUSART_Initialize
  5752 ;;		_OSCILLATOR_Initialize
  5753 ;;		_PIN_MANAGER_Initialize
  5754 ;;		_TMR0_Initialize
  5755 ;;		_WDT_Initialize
  5756 ;; This function is called by:
  5757 ;;		_main
  5758 ;; This function uses a non-reentrant model
  5759 ;;
  5760                           
  5761     0E69                     _SYSTEM_Initialize:	
  5762                           ;psect for function _SYSTEM_Initialize
  5763                           
  5764     0E69                     l2833:	
  5765                           ;incstack = 0
  5766                           ; Regs used in _SYSTEM_Initialize: [wreg+status,2+status,0+pclath+cstack]
  5767                           
  5768                           
  5769                           ;mcc_generated_files/mcc.c: 53:     PIN_MANAGER_Initialize();
  5770     0E69  318E  2697  318E   	fcall	_PIN_MANAGER_Initialize
  5771                           
  5772                           ;mcc_generated_files/mcc.c: 54:     OSCILLATOR_Initialize();
  5773     0E6C  318E  262A  318E   	fcall	_OSCILLATOR_Initialize
  5774                           
  5775                           ;mcc_generated_files/mcc.c: 55:     WDT_Initialize();
  5776     0E6F  318E  2602  318E   	fcall	_WDT_Initialize
  5777                           
  5778                           ;mcc_generated_files/mcc.c: 56:     ADC_Initialize();
  5779     0E72  318E  2631  318E   	fcall	_ADC_Initialize
  5780     0E75                     l2835:
  5781                           
  5782                           ;mcc_generated_files/mcc.c: 57:     TMR0_Initialize();
  5783     0E75  3187  27EC  318E   	fcall	_TMR0_Initialize
  5784     0E78                     l2837:
  5785                           
  5786                           ;mcc_generated_files/mcc.c: 58:     EUSART_Initialize();
  5787     0E78  318E  26D2  318E   	fcall	_EUSART_Initialize
  5788     0E7B                     l461:
  5789     0E7B  0008               	return
  5790     0E7C                     __end_of_SYSTEM_Initialize:
  5791                           
  5792                           	psect	text13
  5793     0E02                     __ptext13:	
  5794 ;; *************** function _WDT_Initialize *****************
  5795 ;; Defined at:
  5796 ;;		line 71 in file "mcc_generated_files/mcc.c"
  5797 ;; Parameters:    Size  Location     Type
  5798 ;;		None
  5799 ;; Auto vars:     Size  Location     Type
  5800 ;;		None
  5801 ;; Return value:  Size  Location     Type
  5802 ;;                  1    wreg      void 
  5803 ;; Registers used:
  5804 ;;		None
  5805 ;; Tracked objects:
  5806 ;;		On entry : 0/0
  5807 ;;		On exit  : 0/0
  5808 ;;		Unchanged: 0/0
  5809 ;; Data sizes:     COMMON   BANK0   BANK1   BANK2   BANK3   BANK4   BANK5
  5810 ;;      Params:         0       0       0       0       0       0       0
  5811 ;;      Locals:         0       0       0       0       0       0       0
  5812 ;;      Temps:          0       0       0       0       0       0       0
  5813 ;;      Totals:         0       0       0       0       0       0       0
  5814 ;;Total ram usage:        0 bytes
  5815 ;; Hardware stack levels used: 1
  5816 ;; Hardware stack levels required when called: 3
  5817 ;; This function calls:
  5818 ;;		Nothing
  5819 ;; This function is called by:
  5820 ;;		_SYSTEM_Initialize
  5821 ;; This function uses a non-reentrant model
  5822 ;;
  5823                           
  5824     0E02                     _WDT_Initialize:	
  5825                           ;psect for function _WDT_Initialize
  5826                           
  5827     0E02                     l2557:	
  5828                           ;incstack = 0
  5829                           ; Regs used in _WDT_Initialize: []
  5830                           
  5831                           
  5832                           ;mcc_generated_files/mcc.c: 74:     WDTCON = 0x16;
  5833     0E02  3016               	movlw	22
  5834     0E03  0021               	movlb	1	; select bank1
  5835     0E04  0097               	movwf	23	;volatile
  5836     0E05                     l467:
  5837     0E05  0008               	return
  5838     0E06                     __end_of_WDT_Initialize:
  5839                           
  5840                           	psect	text14
  5841     07EC                     __ptext14:	
  5842 ;; *************** function _TMR0_Initialize *****************
  5843 ;; Defined at:
  5844 ;;		line 64 in file "mcc_generated_files/tmr0.c"
  5845 ;; Parameters:    Size  Location     Type
  5846 ;;		None
  5847 ;; Auto vars:     Size  Location     Type
  5848 ;;		None
  5849 ;; Return value:  Size  Location     Type
  5850 ;;                  1    wreg      void 
  5851 ;; Registers used:
  5852 ;;		wreg, status,2, status,0, pclath, cstack
  5853 ;; Tracked objects:
  5854 ;;		On entry : 0/0
  5855 ;;		On exit  : 0/0
  5856 ;;		Unchanged: 0/0
  5857 ;; Data sizes:     COMMON   BANK0   BANK1   BANK2   BANK3   BANK4   BANK5
  5858 ;;      Params:         0       0       0       0       0       0       0
  5859 ;;      Locals:         0       0       0       0       0       0       0
  5860 ;;      Temps:          0       0       0       0       0       0       0
  5861 ;;      Totals:         0       0       0       0       0       0       0
  5862 ;;Total ram usage:        0 bytes
  5863 ;; Hardware stack levels used: 1
  5864 ;; Hardware stack levels required when called: 4
  5865 ;; This function calls:
  5866 ;;		_TMR0_SetInterruptHandler
  5867 ;; This function is called by:
  5868 ;;		_SYSTEM_Initialize
  5869 ;; This function uses a non-reentrant model
  5870 ;;
  5871                           
  5872     07EC                     _TMR0_Initialize:	
  5873                           ;psect for function _TMR0_Initialize
  5874                           
  5875     07EC                     l2525:	
  5876                           ;incstack = 0
  5877                           ; Regs used in _TMR0_Initialize: [wreg+status,2+status,0+pclath+cstack]
  5878                           
  5879                           
  5880                           ;mcc_generated_files/tmr0.c: 69:     OPTION_REG = (uint8_t)((OPTION_REG & 0xC0) | (0xD3 
      +                          & 0x3F));
  5881     07EC  0021               	movlb	1	; select bank1
  5882     07ED  0815               	movf	21,w	;volatile
  5883     07EE  39C0               	andlw	192
  5884     07EF  3813               	iorlw	19
  5885     07F0  0095               	movwf	21	;volatile
  5886     07F1                     l2527:
  5887                           
  5888                           ;mcc_generated_files/tmr0.c: 72:     TMR0 = 0x06;
  5889     07F1  3006               	movlw	6
  5890     07F2  0020               	movlb	0	; select bank0
  5891     07F3  0095               	movwf	21	;volatile
  5892     07F4                     l2529:
  5893                           
  5894                           ;mcc_generated_files/tmr0.c: 75:     timer0ReloadVal= 6;
  5895     07F4  3006               	movlw	6
  5896     07F5  00FD               	movwf	_timer0ReloadVal	;volatile
  5897     07F6                     l2531:
  5898                           
  5899                           ;mcc_generated_files/tmr0.c: 78:     INTCONbits.TMR0IF = 0;
  5900     07F6  110B               	bcf	11,2	;volatile
  5901     07F7                     l2533:
  5902                           
  5903                           ;mcc_generated_files/tmr0.c: 81:     INTCONbits.TMR0IE = 1;
  5904     07F7  168B               	bsf	11,5	;volatile
  5905     07F8                     l2535:
  5906                           
  5907                           ;mcc_generated_files/tmr0.c: 84:     TMR0_SetInterruptHandler(TMR0_InterruptHandler);
  5908     07F8  0864               	movf	_TMR0_InterruptHandler+1,w
  5909     07F9  00F1               	movwf	TMR0_SetInterruptHandler@InterruptHandler+1
  5910     07FA  0863               	movf	_TMR0_InterruptHandler,w
  5911     07FB  00F0               	movwf	TMR0_SetInterruptHandler@InterruptHandler
  5912     07FC  318E  2618  3187   	fcall	_TMR0_SetInterruptHandler
  5913     07FF                     l419:
  5914     07FF  0008               	return
  5915     0800                     __end_of_TMR0_Initialize:
  5916                           
  5917                           	psect	text15
  5918     0E18                     __ptext15:	
  5919 ;; *************** function _TMR0_SetInterruptHandler *****************
  5920 ;; Defined at:
  5921 ;;		line 125 in file "mcc_generated_files/tmr0.c"
  5922 ;; Parameters:    Size  Location     Type
  5923 ;;  InterruptHan    2    0[COMMON] PTR FTN()void 
  5924 ;;		 -> TMR0_timerHandler(1), NULL(1), 
  5925 ;; Auto vars:     Size  Location     Type
  5926 ;;		None
  5927 ;; Return value:  Size  Location     Type
  5928 ;;                  1    wreg      void 
  5929 ;; Registers used:
  5930 ;;		wreg
  5931 ;; Tracked objects:
  5932 ;;		On entry : 0/0
  5933 ;;		On exit  : 0/0
  5934 ;;		Unchanged: 0/0
  5935 ;; Data sizes:     COMMON   BANK0   BANK1   BANK2   BANK3   BANK4   BANK5
  5936 ;;      Params:         2       0       0       0       0       0       0
  5937 ;;      Locals:         0       0       0       0       0       0       0
  5938 ;;      Temps:          0       0       0       0       0       0       0
  5939 ;;      Totals:         2       0       0       0       0       0       0
  5940 ;;Total ram usage:        2 bytes
  5941 ;; Hardware stack levels used: 1
  5942 ;; Hardware stack levels required when called: 3
  5943 ;; This function calls:
  5944 ;;		Nothing
  5945 ;; This function is called by:
  5946 ;;		_TMR0_Initialize
  5947 ;;		_main
  5948 ;; This function uses a non-reentrant model
  5949 ;;
  5950                           
  5951     0E18                     _TMR0_SetInterruptHandler:	
  5952                           ;psect for function _TMR0_SetInterruptHandler
  5953                           
  5954     0E18                     l2511:	
  5955                           ;incstack = 0
  5956                           ; Regs used in _TMR0_SetInterruptHandler: [wreg]
  5957                           
  5958                           
  5959                           ;mcc_generated_files/tmr0.c: 126:     TMR0_InterruptHandler = InterruptHandler;
  5960     0E18  0871               	movf	TMR0_SetInterruptHandler@InterruptHandler+1,w
  5961     0E19  0020               	movlb	0	; select bank0
  5962     0E1A  00E4               	movwf	_TMR0_InterruptHandler+1
  5963     0E1B  0870               	movf	TMR0_SetInterruptHandler@InterruptHandler,w
  5964     0E1C  00E3               	movwf	_TMR0_InterruptHandler
  5965     0E1D                     l435:
  5966     0E1D  0008               	return
  5967     0E1E                     __end_of_TMR0_SetInterruptHandler:
  5968                           
  5969                           	psect	text16
  5970     0E97                     __ptext16:	
  5971 ;; *************** function _PIN_MANAGER_Initialize *****************
  5972 ;; Defined at:
  5973 ;;		line 55 in file "mcc_generated_files/pin_manager.c"
  5974 ;; Parameters:    Size  Location     Type
  5975 ;;		None
  5976 ;; Auto vars:     Size  Location     Type
  5977 ;;		None
  5978 ;; Return value:  Size  Location     Type
  5979 ;;                  1    wreg      void 
  5980 ;; Registers used:
  5981 ;;		status,2
  5982 ;; Tracked objects:
  5983 ;;		On entry : 0/0
  5984 ;;		On exit  : 0/0
  5985 ;;		Unchanged: 0/0
  5986 ;; Data sizes:     COMMON   BANK0   BANK1   BANK2   BANK3   BANK4   BANK5
  5987 ;;      Params:         0       0       0       0       0       0       0
  5988 ;;      Locals:         0       0       0       0       0       0       0
  5989 ;;      Temps:          0       0       0       0       0       0       0
  5990 ;;      Totals:         0       0       0       0       0       0       0
  5991 ;;Total ram usage:        0 bytes
  5992 ;; Hardware stack levels used: 1
  5993 ;; Hardware stack levels required when called: 3
  5994 ;; This function calls:
  5995 ;;		Nothing
  5996 ;; This function is called by:
  5997 ;;		_SYSTEM_Initialize
  5998 ;; This function uses a non-reentrant model
  5999 ;;
  6000                           
  6001     0E97                     _PIN_MANAGER_Initialize:	
  6002                           ;psect for function _PIN_MANAGER_Initialize
  6003                           
  6004     0E97                     l2537:	
  6005                           ;incstack = 0
  6006                           ; Regs used in _PIN_MANAGER_Initialize: [status,2]
  6007                           
  6008                           
  6009                           ;mcc_generated_files/pin_manager.c: 60:     LATE = 0x00;
  6010     0E97  0022               	movlb	2	; select bank2
  6011     0E98  0190               	clrf	16	;volatile
  6012                           
  6013                           ;mcc_generated_files/pin_manager.c: 61:     LATA = 0x00;
  6014     0E99  018C               	clrf	12	;volatile
  6015                           
  6016                           ;mcc_generated_files/pin_manager.c: 62:     LATB = 0x00;
  6017     0E9A  018D               	clrf	13	;volatile
  6018                           
  6019                           ;mcc_generated_files/pin_manager.c: 63:     LATC = 0x00;
  6020     0E9B  018E               	clrf	14	;volatile
  6021     0E9C                     l2539:
  6022                           
  6023                           ;mcc_generated_files/pin_manager.c: 68:     TRISE = 0x08;
  6024     0E9C  3008               	movlw	8
  6025     0E9D  0021               	movlb	1	; select bank1
  6026     0E9E  0090               	movwf	16	;volatile
  6027     0E9F                     l2541:
  6028                           
  6029                           ;mcc_generated_files/pin_manager.c: 69:     TRISA = 0x3F;
  6030     0E9F  303F               	movlw	63
  6031     0EA0  008C               	movwf	12	;volatile
  6032     0EA1                     l2543:
  6033                           
  6034                           ;mcc_generated_files/pin_manager.c: 70:     TRISB = 0xFF;
  6035     0EA1  30FF               	movlw	255
  6036     0EA2  008D               	movwf	13	;volatile
  6037     0EA3                     l2545:
  6038                           
  6039                           ;mcc_generated_files/pin_manager.c: 71:     TRISC = 0x80;
  6040     0EA3  3080               	movlw	128
  6041     0EA4  008E               	movwf	14	;volatile
  6042     0EA5                     l2547:
  6043                           
  6044                           ;mcc_generated_files/pin_manager.c: 76:     ANSELB = 0x31;
  6045     0EA5  3031               	movlw	49
  6046     0EA6  0023               	movlb	3	; select bank3
  6047     0EA7  008D               	movwf	13	;volatile
  6048     0EA8                     l2549:
  6049                           
  6050                           ;mcc_generated_files/pin_manager.c: 77:     ANSELA = 0x3F;
  6051     0EA8  303F               	movlw	63
  6052     0EA9  008C               	movwf	12	;volatile
  6053                           
  6054                           ;mcc_generated_files/pin_manager.c: 82:     WPUE = 0x00;
  6055     0EAA  0024               	movlb	4	; select bank4
  6056     0EAB  0190               	clrf	16	;volatile
  6057                           
  6058                           ;mcc_generated_files/pin_manager.c: 83:     WPUB = 0x00;
  6059     0EAC  018D               	clrf	13	;volatile
  6060     0EAD                     l2551:
  6061                           
  6062                           ;mcc_generated_files/pin_manager.c: 84:     OPTION_REGbits.nWPUEN = 1;
  6063     0EAD  0021               	movlb	1	; select bank1
  6064     0EAE  1795               	bsf	21,7	;volatile
  6065                           
  6066                           ;mcc_generated_files/pin_manager.c: 90:     APFCON = 0x00;
  6067     0EAF  0022               	movlb	2	; select bank2
  6068     0EB0  019D               	clrf	29	;volatile
  6069     0EB1                     l536:
  6070     0EB1  0008               	return
  6071     0EB2                     __end_of_PIN_MANAGER_Initialize:
  6072                           
  6073                           	psect	text17
  6074     0E2A                     __ptext17:	
  6075 ;; *************** function _OSCILLATOR_Initialize *****************
  6076 ;; Defined at:
  6077 ;;		line 61 in file "mcc_generated_files/mcc.c"
  6078 ;; Parameters:    Size  Location     Type
  6079 ;;		None
  6080 ;; Auto vars:     Size  Location     Type
  6081 ;;		None
  6082 ;; Return value:  Size  Location     Type
  6083 ;;                  1    wreg      void 
  6084 ;; Registers used:
  6085 ;;		status,2
  6086 ;; Tracked objects:
  6087 ;;		On entry : 0/0
  6088 ;;		On exit  : 0/0
  6089 ;;		Unchanged: 0/0
  6090 ;; Data sizes:     COMMON   BANK0   BANK1   BANK2   BANK3   BANK4   BANK5
  6091 ;;      Params:         0       0       0       0       0       0       0
  6092 ;;      Locals:         0       0       0       0       0       0       0
  6093 ;;      Temps:          0       0       0       0       0       0       0
  6094 ;;      Totals:         0       0       0       0       0       0       0
  6095 ;;Total ram usage:        0 bytes
  6096 ;; Hardware stack levels used: 1
  6097 ;; Hardware stack levels required when called: 3
  6098 ;; This function calls:
  6099 ;;		Nothing
  6100 ;; This function is called by:
  6101 ;;		_SYSTEM_Initialize
  6102 ;; This function uses a non-reentrant model
  6103 ;;
  6104                           
  6105     0E2A                     _OSCILLATOR_Initialize:	
  6106                           ;psect for function _OSCILLATOR_Initialize
  6107                           
  6108     0E2A                     l2553:	
  6109                           ;incstack = 0
  6110                           ; Regs used in _OSCILLATOR_Initialize: [status,2]
  6111                           
  6112                           
  6113                           ;mcc_generated_files/mcc.c: 64:     OSCCON = 0x78;
  6114     0E2A  3078               	movlw	120
  6115     0E2B  0021               	movlb	1	; select bank1
  6116     0E2C  0099               	movwf	25	;volatile
  6117     0E2D                     l2555:
  6118                           
  6119                           ;mcc_generated_files/mcc.c: 66:     OSCTUNE = 0x00;
  6120     0E2D  0198               	clrf	24	;volatile
  6121                           
  6122                           ;mcc_generated_files/mcc.c: 68:     BORCON = 0x00;
  6123     0E2E  0022               	movlb	2	; select bank2
  6124     0E2F  0196               	clrf	22	;volatile
  6125     0E30                     l464:
  6126     0E30  0008               	return
  6127     0E31                     __end_of_OSCILLATOR_Initialize:
  6128                           
  6129                           	psect	text18
  6130     0ED2                     __ptext18:	
  6131 ;; *************** function _EUSART_Initialize *****************
  6132 ;; Defined at:
  6133 ;;		line 66 in file "mcc_generated_files/eusart.c"
  6134 ;; Parameters:    Size  Location     Type
  6135 ;;		None
  6136 ;; Auto vars:     Size  Location     Type
  6137 ;;		None
  6138 ;; Return value:  Size  Location     Type
  6139 ;;                  1    wreg      void 
  6140 ;; Registers used:
  6141 ;;		wreg, status,2, status,0, pclath, cstack
  6142 ;; Tracked objects:
  6143 ;;		On entry : 0/0
  6144 ;;		On exit  : 0/0
  6145 ;;		Unchanged: 0/0
  6146 ;; Data sizes:     COMMON   BANK0   BANK1   BANK2   BANK3   BANK4   BANK5
  6147 ;;      Params:         0       0       0       0       0       0       0
  6148 ;;      Locals:         0       0       0       0       0       0       0
  6149 ;;      Temps:          0       0       0       0       0       0       0
  6150 ;;      Totals:         0       0       0       0       0       0       0
  6151 ;;Total ram usage:        0 bytes
  6152 ;; Hardware stack levels used: 1
  6153 ;; Hardware stack levels required when called: 4
  6154 ;; This function calls:
  6155 ;;		_EUSART_SetErrorHandler
  6156 ;;		_EUSART_SetFramingErrorHandler
  6157 ;;		_EUSART_SetOverrunErrorHandler
  6158 ;; This function is called by:
  6159 ;;		_SYSTEM_Initialize
  6160 ;; This function uses a non-reentrant model
  6161 ;;
  6162                           
  6163     0ED2                     _EUSART_Initialize:	
  6164                           ;psect for function _EUSART_Initialize
  6165                           
  6166     0ED2                     l2565:	
  6167                           ;incstack = 0
  6168                           ; Regs used in _EUSART_Initialize: [wreg+status,2+status,0+pclath+cstack]
  6169                           
  6170                           
  6171                           ;mcc_generated_files/eusart.c: 71:     BAUDCON = 0x08;
  6172     0ED2  3008               	movlw	8
  6173     0ED3  0023               	movlb	3	; select bank3
  6174     0ED4  009F               	movwf	31	;volatile
  6175                           
  6176                           ;mcc_generated_files/eusart.c: 74:     RCSTA = 0x80;
  6177     0ED5  3080               	movlw	128
  6178     0ED6  009D               	movwf	29	;volatile
  6179                           
  6180                           ;mcc_generated_files/eusart.c: 77:     TXSTA = 0x24;
  6181     0ED7  3024               	movlw	36
  6182     0ED8  009E               	movwf	30	;volatile
  6183                           
  6184                           ;mcc_generated_files/eusart.c: 80:     SPBRGL = 0xCF;
  6185     0ED9  30CF               	movlw	207
  6186     0EDA  009B               	movwf	27	;volatile
  6187     0EDB                     l2567:
  6188                           
  6189                           ;mcc_generated_files/eusart.c: 83:     SPBRGH = 0x00;
  6190     0EDB  019C               	clrf	28	;volatile
  6191     0EDC                     l2569:
  6192                           
  6193                           ;mcc_generated_files/eusart.c: 86:     EUSART_SetFramingErrorHandler(EUSART_DefaultFrami
      +                          ngErrorHandler);
  6194     0EDC  3000               	movlw	0
  6195     0EDD  00F0               	movwf	EUSART_SetFramingErrorHandler@interruptHandler
  6196     0EDE  3000               	movlw	0
  6197     0EDF  00F1               	movwf	EUSART_SetFramingErrorHandler@interruptHandler+1
  6198     0EE0  318E  260C  318E   	fcall	_EUSART_SetFramingErrorHandler
  6199     0EE3                     l2571:
  6200                           
  6201                           ;mcc_generated_files/eusart.c: 87:     EUSART_SetOverrunErrorHandler(EUSART_DefaultOverr
      +                          unErrorHandler);
  6202     0EE3  3000               	movlw	0
  6203     0EE4  00F0               	movwf	EUSART_SetOverrunErrorHandler@interruptHandler
  6204     0EE5  3000               	movlw	0
  6205     0EE6  00F1               	movwf	EUSART_SetOverrunErrorHandler@interruptHandler+1
  6206     0EE7  318E  2612  318E   	fcall	_EUSART_SetOverrunErrorHandler
  6207     0EEA                     l2573:
  6208                           
  6209                           ;mcc_generated_files/eusart.c: 88:     EUSART_SetErrorHandler(EUSART_DefaultErrorHandler
      +                          );
  6210     0EEA  3000               	movlw	0
  6211     0EEB  00F0               	movwf	EUSART_SetErrorHandler@interruptHandler
  6212     0EEC  3000               	movlw	0
  6213     0EED  00F1               	movwf	EUSART_SetErrorHandler@interruptHandler+1
  6214     0EEE  318E  2606  318E   	fcall	_EUSART_SetErrorHandler
  6215     0EF1                     l2575:
  6216                           
  6217                           ;mcc_generated_files/eusart.c: 90:     eusartRxLastError.status = 0;
  6218     0EF1  0020               	movlb	0	; select bank0
  6219     0EF2  01BD               	clrf	_eusartRxLastError	;volatile
  6220     0EF3                     l582:
  6221     0EF3  0008               	return
  6222     0EF4                     __end_of_EUSART_Initialize:
  6223                           
  6224                           	psect	text19
  6225     0E12                     __ptext19:	
  6226 ;; *************** function _EUSART_SetOverrunErrorHandler *****************
  6227 ;; Defined at:
  6228 ;;		line 161 in file "mcc_generated_files/eusart.c"
  6229 ;; Parameters:    Size  Location     Type
  6230 ;;  interruptHan    2    0[COMMON] PTR FTN()void 
  6231 ;;		 -> EUSART_DefaultOverrunErrorHandler(1), 
  6232 ;; Auto vars:     Size  Location     Type
  6233 ;;		None
  6234 ;; Return value:  Size  Location     Type
  6235 ;;                  1    wreg      void 
  6236 ;; Registers used:
  6237 ;;		wreg
  6238 ;; Tracked objects:
  6239 ;;		On entry : 0/0
  6240 ;;		On exit  : 0/0
  6241 ;;		Unchanged: 0/0
  6242 ;; Data sizes:     COMMON   BANK0   BANK1   BANK2   BANK3   BANK4   BANK5
  6243 ;;      Params:         2       0       0       0       0       0       0
  6244 ;;      Locals:         0       0       0       0       0       0       0
  6245 ;;      Temps:          0       0       0       0       0       0       0
  6246 ;;      Totals:         2       0       0       0       0       0       0
  6247 ;;Total ram usage:        2 bytes
  6248 ;; Hardware stack levels used: 1
  6249 ;; Hardware stack levels required when called: 3
  6250 ;; This function calls:
  6251 ;;		Nothing
  6252 ;; This function is called by:
  6253 ;;		_EUSART_Initialize
  6254 ;; This function uses a non-reentrant model
  6255 ;;
  6256                           
  6257     0E12                     _EUSART_SetOverrunErrorHandler:	
  6258                           ;psect for function _EUSART_SetOverrunErrorHandler
  6259                           
  6260     0E12                     l2515:	
  6261                           ;incstack = 0
  6262                           ; Regs used in _EUSART_SetOverrunErrorHandler: [wreg]
  6263                           
  6264                           
  6265                           ;mcc_generated_files/eusart.c: 162:     EUSART_OverrunErrorHandler = interruptHandler;
  6266     0E12  0871               	movf	EUSART_SetOverrunErrorHandler@interruptHandler+1,w
  6267     0E13  0020               	movlb	0	; select bank0
  6268     0E14  00E0               	movwf	_EUSART_OverrunErrorHandler+1
  6269     0E15  0870               	movf	EUSART_SetOverrunErrorHandler@interruptHandler,w
  6270     0E16  00DF               	movwf	_EUSART_OverrunErrorHandler
  6271     0E17                     l624:
  6272     0E17  0008               	return
  6273     0E18                     __end_of_EUSART_SetOverrunErrorHandler:
  6274                           
  6275                           	psect	text20
  6276     0E0C                     __ptext20:	
  6277 ;; *************** function _EUSART_SetFramingErrorHandler *****************
  6278 ;; Defined at:
  6279 ;;		line 157 in file "mcc_generated_files/eusart.c"
  6280 ;; Parameters:    Size  Location     Type
  6281 ;;  interruptHan    2    0[COMMON] PTR FTN()void 
  6282 ;;		 -> EUSART_DefaultFramingErrorHandler(1), 
  6283 ;; Auto vars:     Size  Location     Type
  6284 ;;		None
  6285 ;; Return value:  Size  Location     Type
  6286 ;;                  1    wreg      void 
  6287 ;; Registers used:
  6288 ;;		wreg
  6289 ;; Tracked objects:
  6290 ;;		On entry : 0/0
  6291 ;;		On exit  : 0/0
  6292 ;;		Unchanged: 0/0
  6293 ;; Data sizes:     COMMON   BANK0   BANK1   BANK2   BANK3   BANK4   BANK5
  6294 ;;      Params:         2       0       0       0       0       0       0
  6295 ;;      Locals:         0       0       0       0       0       0       0
  6296 ;;      Temps:          0       0       0       0       0       0       0
  6297 ;;      Totals:         2       0       0       0       0       0       0
  6298 ;;Total ram usage:        2 bytes
  6299 ;; Hardware stack levels used: 1
  6300 ;; Hardware stack levels required when called: 3
  6301 ;; This function calls:
  6302 ;;		Nothing
  6303 ;; This function is called by:
  6304 ;;		_EUSART_Initialize
  6305 ;; This function uses a non-reentrant model
  6306 ;;
  6307                           
  6308     0E0C                     _EUSART_SetFramingErrorHandler:	
  6309                           ;psect for function _EUSART_SetFramingErrorHandler
  6310                           
  6311     0E0C                     l2513:	
  6312                           ;incstack = 0
  6313                           ; Regs used in _EUSART_SetFramingErrorHandler: [wreg]
  6314                           
  6315                           
  6316                           ;mcc_generated_files/eusart.c: 158:     EUSART_FramingErrorHandler = interruptHandler;
  6317     0E0C  0871               	movf	EUSART_SetFramingErrorHandler@interruptHandler+1,w
  6318     0E0D  0020               	movlb	0	; select bank0
  6319     0E0E  00E2               	movwf	_EUSART_FramingErrorHandler+1
  6320     0E0F  0870               	movf	EUSART_SetFramingErrorHandler@interruptHandler,w
  6321     0E10  00E1               	movwf	_EUSART_FramingErrorHandler
  6322     0E11                     l621:
  6323     0E11  0008               	return
  6324     0E12                     __end_of_EUSART_SetFramingErrorHandler:
  6325                           
  6326                           	psect	text21
  6327     0E06                     __ptext21:	
  6328 ;; *************** function _EUSART_SetErrorHandler *****************
  6329 ;; Defined at:
  6330 ;;		line 165 in file "mcc_generated_files/eusart.c"
  6331 ;; Parameters:    Size  Location     Type
  6332 ;;  interruptHan    2    0[COMMON] PTR FTN()void 
  6333 ;;		 -> EUSART_DefaultErrorHandler(1), 
  6334 ;; Auto vars:     Size  Location     Type
  6335 ;;		None
  6336 ;; Return value:  Size  Location     Type
  6337 ;;                  1    wreg      void 
  6338 ;; Registers used:
  6339 ;;		wreg
  6340 ;; Tracked objects:
  6341 ;;		On entry : 0/0
  6342 ;;		On exit  : 0/0
  6343 ;;		Unchanged: 0/0
  6344 ;; Data sizes:     COMMON   BANK0   BANK1   BANK2   BANK3   BANK4   BANK5
  6345 ;;      Params:         2       0       0       0       0       0       0
  6346 ;;      Locals:         0       0       0       0       0       0       0
  6347 ;;      Temps:          0       0       0       0       0       0       0
  6348 ;;      Totals:         2       0       0       0       0       0       0
  6349 ;;Total ram usage:        2 bytes
  6350 ;; Hardware stack levels used: 1
  6351 ;; Hardware stack levels required when called: 3
  6352 ;; This function calls:
  6353 ;;		Nothing
  6354 ;; This function is called by:
  6355 ;;		_EUSART_Initialize
  6356 ;; This function uses a non-reentrant model
  6357 ;;
  6358                           
  6359     0E06                     _EUSART_SetErrorHandler:	
  6360                           ;psect for function _EUSART_SetErrorHandler
  6361                           
  6362     0E06                     l2517:	
  6363                           ;incstack = 0
  6364                           ; Regs used in _EUSART_SetErrorHandler: [wreg]
  6365                           
  6366                           
  6367                           ;mcc_generated_files/eusart.c: 166:     EUSART_ErrorHandler = interruptHandler;
  6368     0E06  0871               	movf	EUSART_SetErrorHandler@interruptHandler+1,w
  6369     0E07  0020               	movlb	0	; select bank0
  6370     0E08  00DE               	movwf	_EUSART_ErrorHandler+1
  6371     0E09  0870               	movf	EUSART_SetErrorHandler@interruptHandler,w
  6372     0E0A  00DD               	movwf	_EUSART_ErrorHandler
  6373     0E0B                     l627:
  6374     0E0B  0008               	return
  6375     0E0C                     __end_of_EUSART_SetErrorHandler:
  6376                           
  6377                           	psect	text22
  6378     0E31                     __ptext22:	
  6379 ;; *************** function _ADC_Initialize *****************
  6380 ;; Defined at:
  6381 ;;		line 67 in file "mcc_generated_files/adc.c"
  6382 ;; Parameters:    Size  Location     Type
  6383 ;;		None
  6384 ;; Auto vars:     Size  Location     Type
  6385 ;;		None
  6386 ;; Return value:  Size  Location     Type
  6387 ;;                  1    wreg      void 
  6388 ;; Registers used:
  6389 ;;		status,2
  6390 ;; Tracked objects:
  6391 ;;		On entry : 0/0
  6392 ;;		On exit  : 0/0
  6393 ;;		Unchanged: 0/0
  6394 ;; Data sizes:     COMMON   BANK0   BANK1   BANK2   BANK3   BANK4   BANK5
  6395 ;;      Params:         0       0       0       0       0       0       0
  6396 ;;      Locals:         0       0       0       0       0       0       0
  6397 ;;      Temps:          0       0       0       0       0       0       0
  6398 ;;      Totals:         0       0       0       0       0       0       0
  6399 ;;Total ram usage:        0 bytes
  6400 ;; Hardware stack levels used: 1
  6401 ;; Hardware stack levels required when called: 3
  6402 ;; This function calls:
  6403 ;;		Nothing
  6404 ;; This function is called by:
  6405 ;;		_SYSTEM_Initialize
  6406 ;; This function uses a non-reentrant model
  6407 ;;
  6408                           
  6409     0E31                     _ADC_Initialize:	
  6410                           ;psect for function _ADC_Initialize
  6411                           
  6412     0E31                     l2559:	
  6413                           ;incstack = 0
  6414                           ; Regs used in _ADC_Initialize: [status,2]
  6415                           
  6416                           
  6417                           ;mcc_generated_files/adc.c: 72:     ADCON1 = 0x80;
  6418     0E31  3080               	movlw	128
  6419     0E32  0021               	movlb	1	; select bank1
  6420     0E33  009E               	movwf	30	;volatile
  6421     0E34                     l2561:
  6422                           
  6423                           ;mcc_generated_files/adc.c: 75:     ADRESL = 0x00;
  6424     0E34  019B               	clrf	27	;volatile
  6425                           
  6426                           ;mcc_generated_files/adc.c: 78:     ADRESH = 0x00;
  6427     0E35  019C               	clrf	28	;volatile
  6428     0E36                     l2563:
  6429                           
  6430                           ;mcc_generated_files/adc.c: 81:     ADCON0 = 0x01;
  6431     0E36  3001               	movlw	1
  6432     0E37  009D               	movwf	29	;volatile
  6433     0E38                     l484:
  6434     0E38  0008               	return
  6435     0E39                     __end_of_ADC_Initialize:
  6436                           
  6437                           	psect	text23
  6438     0FBE                     __ptext23:	
  6439 ;; *************** function _CalTemperture *****************
  6440 ;; Defined at:
  6441 ;;		line 204 in file "main.c"
  6442 ;; Parameters:    Size  Location     Type
  6443 ;;  NTC_Value       2    8[COMMON] unsigned short 
  6444 ;; Auto vars:     Size  Location     Type
  6445 ;;  temp            2    2[BANK0 ] int 
  6446 ;;  NTC             2    0[BANK0 ] int 
  6447 ;; Return value:  Size  Location     Type
  6448 ;;                  1    wreg      unsigned char 
  6449 ;; Registers used:
  6450 ;;		wreg, status,2, status,0, pclath, cstack
  6451 ;; Tracked objects:
  6452 ;;		On entry : 0/0
  6453 ;;		On exit  : 0/0
  6454 ;;		Unchanged: 0/0
  6455 ;; Data sizes:     COMMON   BANK0   BANK1   BANK2   BANK3   BANK4   BANK5
  6456 ;;      Params:         2       0       0       0       0       0       0
  6457 ;;      Locals:         0       4       0       0       0       0       0
  6458 ;;      Temps:          2       0       0       0       0       0       0
  6459 ;;      Totals:         4       4       0       0       0       0       0
  6460 ;;Total ram usage:        8 bytes
  6461 ;; Hardware stack levels used: 1
  6462 ;; Hardware stack levels required when called: 4
  6463 ;; This function calls:
  6464 ;;		___awdiv
  6465 ;; This function is called by:
  6466 ;;		_main
  6467 ;; This function uses a non-reentrant model
  6468 ;;
  6469                           
  6470     0FBE                     _CalTemperture:	
  6471                           ;psect for function _CalTemperture
  6472                           
  6473     0FBE                     l2851:	
  6474                           ;incstack = 0
  6475                           ; Regs used in _CalTemperture: [wreg+status,2+status,0+pclath+cstack]
  6476                           
  6477                           
  6478                           ;main.c: 205:   int temp;;main.c: 206:   int NTC = NTC_Value & 0x3FF;
  6479     0FBE  30FF               	movlw	255
  6480     0FBF  0578               	andwf	CalTemperture@NTC_Value,w
  6481     0FC0  0020               	movlb	0	; select bank0
  6482     0FC1  00CF               	movwf	CalTemperture@NTC
  6483     0FC2  3003               	movlw	3
  6484     0FC3  0579               	andwf	CalTemperture@NTC_Value+1,w
  6485     0FC4  00D0               	movwf	CalTemperture@NTC+1
  6486     0FC5                     l2853:
  6487                           
  6488                           ;main.c: 208:   temp= 511-NTC;
  6489     0FC5  30FF               	movlw	255
  6490     0FC6  00FA               	movwf	??_CalTemperture
  6491     0FC7  3001               	movlw	1
  6492     0FC8  00FB               	movwf	??_CalTemperture+1
  6493     0FC9  084F               	movf	CalTemperture@NTC,w
  6494     0FCA  027A               	subwf	??_CalTemperture,w
  6495     0FCB  00D1               	movwf	CalTemperture@temp
  6496     0FCC  0850               	movf	CalTemperture@NTC+1,w
  6497     0FCD  3B7B               	subwfb	??_CalTemperture+1,w
  6498     0FCE  00D2               	movwf	CalTemperture@temp+1
  6499     0FCF                     l2855:
  6500                           
  6501                           ;main.c: 209:   temp= 250+temp;
  6502     0FCF  0851               	movf	CalTemperture@temp,w
  6503     0FD0  3EFA               	addlw	250
  6504     0FD1  00D1               	movwf	CalTemperture@temp
  6505     0FD2  3000               	movlw	0
  6506     0FD3  3D52               	addwfc	CalTemperture@temp+1,w
  6507     0FD4  00D2               	movwf	CalTemperture@temp+1
  6508     0FD5                     l2857:
  6509                           
  6510                           ;main.c: 210:   temp = temp/10;
  6511     0FD5  300A               	movlw	10
  6512     0FD6  00F0               	movwf	___awdiv@divisor
  6513     0FD7  3000               	movlw	0
  6514     0FD8  00F1               	movwf	___awdiv@divisor+1
  6515     0FD9  0852               	movf	CalTemperture@temp+1,w
  6516     0FDA  00F3               	movwf	___awdiv@dividend+1
  6517     0FDB  0851               	movf	CalTemperture@temp,w
  6518     0FDC  00F2               	movwf	___awdiv@dividend
  6519     0FDD  3186  26E9  318F   	fcall	___awdiv
  6520     0FE0  0871               	movf	?___awdiv+1,w
  6521     0FE1  0020               	movlb	0	; select bank0
  6522     0FE2  00D2               	movwf	CalTemperture@temp+1
  6523     0FE3  0870               	movf	?___awdiv,w
  6524     0FE4  00D1               	movwf	CalTemperture@temp
  6525     0FE5                     l2859:
  6526                           
  6527                           ;main.c: 213:   if (temp > 99)
  6528     0FE5  0852               	movf	CalTemperture@temp+1,w
  6529     0FE6  3A80               	xorlw	128
  6530     0FE7  00FA               	movwf	??_CalTemperture
  6531     0FE8  3080               	movlw	128
  6532     0FE9  027A               	subwf	??_CalTemperture,w
  6533     0FEA  1D03               	skipz
  6534     0FEB  2FEE               	goto	u2215
  6535     0FEC  3064               	movlw	100
  6536     0FED  0251               	subwf	CalTemperture@temp,w
  6537     0FEE                     u2215:
  6538     0FEE  1C03               	skipc
  6539     0FEF  2FF1               	goto	u2211
  6540     0FF0  2FF2               	goto	u2210
  6541     0FF1                     u2211:
  6542     0FF1  2FF7               	goto	l2863
  6543     0FF2                     u2210:
  6544     0FF2                     l2861:
  6545                           
  6546                           ;main.c: 214:     temp = 99;
  6547     0FF2  3063               	movlw	99
  6548     0FF3  0020               	movlb	0	; select bank0
  6549     0FF4  00D1               	movwf	CalTemperture@temp
  6550     0FF5  3000               	movlw	0
  6551     0FF6  00D2               	movwf	CalTemperture@temp+1
  6552     0FF7                     l2863:
  6553                           
  6554                           ;main.c: 216:   if (temp < 0)
  6555     0FF7  0020               	movlb	0	; select bank0
  6556     0FF8  1FD2               	btfss	CalTemperture@temp+1,7
  6557     0FF9  2FFB               	goto	u2221
  6558     0FFA  2FFC               	goto	u2220
  6559     0FFB                     u2221:
  6560     0FFB  2FFE               	goto	l2867
  6561     0FFC                     u2220:
  6562     0FFC                     l2865:
  6563                           
  6564                           ;main.c: 217:     temp = 0;
  6565     0FFC  01D1               	clrf	CalTemperture@temp
  6566     0FFD  01D2               	clrf	CalTemperture@temp+1
  6567     0FFE                     l2867:
  6568                           
  6569                           ;main.c: 219:   return (temp & 0xff);
  6570     0FFE  0851               	movf	CalTemperture@temp,w
  6571     0FFF                     l723:
  6572     0FFF  0008               	return
  6573     1000                     __end_of_CalTemperture:
  6574                           
  6575                           	psect	text24
  6576     06E9                     __ptext24:	
  6577 ;; *************** function ___awdiv *****************
  6578 ;; Defined at:
  6579 ;;		line 5 in file "C:\Program Files\Microchip\xc8\v3.00\pic\sources\c99\common\awdiv.c"
  6580 ;; Parameters:    Size  Location     Type
  6581 ;;  divisor         2    0[COMMON] int 
  6582 ;;  dividend        2    2[COMMON] int 
  6583 ;; Auto vars:     Size  Location     Type
  6584 ;;  quotient        2    6[COMMON] int 
  6585 ;;  sign            1    5[COMMON] unsigned char 
  6586 ;;  counter         1    4[COMMON] unsigned char 
  6587 ;; Return value:  Size  Location     Type
  6588 ;;                  2    0[COMMON] int 
  6589 ;; Registers used:
  6590 ;;		wreg, status,2, status,0
  6591 ;; Tracked objects:
  6592 ;;		On entry : 0/0
  6593 ;;		On exit  : 0/0
  6594 ;;		Unchanged: 0/0
  6595 ;; Data sizes:     COMMON   BANK0   BANK1   BANK2   BANK3   BANK4   BANK5
  6596 ;;      Params:         4       0       0       0       0       0       0
  6597 ;;      Locals:         4       0       0       0       0       0       0
  6598 ;;      Temps:          0       0       0       0       0       0       0
  6599 ;;      Totals:         8       0       0       0       0       0       0
  6600 ;;Total ram usage:        8 bytes
  6601 ;; Hardware stack levels used: 1
  6602 ;; Hardware stack levels required when called: 3
  6603 ;; This function calls:
  6604 ;;		Nothing
  6605 ;; This function is called by:
  6606 ;;		_CalTemperture
  6607 ;; This function uses a non-reentrant model
  6608 ;;
  6609                           
  6610     06E9                     ___awdiv:	
  6611                           ;psect for function ___awdiv
  6612                           
  6613     06E9                     l2593:	
  6614                           ;incstack = 0
  6615                           ; Regs used in ___awdiv: [wreg+status,2+status,0]
  6616                           
  6617     06E9  01F5               	clrf	___awdiv@sign
  6618     06EA                     l2595:
  6619     06EA  1FF1               	btfss	___awdiv@divisor+1,7
  6620     06EB  2EED               	goto	u1671
  6621     06EC  2EEE               	goto	u1670
  6622     06ED                     u1671:
  6623     06ED  2EF5               	goto	l2601
  6624     06EE                     u1670:
  6625     06EE                     l2597:
  6626     06EE  09F0               	comf	___awdiv@divisor,f
  6627     06EF  09F1               	comf	___awdiv@divisor+1,f
  6628     06F0  0AF0               	incf	___awdiv@divisor,f
  6629     06F1  1903               	skipnz
  6630     06F2  0AF1               	incf	___awdiv@divisor+1,f
  6631     06F3                     l2599:
  6632     06F3  3001               	movlw	1
  6633     06F4  00F5               	movwf	___awdiv@sign
  6634     06F5                     l2601:
  6635     06F5  1FF3               	btfss	___awdiv@dividend+1,7
  6636     06F6  2EF8               	goto	u1681
  6637     06F7  2EF9               	goto	u1680
  6638     06F8                     u1681:
  6639     06F8  2F00               	goto	l2607
  6640     06F9                     u1680:
  6641     06F9                     l2603:
  6642     06F9  09F2               	comf	___awdiv@dividend,f
  6643     06FA  09F3               	comf	___awdiv@dividend+1,f
  6644     06FB  0AF2               	incf	___awdiv@dividend,f
  6645     06FC  1903               	skipnz
  6646     06FD  0AF3               	incf	___awdiv@dividend+1,f
  6647     06FE                     l2605:
  6648     06FE  3001               	movlw	1
  6649     06FF  06F5               	xorwf	___awdiv@sign,f
  6650     0700                     l2607:
  6651     0700  01F6               	clrf	___awdiv@quotient
  6652     0701  01F7               	clrf	___awdiv@quotient+1
  6653     0702                     l2609:
  6654     0702  0870               	movf	___awdiv@divisor,w
  6655     0703  0471               	iorwf	___awdiv@divisor+1,w
  6656     0704  1903               	btfsc	3,2
  6657     0705  2F07               	goto	u1691
  6658     0706  2F08               	goto	u1690
  6659     0707                     u1691:
  6660     0707  2F35               	goto	l2629
  6661     0708                     u1690:
  6662     0708                     l2611:
  6663     0708  3001               	movlw	1
  6664     0709  00F4               	movwf	___awdiv@counter
  6665     070A  2F12               	goto	l2617
  6666     070B                     l2613:
  6667     070B  3001               	movlw	1
  6668     070C                     u1705:
  6669     070C  35F0               	lslf	___awdiv@divisor,f
  6670     070D  0DF1               	rlf	___awdiv@divisor+1,f
  6671     070E  0B89               	decfsz	9,f
  6672     070F  2F0C               	goto	u1705
  6673     0710                     l2615:
  6674     0710  3001               	movlw	1
  6675     0711  07F4               	addwf	___awdiv@counter,f
  6676     0712                     l2617:
  6677     0712  1FF1               	btfss	___awdiv@divisor+1,7
  6678     0713  2F15               	goto	u1711
  6679     0714  2F16               	goto	u1710
  6680     0715                     u1711:
  6681     0715  2F0B               	goto	l2613
  6682     0716                     u1710:
  6683     0716                     l2619:
  6684     0716  3001               	movlw	1
  6685     0717                     u1725:
  6686     0717  35F6               	lslf	___awdiv@quotient,f
  6687     0718  0DF7               	rlf	___awdiv@quotient+1,f
  6688     0719  0B89               	decfsz	9,f
  6689     071A  2F17               	goto	u1725
  6690     071B  0871               	movf	___awdiv@divisor+1,w
  6691     071C  0273               	subwf	___awdiv@dividend+1,w
  6692     071D  1D03               	skipz
  6693     071E  2F21               	goto	u1735
  6694     071F  0870               	movf	___awdiv@divisor,w
  6695     0720  0272               	subwf	___awdiv@dividend,w
  6696     0721                     u1735:
  6697     0721  1C03               	skipc
  6698     0722  2F24               	goto	u1731
  6699     0723  2F25               	goto	u1730
  6700     0724                     u1731:
  6701     0724  2F2A               	goto	l2625
  6702     0725                     u1730:
  6703     0725                     l2621:
  6704     0725  0870               	movf	___awdiv@divisor,w
  6705     0726  02F2               	subwf	___awdiv@dividend,f
  6706     0727  0871               	movf	___awdiv@divisor+1,w
  6707     0728  3BF3               	subwfb	___awdiv@dividend+1,f
  6708     0729                     l2623:
  6709     0729  1476               	bsf	___awdiv@quotient,0
  6710     072A                     l2625:
  6711     072A  3001               	movlw	1
  6712     072B                     u1745:
  6713     072B  36F1               	lsrf	___awdiv@divisor+1,f
  6714     072C  0CF0               	rrf	___awdiv@divisor,f
  6715     072D  0B89               	decfsz	9,f
  6716     072E  2F2B               	goto	u1745
  6717     072F                     l2627:
  6718     072F  3001               	movlw	1
  6719     0730  02F4               	subwf	___awdiv@counter,f
  6720     0731  1D03               	btfss	3,2
  6721     0732  2F34               	goto	u1751
  6722     0733  2F35               	goto	u1750
  6723     0734                     u1751:
  6724     0734  2F16               	goto	l2619
  6725     0735                     u1750:
  6726     0735                     l2629:
  6727     0735  0875               	movf	___awdiv@sign,w
  6728     0736  1903               	btfsc	3,2
  6729     0737  2F39               	goto	u1761
  6730     0738  2F3A               	goto	u1760
  6731     0739                     u1761:
  6732     0739  2F3F               	goto	l2633
  6733     073A                     u1760:
  6734     073A                     l2631:
  6735     073A  09F6               	comf	___awdiv@quotient,f
  6736     073B  09F7               	comf	___awdiv@quotient+1,f
  6737     073C  0AF6               	incf	___awdiv@quotient,f
  6738     073D  1903               	skipnz
  6739     073E  0AF7               	incf	___awdiv@quotient+1,f
  6740     073F                     l2633:
  6741     073F  0877               	movf	___awdiv@quotient+1,w
  6742     0740  00F1               	movwf	?___awdiv+1
  6743     0741  0876               	movf	___awdiv@quotient,w
  6744     0742  00F0               	movwf	?___awdiv
  6745     0743                     l1026:
  6746     0743  0008               	return
  6747     0744                     __end_of___awdiv:
  6748                           
  6749                           	psect	text25
  6750     0E7C                     __ptext25:	
  6751 ;; *************** function _ADC_GetConversion *****************
  6752 ;; Defined at:
  6753 ;;		line 112 in file "mcc_generated_files/adc.c"
  6754 ;; Parameters:    Size  Location     Type
  6755 ;;  channel         1    wreg     enum E2795
  6756 ;; Auto vars:     Size  Location     Type
  6757 ;;  channel         1    3[COMMON] enum E2795
  6758 ;; Return value:  Size  Location     Type
  6759 ;;                  2    0[COMMON] unsigned short 
  6760 ;; Registers used:
  6761 ;;		wreg, status,2, status,0
  6762 ;; Tracked objects:
  6763 ;;		On entry : 0/0
  6764 ;;		On exit  : 0/0
  6765 ;;		Unchanged: 0/0
  6766 ;; Data sizes:     COMMON   BANK0   BANK1   BANK2   BANK3   BANK4   BANK5
  6767 ;;      Params:         2       0       0       0       0       0       0
  6768 ;;      Locals:         1       0       0       0       0       0       0
  6769 ;;      Temps:          1       0       0       0       0       0       0
  6770 ;;      Totals:         4       0       0       0       0       0       0
  6771 ;;Total ram usage:        4 bytes
  6772 ;; Hardware stack levels used: 1
  6773 ;; Hardware stack levels required when called: 3
  6774 ;; This function calls:
  6775 ;;		Nothing
  6776 ;; This function is called by:
  6777 ;;		_main
  6778 ;; This function uses a non-reentrant model
  6779 ;;
  6780                           
  6781     0E7C                     _ADC_GetConversion:	
  6782                           ;psect for function _ADC_GetConversion
  6783                           
  6784                           
  6785                           ;incstack = 0
  6786                           ; Regs used in _ADC_GetConversion: [wreg+status,2+status,0]
  6787                           ;ADC_GetConversion@channel stored from wreg
  6788     0E7C  00F3               	movwf	ADC_GetConversion@channel
  6789     0E7D                     l2839:
  6790                           
  6791                           ;mcc_generated_files/adc.c: 112: adc_result_t ADC_GetConversion(adc_channel_t channel);m
      +                          cc_generated_files/adc.c: 113: {;mcc_generated_files/adc.c: 115:     ADCON0bits.CHS = ch
      +                          annel;
  6792     0E7D  0873               	movf	ADC_GetConversion@channel,w
  6793     0E7E  00F2               	movwf	??_ADC_GetConversion
  6794     0E7F  0DF2               	rlf	??_ADC_GetConversion,f
  6795     0E80  0DF2               	rlf	??_ADC_GetConversion,f
  6796     0E81  0021               	movlb	1	; select bank1
  6797     0E82  081D               	movf	29,w	;volatile
  6798     0E83  0672               	xorwf	??_ADC_GetConversion,w
  6799     0E84  3983               	andlw	-125
  6800     0E85  0672               	xorwf	??_ADC_GetConversion,w
  6801     0E86  009D               	movwf	29	;volatile
  6802     0E87                     l2841:
  6803                           
  6804                           ;mcc_generated_files/adc.c: 118:     ADCON0bits.ADON = 1;
  6805     0E87  141D               	bsf	29,0	;volatile
  6806     0E88                     l2843:
  6807                           
  6808                           ;mcc_generated_files/adc.c: 121:     _delay((unsigned long)((5)*(16000000/4000000.0)));
  6809     0E88  3006               	movlw	6
  6810     0E89                     u2487:
  6811     0E89  0B89               	decfsz	9,f
  6812     0E8A  2E89               	goto	u2487
  6813     0E8B  3200               	nop2
  6814     0E8C                     l2845:
  6815                           
  6816                           ;mcc_generated_files/adc.c: 124:     ADCON0bits.GO_nDONE = 1;
  6817     0E8C  0021               	movlb	1	; select bank1
  6818     0E8D  149D               	bsf	29,1	;volatile
  6819     0E8E                     l499:	
  6820                           ;mcc_generated_files/adc.c: 128:     {;mcc_generated_files/adc.c: 129:     }
  6821                           
  6822                           
  6823                           ;mcc_generated_files/adc.c: 127:     while (ADCON0bits.GO_nDONE)
  6824     0E8E  189D               	btfsc	29,1	;volatile
  6825     0E8F  2E91               	goto	u2201
  6826     0E90  2E92               	goto	u2200
  6827     0E91                     u2201:
  6828     0E91  2E8E               	goto	l499
  6829     0E92                     u2200:
  6830     0E92                     l2847:
  6831                           
  6832                           ;mcc_generated_files/adc.c: 132:     return ((adc_result_t)((ADRESH << 8) + ADRESL));
  6833     0E92  081C               	movf	28,w	;volatile
  6834     0E93  00F1               	movwf	?_ADC_GetConversion+1
  6835     0E94  081B               	movf	27,w	;volatile
  6836     0E95  00F0               	movwf	?_ADC_GetConversion
  6837     0E96                     l502:
  6838     0E96  0008               	return
  6839     0E97                     __end_of_ADC_GetConversion:
  6840                           
  6841                           	psect	intentry
  6842     0004                     __pintentry:	
  6843 ;; *************** function _INTERRUPT_InterruptManager *****************
  6844 ;; Defined at:
  6845 ;;		line 52 in file "mcc_generated_files/interrupt_manager.c"
  6846 ;; Parameters:    Size  Location     Type
  6847 ;;		None
  6848 ;; Auto vars:     Size  Location     Type
  6849 ;;		None
  6850 ;; Return value:  Size  Location     Type
  6851 ;;                  1    wreg      void 
  6852 ;; Registers used:
  6853 ;;		wreg, status,2, status,0, pclath, cstack
  6854 ;; Tracked objects:
  6855 ;;		On entry : 0/0
  6856 ;;		On exit  : 0/0
  6857 ;;		Unchanged: 0/0
  6858 ;; Data sizes:     COMMON   BANK0   BANK1   BANK2   BANK3   BANK4   BANK5
  6859 ;;      Params:         0       0       0       0       0       0       0
  6860 ;;      Locals:         0       0       0       0       0       0       0
  6861 ;;      Temps:          0       0       0       0       0       0       0
  6862 ;;      Totals:         0       0       0       0       0       0       0
  6863 ;;Total ram usage:        0 bytes
  6864 ;; Hardware stack levels used: 1
  6865 ;; Hardware stack levels required when called: 2
  6866 ;; This function calls:
  6867 ;;		_TMR0_ISR
  6868 ;; This function is called by:
  6869 ;;		Interrupt level 1
  6870 ;; This function uses a non-reentrant model
  6871 ;;
  6872                           
  6873     0004                     _INTERRUPT_InterruptManager:
  6874                           
  6875                           ;incstack = 0
  6876     0004  147E               	bsf	int$flags,0	;set compiler interrupt flag (level 1)
  6877                           
  6878                           ; Regs used in _INTERRUPT_InterruptManager: [wreg+status,2+status,0+pclath+cstack]
  6879     0005  3180               	pagesel	$
  6880     0006                     i1l2893:
  6881                           
  6882                           ;mcc_generated_files/interrupt_manager.c: 55:     if(INTCONbits.TMR0IE == 1 && INTCONbit
      +                          s.TMR0IF == 1)
  6883     0006  1E8B               	btfss	11,5	;volatile
  6884     0007  2809               	goto	u230_21
  6885     0008  280A               	goto	u230_20
  6886     0009                     u230_21:
  6887     0009  2811               	goto	i1l404
  6888     000A                     u230_20:
  6889     000A                     i1l2895:
  6890     000A  1D0B               	btfss	11,2	;volatile
  6891     000B  280D               	goto	u231_21
  6892     000C  280E               	goto	u231_20
  6893     000D                     u231_21:
  6894     000D  2811               	goto	i1l404
  6895     000E                     u231_20:
  6896     000E                     i1l2897:
  6897                           
  6898                           ;mcc_generated_files/interrupt_manager.c: 56:     {;mcc_generated_files/interrupt_manage
      +                          r.c: 57:         TMR0_ISR();
  6899     000E  318E  2659  3180   	fcall	_TMR0_ISR
  6900     0011                     i1l404:	
  6901                           ;mcc_generated_files/interrupt_manager.c: 58:     }
  6902                           
  6903     0011  107E               	bcf	int$flags,0	;clear compiler interrupt flag (level 1)
  6904     0012  0009               	retfie
  6905     0013                     __end_of_INTERRUPT_InterruptManager:
  6906                           
  6907                           	psect	text27
  6908     0E59                     __ptext27:	
  6909 ;; *************** function _TMR0_ISR *****************
  6910 ;; Defined at:
  6911 ;;		line 108 in file "mcc_generated_files/tmr0.c"
  6912 ;; Parameters:    Size  Location     Type
  6913 ;;		None
  6914 ;; Auto vars:     Size  Location     Type
  6915 ;;		None
  6916 ;; Return value:  Size  Location     Type
  6917 ;;                  1    wreg      void 
  6918 ;; Registers used:
  6919 ;;		wreg, status,2, status,0, pclath, cstack
  6920 ;; Tracked objects:
  6921 ;;		On entry : 0/0
  6922 ;;		On exit  : 0/0
  6923 ;;		Unchanged: 0/0
  6924 ;; Data sizes:     COMMON   BANK0   BANK1   BANK2   BANK3   BANK4   BANK5
  6925 ;;      Params:         0       0       0       0       0       0       0
  6926 ;;      Locals:         0       0       0       0       0       0       0
  6927 ;;      Temps:          0       0       0       0       0       0       0
  6928 ;;      Totals:         0       0       0       0       0       0       0
  6929 ;;Total ram usage:        0 bytes
  6930 ;; Hardware stack levels used: 1
  6931 ;; Hardware stack levels required when called: 1
  6932 ;; This function calls:
  6933 ;;		NULL
  6934 ;;		_TMR0_timerHandler
  6935 ;; This function is called by:
  6936 ;;		_INTERRUPT_InterruptManager
  6937 ;; This function uses a non-reentrant model
  6938 ;;
  6939                           
  6940     0E59                     _TMR0_ISR:	
  6941                           ;psect for function _TMR0_ISR
  6942                           
  6943     0E59                     i1l2825:	
  6944                           ;incstack = 0
  6945                           ; Regs used in _TMR0_ISR: [wreg+status,2+status,0+pclath+cstack]
  6946                           
  6947                           
  6948                           ;mcc_generated_files/tmr0.c: 112:     INTCONbits.TMR0IF = 0;
  6949     0E59  110B               	bcf	11,2	;volatile
  6950     0E5A                     i1l2827:
  6951                           
  6952                           ;mcc_generated_files/tmr0.c: 114:     TMR0 = timer0ReloadVal;
  6953     0E5A  087D               	movf	_timer0ReloadVal,w	;volatile
  6954     0E5B  0020               	movlb	0	; select bank0
  6955     0E5C  0095               	movwf	21	;volatile
  6956     0E5D                     i1l2829:
  6957                           
  6958                           ;mcc_generated_files/tmr0.c: 116:     if(TMR0_InterruptHandler)
  6959     0E5D  0863               	movf	_TMR0_InterruptHandler,w
  6960     0E5E  0464               	iorwf	_TMR0_InterruptHandler+1,w
  6961     0E5F  1903               	btfsc	3,2
  6962     0E60  2E62               	goto	u219_21
  6963     0E61  2E63               	goto	u219_20
  6964     0E62                     u219_21:
  6965     0E62  2E68               	goto	i1l432
  6966     0E63                     u219_20:
  6967     0E63                     i1l2831:
  6968                           
  6969                           ;mcc_generated_files/tmr0.c: 117:     {;mcc_generated_files/tmr0.c: 118:         TMR0_In
      +                          terruptHandler();
  6970     0E63  0864               	movf	_TMR0_InterruptHandler+1,w
  6971     0E64  008A               	movwf	10
  6972     0E65  0863               	movf	_TMR0_InterruptHandler,w
  6973     0E66  000A               	callw
  6974     0E67  318E               	pagesel	$
  6975     0E68                     i1l432:
  6976     0E68  0008               	return
  6977     0E69                     __end_of_TMR0_ISR:
  6978                           
  6979                           	psect	text28
  6980     0EF4                     __ptext28:	
  6981 ;; *************** function _TMR0_timerHandler *****************
  6982 ;; Defined at:
  6983 ;;		line 165 in file "main.c"
  6984 ;; Parameters:    Size  Location     Type
  6985 ;;		None
  6986 ;; Auto vars:     Size  Location     Type
  6987 ;;		None
  6988 ;; Return value:  Size  Location     Type
  6989 ;;                  1    wreg      void 
  6990 ;; Registers used:
  6991 ;;		wreg, status,2, status,0
  6992 ;; Tracked objects:
  6993 ;;		On entry : 0/0
  6994 ;;		On exit  : 0/0
  6995 ;;		Unchanged: 0/0
  6996 ;; Data sizes:     COMMON   BANK0   BANK1   BANK2   BANK3   BANK4   BANK5
  6997 ;;      Params:         0       0       0       0       0       0       0
  6998 ;;      Locals:         0       0       0       0       0       0       0
  6999 ;;      Temps:          0       0       0       0       0       0       0
  7000 ;;      Totals:         0       0       0       0       0       0       0
  7001 ;;Total ram usage:        0 bytes
  7002 ;; Hardware stack levels used: 1
  7003 ;; This function calls:
  7004 ;;		Nothing
  7005 ;; This function is called by:
  7006 ;;		_main
  7007 ;;		_TMR0_ISR
  7008 ;; This function uses a non-reentrant model
  7009 ;;
  7010                           
  7011     0EF4                     _TMR0_timerHandler:	
  7012                           ;psect for function _TMR0_timerHandler
  7013                           
  7014     0EF4                     i1l2577:	
  7015                           ;incstack = 0
  7016                           ; Regs used in _TMR0_timerHandler: [wreg+status,2+status,0]
  7017                           
  7018                           
  7019                           ;main.c: 168:   milliSeconds++;
  7020     0EF4  3001               	movlw	1
  7021     0EF5  0020               	movlb	0	; select bank0
  7022     0EF6  07B0               	addwf	_milliSeconds,f
  7023     0EF7  3000               	movlw	0
  7024     0EF8  3DB1               	addwfc	_milliSeconds+1,f
  7025     0EF9  3DB2               	addwfc	_milliSeconds+2,f
  7026     0EFA  3DB3               	addwfc	_milliSeconds+3,f
  7027     0EFB                     i1l2579:
  7028                           
  7029                           ;main.c: 169:   t500ms++;
  7030     0EFB  3001               	movlw	1
  7031     0EFC  07B6               	addwf	_t500ms,f
  7032     0EFD  3000               	movlw	0
  7033     0EFE  3DB7               	addwfc	_t500ms+1,f
  7034     0EFF                     i1l2581:
  7035                           
  7036                           ;main.c: 170:   t250ms++;
  7037     0EFF  3001               	movlw	1
  7038     0F00  07B8               	addwf	_t250ms,f
  7039     0F01  3000               	movlw	0
  7040     0F02  3DB9               	addwfc	_t250ms+1,f
  7041     0F03                     i1l2583:
  7042                           
  7043                           ;main.c: 171:   t1000ms++;
  7044     0F03  3001               	movlw	1
  7045     0F04  07B4               	addwf	_t1000ms,f
  7046     0F05  3000               	movlw	0
  7047     0F06  3DB5               	addwfc	_t1000ms+1,f
  7048     0F07                     i1l2585:
  7049                           
  7050                           ;main.c: 172:   if (t250ms > 250) {
  7051     0F07  3000               	movlw	0
  7052     0F08  0239               	subwf	_t250ms+1,w
  7053     0F09  30FB               	movlw	251
  7054     0F0A  1903               	skipnz
  7055     0F0B  0238               	subwf	_t250ms,w
  7056     0F0C  1C03               	skipc
  7057     0F0D  2F0F               	goto	u165_21
  7058     0F0E  2F10               	goto	u165_20
  7059     0F0F                     u165_21:
  7060     0F0F  2F12               	goto	i1l2589
  7061     0F10                     u165_20:
  7062     0F10                     i1l2587:
  7063                           
  7064                           ;main.c: 173:     t250ms = 0;
  7065     0F10  01B8               	clrf	_t250ms
  7066     0F11  01B9               	clrf	_t250ms+1
  7067     0F12                     i1l2589:
  7068                           
  7069                           ;main.c: 177:   if (t500ms > 500) {
  7070     0F12  3001               	movlw	1
  7071     0F13  0237               	subwf	_t500ms+1,w
  7072     0F14  30F5               	movlw	245
  7073     0F15  1903               	skipnz
  7074     0F16  0236               	subwf	_t500ms,w
  7075     0F17  1C03               	skipc
  7076     0F18  2F1A               	goto	u166_21
  7077     0F19  2F1B               	goto	u166_20
  7078     0F1A                     u166_21:
  7079     0F1A  2F1D               	goto	i1l704
  7080     0F1B                     u166_20:
  7081     0F1B                     i1l2591:
  7082                           
  7083                           ;main.c: 178:     t500ms = 0;
  7084     0F1B  01B6               	clrf	_t500ms
  7085     0F1C  01B7               	clrf	_t500ms+1
  7086     0F1D                     i1l704:
  7087     0F1D  0008               	return
  7088     0F1E                     __end_of_TMR0_timerHandler:
  7089     0002                     ___latbits      equ	2
  7090     007E                     btemp           set	126	;btemp
  7091     007E                     int$flags       set	126
  7092     007E                     wtemp0          set	126
  7093                           
  7094                           	psect	config
  7095                           
  7096                           ;Config register CONFIG1 @ 0x8007
  7097                           ;	Oscillator Selection
  7098                           ;	FOSC = INTOSC, INTOSC oscillator: I/O function on CLKIN pin
  7099                           ;	Watchdog Timer Enable
  7100                           ;	WDTE = OFF, WDT disabled
  7101                           ;	Power-up Timer Enable
  7102                           ;	PWRTE = OFF, PWRT disabled
  7103                           ;	MCLR Pin Function Select
  7104                           ;	MCLRE = ON, MCLR/VPP pin function is MCLR
  7105                           ;	Flash Program Memory Code Protection
  7106                           ;	CP = OFF, Program memory code protection is disabled
  7107                           ;	Data Memory Code Protection
  7108                           ;	CPD = OFF, Data memory code protection is disabled
  7109                           ;	Brown-out Reset Enable
  7110                           ;	BOREN = ON, Brown-out Reset enabled
  7111                           ;	Clock Out Enable
  7112                           ;	CLKOUTEN = OFF, CLKOUT function is disabled. I/O or oscillator function on the CLKOUT 
      +                          pin
  7113                           ;	Internal/External Switchover
  7114                           ;	IESO = ON, Internal/External Switchover mode is enabled
  7115                           ;	Fail-Safe Clock Monitor Enable
  7116                           ;	FCMEN = ON, Fail-Safe Clock Monitor is enabled
  7117     8007                     	org	32775
  7118     8007  3FE4               	dw	16356
  7119                           
  7120                           ;Config register CONFIG2 @ 0x8008
  7121                           ;	Flash Memory Self-Write Protection
  7122                           ;	WRT = OFF, Write protection off
  7123                           ;	Voltage Regulator Capacitor Enable
  7124                           ;	VCAPEN = OFF, All VCAP pin functionality is disabled
  7125                           ;	PLL Enable
  7126                           ;	PLLEN = OFF, 4x PLL disabled
  7127                           ;	Stack Overflow/Underflow Reset Enable
  7128                           ;	STVREN = ON, Stack Overflow or Underflow will cause a Reset
  7129                           ;	Brown-out Reset Voltage Selection
  7130                           ;	BORV = LO, Brown-out Reset Voltage (Vbor), low trip point selected.
  7131                           ;	Low-Voltage Programming Enable
  7132                           ;	LVP = OFF, High-voltage on MCLR/VPP must be used for programming
  7133     8008                     	org	32776
  7134     8008  1EFF               	dw	7935

Data Sizes:
    Strings     0
    Constant    0
    Data        14
    BSS         35
    Persistent  43
    Stack       0

Auto Spaces:
    Space          Size  Autos    Used
    COMMON           14     12      14
    BANK0            80     12      70
    BANK1            80      0       0
    BANK2            80      0       0
    BANK3            80      0       0
    BANK4            80      0       0
    BANK5            80      0       0

Pointer List with Targets:

    ADC_InterruptHandler	PTR FTN()void  size(2) Largest target is 1
		 -> NULL(), 

    EUSART_ErrorHandler	PTR FTN()void  size(2) Largest target is 1
		 -> EUSART_DefaultErrorHandler(), NULL(), 

    EUSART_FramingErrorHandler	PTR FTN()void  size(2) Largest target is 1
		 -> EUSART_DefaultFramingErrorHandler(), NULL(), 

    EUSART_OverrunErrorHandler	PTR FTN()void  size(2) Largest target is 1
		 -> EUSART_DefaultOverrunErrorHandler(), NULL(), 

    EUSART_SetErrorHandler@interruptHandler	PTR FTN()void  size(2) Largest target is 1
		 -> EUSART_DefaultErrorHandler(), 

    EUSART_SetFramingErrorHandler@interruptHandler	PTR FTN()void  size(2) Largest target is 1
		 -> EUSART_DefaultFramingErrorHandler(), 

    EUSART_SetOverrunErrorHandler@interruptHandler	PTR FTN()void  size(2) Largest target is 1
		 -> EUSART_DefaultOverrunErrorHandler(), 

    TMR0_InterruptHandler	PTR FTN()void  size(2) Largest target is 1
		 -> TMR0_timerHandler(), NULL(), 

    TMR0_SetInterruptHandler@InterruptHandler	PTR FTN()void  size(2) Largest target is 1
		 -> TMR0_timerHandler(), NULL(), 


Critical Paths under _main in COMMON

    _main->_CalTemperture
    _keyDebounce->_getTime_ms
    _disp_sub->___lwdiv
    _disp_sub->_disp_7seg
    _disp_7seg->_SSD
    _SSD->_SSLED
    _TMR0_Initialize->_TMR0_SetInterruptHandler
    _EUSART_Initialize->_EUSART_SetErrorHandler
    _EUSART_Initialize->_EUSART_SetFramingErrorHandler
    _EUSART_Initialize->_EUSART_SetOverrunErrorHandler
    _CalTemperture->___awdiv

Critical Paths under _INTERRUPT_InterruptManager in COMMON

    None.

Critical Paths under _main in BANK0

    _main->_disp_sub

Critical Paths under _INTERRUPT_InterruptManager in BANK0

    None.

Critical Paths under _main in BANK1

    None.

Critical Paths under _INTERRUPT_InterruptManager in BANK1

    None.

Critical Paths under _main in BANK2

    None.

Critical Paths under _INTERRUPT_InterruptManager in BANK2

    None.

Critical Paths under _main in BANK3

    None.

Critical Paths under _INTERRUPT_InterruptManager in BANK3

    None.

Critical Paths under _main in BANK4

    None.

Critical Paths under _INTERRUPT_InterruptManager in BANK4

    None.

Critical Paths under _main in BANK5

    None.

Critical Paths under _INTERRUPT_InterruptManager in BANK5

    None.

Call Graph Tables:

 ---------------------------------------------------------------------------------
 (Depth) Function   	        Calls       Base Space   Used Autos Params    Refs
 ---------------------------------------------------------------------------------
 (0) _main                                                 4     4      0    4723
                                              8 BANK0      4     4      0
                  _ADC_GetConversion
                      _CalTemperture
                  _SYSTEM_Initialize
           _TMR0_SetInterruptHandler
               _chkeckPressKeyNumber
                           _disp_sub
                         _getTime_ms
                        _keyDebounce
 ---------------------------------------------------------------------------------
 (1) _keyDebounce                                         11    11      0     667
                                              4 COMMON     4     4      0
                                              0 BANK0      7     7      0
                         _getTime_ms
 ---------------------------------------------------------------------------------
 (2) _getTime_ms                                           4     0      4       0
                                              0 COMMON     4     0      4
 ---------------------------------------------------------------------------------
 (1) _disp_sub                                            11    10      1    3421
                                              7 COMMON     3     2      1
                                              0 BANK0      8     8      0
                            ___awmod
                            ___lwdiv
                            ___lwmod
                          _disp_7seg
 ---------------------------------------------------------------------------------
 (2) _disp_7seg                                            3     1      2    2541
                                              4 COMMON     3     1      2
                                _SSD
 ---------------------------------------------------------------------------------
 (3) _SSD                                                  2     1      1    2466
                                              2 COMMON     2     1      1
                              _SSLED
 ---------------------------------------------------------------------------------
 (4) _SSLED                                                2     1      1     713
                                              0 COMMON     2     1      1
                        _LED_DISABLE
 ---------------------------------------------------------------------------------
 (5) _LED_DISABLE                                          0     0      0       0
 ---------------------------------------------------------------------------------
 (2) ___lwmod                                              5     1      4     161
                                              0 COMMON     5     1      4
 ---------------------------------------------------------------------------------
 (2) ___lwdiv                                              7     3      4     164
                                              0 COMMON     7     3      4
 ---------------------------------------------------------------------------------
 (2) ___awmod                                              6     2      4     298
                                              0 COMMON     6     2      4
 ---------------------------------------------------------------------------------
 (1) _chkeckPressKeyNumber                                 1     1      0      26
                                              0 COMMON     1     1      0
 ---------------------------------------------------------------------------------
 (1) _SYSTEM_Initialize                                    0     0      0      93
                     _ADC_Initialize
                  _EUSART_Initialize
              _OSCILLATOR_Initialize
             _PIN_MANAGER_Initialize
                    _TMR0_Initialize
                     _WDT_Initialize
 ---------------------------------------------------------------------------------
 (2) _WDT_Initialize                                       0     0      0       0
 ---------------------------------------------------------------------------------
 (2) _TMR0_Initialize                                      0     0      0      24
           _TMR0_SetInterruptHandler
 ---------------------------------------------------------------------------------
 (1) _TMR0_SetInterruptHandler                             2     0      2      24
                                              0 COMMON     2     0      2
 ---------------------------------------------------------------------------------
 (2) _PIN_MANAGER_Initialize                               0     0      0       0
 ---------------------------------------------------------------------------------
 (2) _OSCILLATOR_Initialize                                0     0      0       0
 ---------------------------------------------------------------------------------
 (2) _EUSART_Initialize                                    0     0      0      69
             _EUSART_SetErrorHandler
      _EUSART_SetFramingErrorHandler
      _EUSART_SetOverrunErrorHandler
 ---------------------------------------------------------------------------------
 (3) _EUSART_SetOverrunErrorHandler                        2     0      2      23
                                              0 COMMON     2     0      2
 ---------------------------------------------------------------------------------
 (3) _EUSART_SetFramingErrorHandler                        2     0      2      23
                                              0 COMMON     2     0      2
 ---------------------------------------------------------------------------------
 (3) _EUSART_SetErrorHandler                               2     0      2      23
                                              0 COMMON     2     0      2
 ---------------------------------------------------------------------------------
 (2) _ADC_Initialize                                       0     0      0       0
 ---------------------------------------------------------------------------------
 (1) _CalTemperture                                        8     6      2     463
                                              8 COMMON     4     2      2
                                              0 BANK0      4     4      0
                            ___awdiv
 ---------------------------------------------------------------------------------
 (2) ___awdiv                                              8     4      4     302
                                              0 COMMON     8     4      4
 ---------------------------------------------------------------------------------
 (1) _ADC_GetConversion                                    4     2      2      29
                                              0 COMMON     4     2      2
 ---------------------------------------------------------------------------------
 Estimated maximum stack depth 5
 ---------------------------------------------------------------------------------
 (Depth) Function   	        Calls       Base Space   Used Autos Params    Refs
 ---------------------------------------------------------------------------------
 (6) _INTERRUPT_InterruptManager                           0     0      0       0
                           _TMR0_ISR
 ---------------------------------------------------------------------------------
 (7) _TMR0_ISR                                             0     0      0       0
                                NULL *
                  _TMR0_timerHandler *
 ---------------------------------------------------------------------------------
 (8) _TMR0_timerHandler                                    0     0      0       0
 ---------------------------------------------------------------------------------
 (8) NULL(Fake)                                            0     0      0       0
 ---------------------------------------------------------------------------------
 Estimated maximum stack depth 8
 ---------------------------------------------------------------------------------

 Call Graph Graphs:

 _main (ROOT)
   _ADC_GetConversion
   _CalTemperture
     ___awdiv
   _SYSTEM_Initialize
     _ADC_Initialize
     _EUSART_Initialize
       _EUSART_SetErrorHandler
       _EUSART_SetFramingErrorHandler
       _EUSART_SetOverrunErrorHandler
     _OSCILLATOR_Initialize
     _PIN_MANAGER_Initialize
     _TMR0_Initialize
       _TMR0_SetInterruptHandler
     _WDT_Initialize
   _TMR0_SetInterruptHandler
   _chkeckPressKeyNumber
   _disp_sub
     ___awmod
     ___lwdiv
     ___lwmod
     _disp_7seg
       _SSD
         _SSLED
           _LED_DISABLE
   _getTime_ms
   _keyDebounce
     _getTime_ms

 _INTERRUPT_InterruptManager (ROOT)
   _TMR0_ISR
     NULL(Fake) *
     _TMR0_timerHandler *

Address spaces:
Name               Size   Autos  Total    Usage
BITCOMMON           14      0       0      0.0%
BITBANK0            80      0       0      0.0%
BITBANK1            80      0       0      0.0%
BITBANK2            80      0       0      0.0%
BITBANK3            80      0       0      0.0%
BITBANK4            80      0       0      0.0%
BITBANK5            80      0       0      0.0%
BIGRAM             480      0       0      0.0%
COMMON              14     12      14    100.0%
BANK0               80     12      70     87.5%
BANK1               80      0       0      0.0%
BANK2               80      0       0      0.0%
BANK3               80      0       0      0.0%
BANK4               80      0       0      0.0%
BANK5               80      0       0      0.0%
STACK                0      0       0      0.0%
DATA                 0      0      84      0.0%


Microchip Technology PIC Macro Assembler V3.00 build 20241204225717 
Symbol Table                                                                                   Fri Jun 06 17:40:59 2025

                            _SW3_LongPressTime 0041                                             l20 079A  
                                           l30 0E3C                                             l23 0ED1  
                                           l32 0E3D                                             l17 0772  
                                           l34 0E3E                                             l26 0E39  
                                           l36 0E3F                                             l28 0E3B  
                                           l38 0E40                                   ___awdiv@sign 0075  
                              _timer0ReloadVal 007D                                   ?_keyDebounce 0070  
                                          l121 0505                                            l113 0500  
                                          l131 050B                                            l123 0506  
                                          l115 0502                                            l133 050C  
                                          l125 0507                                            l117 0503  
                                          l135 050D                                            l127 0509  
                                          l119 0504                                            l129 050A  
                                          l323 02DC                                            l502 0E96  
                                          l342 0E4A                                            l329 02DC  
                                          l435 0E1D                                            l419 07FF  
                                          l363 034B                                            l621 0E11  
                                          l461 0E7B                                            l373 03D0  
                                          l365 034A                                            l710 0F6C  
                                          l383 0455                                            l375 03CF  
                                          l624 0E17                                            l464 0E30  
                                          l536 0EB1                                            l385 0454  
                                          l393 0484                                            l723 0FFF  
                                          l627 0E0B                                            l467 0E05  
                                          l707 0F5F                                            l299 061B  
                                          l484 0E38                                            l582 0EF3  
                                          l718 0F83                                            l499 0E8E  
                                          l686 062A                                            _SSD 002F  
               ?_EUSART_SetFramingErrorHandler 0070                                   ___awmod@sign 0075  
                                          wreg 0009                                           ?_SSD 0072  
                                         l1026 0743                                           l1039 07EB  
                                         l1153 0FBD                                           l2201 04B5  
                                         l1163 0F4F                                           l2211 04C3  
                                         l2203 04B6                                           l2301 054F  
                                         l2221 04D0                                           l2213 04C5  
                                         l2205 04B8                                           l2311 055D  
                                         l2303 0550                                           l2223 04D3  
                                         l2231 04DA                                           l2215 04C6  
                                         l2207 04BA                                           l2401 05D5  
                                         l2321 056A                                           l2313 055F  
                                         l2305 0552                                           l2241 04E8  
                                         l2233 04E0                                           l2225 04D5  
                                         l2217 04C8                                           l2209 04C0  
                                         l2411 05E4                                           l2403 05D7  
                                         l2323 056D                                           l2331 0574  
                                         l2315 0560                                           l2307 0554  
                                         l2251 04F6                                           l2235 04E3  
                                         l2243 04EA                                           l2227 04D6  
                                         l2219 04CA                                           l2171 048B  
                                         l2421 05F2                                           l2413 05E5  
                                         l2405 05D9                                           l2341 0582  
                                         l2333 057A                                           l2325 056F  
                                         l2317 0562                                           l2309 055A  
                                         l2261 051A                                           l2253 04F8  
                                         l2245 04F0                                           l2237 04E5  
                                         l2229 04D8                                           l2181 0498  
                                         l2173 0490                                           l2501 024F  
                                         l2511 0E18                                           l2431 05FF  
                                         l2423 05F4                                           l2415 05E7  
                                         l2407 05DF                                           l2351 0590  
                                         l2335 057D                                           l2343 0584  
                                         l2327 0570                                           l2319 0564  
                                         l2263 051D                                           l2271 0524  
                                         l2247 04F3                                           l2255 04FA  
                                         l2239 04E6                                           l2191 04A6  
                                         l2175 0493                                           l2183 049A  
                                         l2503 027A                                           l2601 06F5  
                                         l2513 0E0C                                           l2433 0602  
                                         l2441 0609                                           l2425 05F5  
                                         l2409 05E2                                           l2417 05E9  
                                         l2361 05A2                                           l2353 0592  
                                         l2345 058A                                           l2337 057F  
                                         l2329 0572                                           l2281 0532  
                                         l2273 052A                                           l2265 051F  
                                         l2249 04F5                                           l2193 04A8  
                                         l2185 04A0                                           l2177 0495  
                                         l2257 050F                                           l2169 0486  
                                         l2505 0280                                           l2521 0E41  
                                         l2611 0708                                           l2603 06F9  
                                         l2515 0E12                                           l2531 07F6  
                                         l2451 0617                                           l2443 060F  
                                         l2435 0604                                           l2427 05F7  
                                         l2419 05EF                                           l2371 05AF  
                                         l2363 05A4                                           l2347 058D  
                                         l2339 0580                                           l2291 0540  
                                         l2275 052D                                           l2283 0534  
                                         l2267 0520                                           l2259 0515  
                                         l2355 0594                                           l2187 04A3  
                                         l2195 04AA                                           l2179 0496  
                                         l2507 02AB                                           l2621 0725  
                                         l2613 070B                                           l2605 06FE  
                                         l2517 0E06                                           l2541 0E9F  
                                         l2533 07F7                                           l2525 07EC  
                                         l2701 0F1E                                           l2445 0612  
                                         l2437 0605                                           l2429 05F9  
                                         l2373 05B2                                           l2381 05B9  
                                         l2365 05A5                                           l2357 059A  
                                         l2349 058F                                           l2293 0542  
                                         l2285 053A                                           l2277 052F  
                                         l2269 0522                                           l2197 04B0  
                                         l2189 04A5                                           l2453 0618  
                                         l2509 02B1                                           l2461 0065  
                                         l2631 073A                                           l2623 0729  
                                         l2615 0710                                           l2607 0700  
                                         l2551 0EAD                                           l2543 0EA1  
                                         l2535 07F8                                           l2527 07F1  
                                         l2711 0F32                                           l2703 0F24  
                                         l2447 0614                                           l2439 0607  
                                         l2391 05C7                                           l2383 05BF  
                                         l2375 05B4                                           l2367 05A7  
                                         l2359 059F                                           l2287 053D  
                                         l2295 0544                                           l2279 0530  
                                         l2199 04B3                                           l2471 00F2  
                                         l2463 0090                                           l2455 0030  
                                         l2519 0EB3                                           l2633 073F  
                                         l2625 072A                                           l2617 0712  
                                         l2609 0702                                           l2561 0E34  
                                         l2553 0E2A                                           l2545 0EA3  
                                         l2537 0E97                                           l2529 07F4  
                                         l2641 07A0                                           l2713 0F3C  
                                         l2705 0F27                                           l2449 0615  
                                         l2385 05C2                                           l2393 05C9  
                                         l2377 05B5                                           l2369 05A9  
                                         l2297 054A                                           l2289 053F  
                                         l2481 015A                                           l2473 00F8  
                                         l2465 0096                                           l2457 0035  
                                         l2801 03FF                                           l2627 072F  
                                         l2619 0716                                           l2563 0E36  
                                         l2571 0EE3                                           l2555 0E2D  
                                         l2547 0EA5                                           l2539 0E9C  
                                         l2651 07B6                                           l2643 07A5  
                                         l2715 0F40                                           l2707 0F2C  
                                         l2395 05CF                                           l2387 05C4  
                                         l2379 05B7                                           l2299 054D  
                                         l2491 01E7                                           l2483 0185  
                                         l2475 0123                                           l2467 00C1  
                                         l2459 0060                                           l2731 0780  
                                         l2723 0746                                           l2811 0434  
                                         l2803 0405                                           l2629 0735  
                                         l2573 0EEA                                           l2565 0ED2  
                                         l2549 0EA8                                           l2557 0E02  
                                         l2661 07CE                                           l2653 07B9  
                                         l2645 07A7                                           l2637 079B  
                                         l2717 0F45                                           l2709 0F2E  
                                         l2397 05D2                                           l2389 05C5  
                                         l2493 01ED                                           l2485 018B  
                                         l2477 0129                                           l2469 00C7  
                                         l2741 078C                                           l2733 0782  
                                         l2725 074D                                           l2821 0480  
                                         l2813 0450                                           l2805 040B  
                                         l2559 0E31                                           l2575 0EF1  
                                         l2567 0EDB                                           l2671 07E7  
                                         l2663 07D2                                           l2655 07BE  
                                         l2647 07AB                                           l2639 079C  
                                         l2719 0F4B                                           l2399 05D4  
                                         l2495 0218                                           l2487 01B6  
                                         l2479 0154                                           l2743 0791  
                                         l2727 075B                                           l2823 0482  
                                         l2815 0455                                           l2807 0416  
                                         l2751 02F0                                           l2911 061C  
                                         l2841 0E87                                           l2593 06E9  
                                         l2569 0EDC                                           l2833 0E69  
                                         l2665 07D7                                           l2657 07C0  
                                         l2649 07B0                                           l2681 0F8F  
                                         l2497 021E                                           l2489 01BC  
                                         l2729 0761                                           l2817 045A  
                                         l2809 0430                                           l2761 0326  
                                         l2753 02F6                                           l2745 02DD  
                                         l2921 063F                                           l2913 0626  
                                         l2843 0E88                                           l2595 06EA  
                                         l2851 0FBE                                           l2835 0E75  
                                         l2659 07C4                                           l2667 07DD  
                                         l2691 0FAD                                           l2683 0F94  
                                         l2675 0F84                                           l2499 0249  
                                         l2739 0784                                           l2819 0465  
                                         l2771 035B                                           l2763 032A  
                                         l2755 02FB                                           l2747 02E9  
                                         l2931 065E                                           l2923 064B  
                                         l2915 0627                                           l2845 0E8C  
                                         l2597 06EE                                           l2861 0FF2  
                                         l2853 0FC5                                           l2837 0E78  
                                         l2669 07E2                                           l2693 0FAE  
                                         l2685 0F96                                           l2677 0F86  
                                         l2781 0386                                           l2773 0376  
                                         l2765 0346                                           l2757 0301  
                                         l2749 02EC                                           l2941 066D  
                                         l2933 0660                                           l2925 064E  
                                         l2917 0628                                           l2847 0E92  
                                         l2839 0E7D                                           l2599 06F3  
                                         l2863 0FF7                                           l2855 0FCF  
                                         l2871 0F50                                           l2695 0FB3  
                                         l2687 0F9A                                           l2679 0F8C  
                                         l2791 03D0                                           l2783 0391  
                                         l2775 0378                                           l2767 034B  
                                         l2759 030C                                           l2951 0697  
                                         l2943 066E                                           l2935 0661  
                                         l2927 0654                                           l2919 0629  
                                         l2865 0FFC                                           l2857 0FD5  
                                         l2881 0F6A                                           l2873 0F51  
                                         l2689 0FA9                                           l2697 0FB9  
                                         l2793 03D5                                           l2785 03AB  
                                         l2769 0350                                           l2777 037A  
                                         l2961 06AE                                           l2945 0674  
                                         l2953 06A0                                           l2937 0666  
                                         l2929 0659                                           l2867 0FFE  
                                         l2859 0FE5                                           l2891 0F82  
                                         l2883 0F71                                           l2875 0F57  
                                         l2795 03E0                                           l2787 03AF  
                                         l2779 0380                                           l2963 06B4  
                                         l2955 06A6                                           l2947 068F  
                                         l2939 066B                                           l2971 06DF  
                                         l2885 0F77                                           l2877 0F5D  
                                         l2797 03FB                                           l2789 03CB  
                                         l2965 06CF                                           l2957 06AB  
                                         l2949 0695                                           l2887 0F79  
                                         l2879 0F64                                           l2799 03FD  
                                         l2967 06D4                                           l2959 06AD  
                                         l2889 0F7F                                           l2969 06D6  
                                         u2000 079A                                           u2001 0799  
                                         u2010 02FB                                           u2011 02FA  
                                         u1300 04E0                                           u2100 03CB  
                                         u2020 0301                                           u1301 04DF  
                                         u2101 03CA                                           u2021 0300  
                                         u1310 04F0                                           u2110 03D5  
                                         u2030 0326                                           u1311 04EF  
                                         u2111 03D4                                           u2031 0325  
                                         u2200 0E92                                           u1400 057A  
                                         u1320 0500                                           u1240 048B  
                                         u2120 03FB                                           u2040 0346  
                                         u2201 0E91                                           u1401 0579  
                                         u1321 04FF                                           u1241 048A  
                                         u2121 03FA                                           u2041 0345  
                                         u2210 0FF2                                           u1410 058A  
                                         u1330 0515                                           u1250 0490  
                                         u2130 0405                                           u2050 0350  
                                         u2211 0FF1                                           u1411 0589  
                                         u1331 0514                                           u1251 048F  
                                         u2131 0404                                           u2051 034F  
                                         u2220 0FFC                                           u1500 060F  
                                         u1420 059A                                           u1340 051A  
                                         u1260 04A0                                           u2140 040B  
                                         u2060 0376                                           u2221 0FFB  
                                         u1501 060E                                           u1421 0599  
                                         u1341 0519                                           u1261 049F  
                                         u2141 040A                                           u2061 0375  
                                         _LATA 010C                                           u2230 0F57  
                                         u1430 059F                                           u1350 052A  
                                         u1270 04B0                                           u1510 0035  
                                         u2150 0430                                           u2070 0380  
                                         _LATB 010D                                           u2215 0FEE  
                                         u2231 0F56                                           u1431 059E  
                                         u1351 0529                                           u1271 04AF  
                                         u1511 0034                                           u2151 042F  
                                         u2071 037F                                           _LATC 010E  
                                         u2240 0F5D                                           u1440 05AF  
                                         u1360 053A                                           u1280 04C0  
                                         u1600 01ED                                           u1520 0065  
                                         u2160 0450                                           u2080 0386  
                                         u2400 068F                                           u2241 0F5C  
                                         u1441 05AE                                           u1361 0539  
                                         u1281 04BF                                           u1601 01EC  
                                         u1521 0064                                           u2161 044F  
                                         u2081 0385                                           u2401 068E  
                                         _LATE 0110                                           u2250 0F64  
                                         u1450 05BF                                           u1370 054A  
                                         u1290 04D0                                           u1610 021E  
                                         u1530 0096                                           u2170 045A  
                                         u2090 03AB                                           u2410 0695  
                                         u2251 0F63                                           u1451 05BE  
                                         u1371 0549                                           u1291 04CF  
                                         u1611 021D                                           u1531 0095  
                                         u2171 0459                                           u2091 03AA  
                                         u2411 0694                                           u2260 0F6A  
                                         u1460 05CF                                           u1380 055A  
                                         u1620 024F                                           u1540 00C7  
                                         u2180 0480                                           u2420 06A6  
                                         u2340 0654                                           u2261 0F69  
                                         u1461 05CE                                           u1381 0559  
                                         u1621 024E                                           u1541 00C6  
                                         u2181 047F                                           u2421 06A5  
                                         u2341 0653                                           u1710 0716  
                                         u2270 0F71                                           u1470 05DF  
                                         u1390 056A                                           u1630 0280  
                                         u1550 00F8                                           u2430 06AB  
                                         u2350 0659                                           u1711 0715  
                                         u2271 0F70                                           u1471 05DE  
                                         u1391 0569                                           u1631 027F  
                                         u1551 00F7                                           u2431 06AA  
                                         u2351 0658                                           u2280 0F77  
                                         u1480 05EF                                           u1640 02B1  
                                         u1560 0129                                           u2440 06B4  
                                         u2360 065E                                           u1705 070C  
                                         u2281 0F76                                           u1481 05EE  
                                         u1641 02B0                                           u1561 0128  
                                         u2441 06B3                                           u2361 065D  
                                         u1730 0725                                           u2290 0F7F  
                                         u1810 07C4                                           u1490 05FF  
                                         u1570 015A                                           u2450 06CF  
                                         u2370 0666                                           u1731 0724  
                                         u2291 0F7E                                           u1811 07C3  
                                         u1491 05FE                                           u1571 0159  
                                         u2451 06CE                                           u2371 0665  
                                         u1820 07CE                                           u1900 0FA9  
                                         u1580 018B                                           u2460 06D4  
                                         u2380 066B                                           u1725 0717  
                                         u1821 07CD                                           u1805 07BA  
                                         u1901 0FA8                                           u1581 018A  
                                         u2461 06D3                                           u2381 066A  
                                         u1750 0735                                           u1670 06EE  
                                         u1590 01BC                                           u2390 0674  
                                         u1751 0734                                           u1735 0721  
                                         u1671 06ED                                           u1591 01BB  
                                         u2391 0673                                           u1760 073A  
                                         u1680 06F9                                           u1840 07DD  
                                         u1920 0FB9                                           u1761 0739  
                                         u1745 072B                                           u1681 06F8  
                                         u1841 07DC                                           u1825 07CA  
                                         u1921 0FB8                                           u1905 0FA5  
                                         u1690 0708                                           u1850 07E2  
                                         u1770 07A0                                           u1930 0F24  
                                         u1691 0707                                           u1851 07E1  
                                         u1835 07D3                                           u1771 079F  
                                         u1915 0FAF                                           u1931 0F23  
                                         u1780 07AB                                           u1860 0F8C  
                                         u1781 07AA                                           u1861 0F8B  
                                         u2477 0619                                           u1790 07B6  
                                         u1950 0F32                                           u2487 0E89  
                                         u1791 07B5                                           u1951 0F31  
                                         u1880 0F9A                                           u1960 0F3C  
                                         u1881 0F99                                           u1961 0F3B  
                                         u1945 0F28                                           u1875 0F90  
                                         u1980 0F4B                                           u1981 0F4A  
                                         u1965 0F38                                           u1990 0761  
                                         u1895 0F9B                                           u1975 0F41  
                                         u1991 0760                                           _TMR0 0015  
                                         _WPUB 020D                                           _WPUE 0210  
                                         _main 061C                                           fsr0h 0005  
                                         fsr1h 0007                                           indf0 0000  
                                         fsr0l 0004                                           fsr1l 0006  
                                         btemp 007E                                           start 0013  
                                        ??_SSD 0073                        __end_of_TMR0_Initialize 0800  
                __end_of_OSCILLATOR_Initialize 0E31                                          ?_main 0070  
                                        SSD@xn 0072                                __end_of___awdiv 0744  
                                 disp_sub@temp 0052                                __end_of___awmod 07EC  
                              ___awdiv@divisor 0070                   keyDebounce@SW3_PreviousState 0049  
                              __end_of___lwdiv 0FBE                                          i1l404 0011  
                                        i1l432 0E68                                __end_of___lwmod 0F50  
                                        i1l704 0F1D                                ___awdiv@counter 0074  
                                        _RCREG 0199                                          _RCSTA 019D  
                                        _SSLED 0485                                          _TRISA 008C  
                                        _TRISB 008D                                          _TRISC 008E  
                                        _TRISE 0090                                          _TXREG 019A  
                                        _TXSTA 019E                      ?_TMR0_SetInterruptHandler 0070  
                             __end_of_TMR0_ISR 0E69                                 _WDT_Initialize 0E02  
                                        pclath 000A                    keyDebounce@SW2_PreviousTime 0028  
                                _CalTemperture 0FBE                                          status 0003  
                                        wtemp0 007E                         ??_chkeckPressKeyNumber 0070  
                              __initialization 0015                                   __end_of_main 06E9  
                  ?_INTERRUPT_InterruptManager 0070                                         ??_main 0057  
                                       ?_SSLED 0070                         __end_of_WDT_Initialize 0E06  
            _EUSART_DefaultFramingErrorHandler 0000                                         _ADCON0 009D  
                                       _ADCON1 009E                     _EUSART_OverrunErrorHandler 005F  
                                       SSD@num 0073                              _TMR0_timerHandler 0EF4  
                                       _ADRESH 009C                                         _ADRESL 009B  
                             ___awdiv@dividend 0072                                         _APFCON 011D  
                                       _ANSELA 018C                                         _ANSELB 018D  
                                       _BORCON 0116                                 ?_CalTemperture 0078  
                                       i1l2581 0EFF                                         i1l2591 0F1B  
                                       i1l2583 0F03                                         i1l2831 0E63  
                                       i1l2585 0F07                                         i1l2577 0EF4  
                                       i1l2825 0E59                                         i1l2587 0F10  
                                       i1l2579 0EFB                                         i1l2827 0E5A  
                                       i1l2589 0F12                                         i1l2829 0E5D  
                                       i1l2893 0006                                         i1l2895 000A  
                                       i1l2897 000E                                         u230_20 000A  
                                       u230_21 0009                                         u231_20 000E  
                                       u231_21 000D                             ?_TMR0_timerHandler 0070  
                                       u219_20 0E63                                         u219_21 0E62  
                                       u165_20 0F10                                         u165_21 0F0F  
                                       u166_20 0F1B                                         u166_21 0F1A  
                                       _OSCCON 0099                                         _SPBRGH 019C  
                                       _SPBRGL 019B                                         _WDTCON 0097  
                                       _t250ms 0038                                         _t500ms 0036  
                          ??_TMR0_timerHandler 0070                               __end_of_disp_sub 079B  
                                    ??___awdiv 0074                                      ??___awmod 0074  
                                    ??___lwdiv 0074                                      ??___lwmod 0074  
                             ?_TMR0_Initialize 0070                               ___awdiv@quotient 0076  
                              ___awmod@divisor 0070                                ___awmod@counter 0074  
                   chkeckPressKeyNumber@keyCnt 0070                      __end_of_TMR0_timerHandler 0F1E  
                              ?_WDT_Initialize 0070                       ADC_GetConversion@channel 0073  
     TMR0_SetInterruptHandler@InterruptHandler 0070                              _SYSTEM_Initialize 0E69  
                  keyDebounce@SW3_PreviousTime 0024                        __end_of__initialization 002B  
                           ?_SYSTEM_Initialize 0070                                  __end_of_SSLED 061C  
                               __pcstackCOMMON 0070                                   __pidataBANK0 0E4B  
                          ??_SYSTEM_Initialize 0072                                      ?_TMR0_ISR 0070  
                                   _adc_result 005B                                        ??_SSLED 0071  
                               _OPTION_REGbits 0095                ??_EUSART_SetOverrunErrorHandler 0072  
                              ??_CalTemperture 007A                                _fKeyRelease_SW1 004E  
                              _fKeyRelease_SW2 004D                                _fKeyRelease_SW3 004C  
                    __end_of_SYSTEM_Initialize 0E7C                                     __pbssBANK0 0020  
                         _longPressCurrentTime 0020                                     __pmaintext 061C  
             __end_of_TMR0_SetInterruptHandler 0E1E                                     ??_TMR0_ISR 0070  
                                      SSLED@nu 0071                                        SSLED@xa 0070  
                                   __pintentry 0004                                        _BAUDCON 019F  
                                   _getTime_ms 0E41                                        _OSCTUNE 0098  
                     ??_EUSART_SetErrorHandler 0072                                      ?_disp_sub 0077  
                                      _t1000ms 0034                           _ADC_InterruptHandler 003A  
                            __end_of_disp_7seg 0ED2                                        ___awdiv 06E9  
                                      ___awmod 079B                                        ___lwdiv 0F84  
                                      ___lwmod 0F1E                                        __ptext1 02DD  
                                      __ptext2 0E41                                        __ptext3 0744  
                                      __ptext4 0EB2                                        __ptext5 002F  
                                      __ptext6 0485                                        __ptext7 0E39  
                                      __ptext8 0F1E                                        __ptext9 0F84  
                        _OSCILLATOR_Initialize 0E2A                               ___awmod@dividend 0072  
                     ??_PIN_MANAGER_Initialize 0070                                        _tempCnt 007C  
                                      clrloop0 0E1F                                     ??_disp_sub 0078  
                         end_of_initialization 002B          __end_of_EUSART_SetOverrunErrorHandler 0E18  
                _EUSART_SetOverrunErrorHandler 0E12                                        init_ram 0E24  
                                      initloop 0E25                              _EUSART_Initialize 0ED2  
                           ?_EUSART_Initialize 0070                                      _RCSTAbits 019D  
                                   _temperture 0065                            ??_EUSART_Initialize 0072  
                             ??_WDT_Initialize 0070                       _TMR0_SetInterruptHandler 0E18  
                                  ?_getTime_ms 0070                                      _PORTBbits 000D  
                                    _TRISAbits 008C                                      _TRISCbits 008E  
                       CalTemperture@NTC_Value 0078                      __end_of_EUSART_Initialize 0EF4  
                                    _TXSTAbits 019E                                  ??_LED_DISABLE 0070  
                             _fTooManyKeyPress 003C                     _EUSART_DefaultErrorHandler 0000  
                 keyDebounce@SW1_PreviousState 004B                                 _ADC_Initialize 0E31  
                                ??_keyDebounce 0074                         ?_OSCILLATOR_Initialize 0070  
                          start_initialization 0015                                    __end_of_SSD 02DD  
               ?_EUSART_SetOverrunErrorHandler 0070                     _EUSART_FramingErrorHandler 0061  
                       _EUSART_SetErrorHandler 0E06                            __end_of_LED_DISABLE 0E41  
                       __end_of_ADC_Initialize 0E39                                    __pdataBANK0 0041  
                                  __pbssCOMMON 007C                                      ___latbits 0002  
                                __pcstackBANK0 004F                            __end_of_keyDebounce 0485  
                        __end_of_CalTemperture 1000                          _TMR0_InterruptHandler 0063  
                                    __pnvBANK0 005B                               ___lwdiv@dividend 0072  
                       _PIN_MANAGER_Initialize 0E97                    keyDebounce@SW1_CurrentState 004F  
                                     ?___awdiv 0070                                       ?___awmod 0070  
                                     ?___lwdiv 0070                                       ?___lwmod 0070  
                              ?_ADC_Initialize 0070                                      _disp_7seg 0EB2  
                 ??_INTERRUPT_InterruptManager 0070                                   _milliSeconds 0030  
                             ___lwdiv@quotient 0074                              ??_TMR0_Initialize 0072  
                                     _LATAbits 010C         EUSART_SetErrorHandler@interruptHandler 0070  
                                     _LATCbits 010E                                      clear_ram0 0E1E  
                                  _LED_DISABLE 0E39                              _eusartRxLastError 003D  
                   ??_TMR0_SetInterruptHandler 0072                                       _PIR1bits 0011  
              ??_EUSART_SetFramingErrorHandler 0072                              _SW2_LongPressTime 0045  
                                     _TMR0_ISR 0E59              _EUSART_DefaultOverrunErrorHandler 0000  
                                   ?_disp_7seg 0074                              disp_sub@disp_char 0077  
                            disp_sub@disp_temp 004F                                   ??_getTime_ms 0074  
                                   _ADCON0bits 009D                                    _keyDebounce 02DD  
                                    disp_sub@i 0054                   __end_of_chkeckPressKeyNumber 0F84  
                           __end_of_getTime_ms 0E4B                              _ADC_GetConversion 0E7C  
                  keyDebounce@SW2_CurrentState 0050                        ??_OSCILLATOR_Initialize 0070  
                          _EUSART_ErrorHandler 005D                             ?_ADC_GetConversion 0070  
                 keyDebounce@SW2_PreviousState 004A                            ??_ADC_GetConversion 0072  
                              ___lwdiv@divisor 0070                                ___lwdiv@counter 0076  
                                     __ptext10 079B                                       __ptext11 0F50  
                                     __ptext20 0E0C                                       __ptext12 0E69  
                                     __ptext21 0E06                                       __ptext13 0E02  
                                     __ptext22 0E31                                       __ptext14 07EC  
                                     __ptext23 0FBE                                       __ptext15 0E18  
                                     __ptext24 06E9                                       __ptext16 0E97  
                                     __ptext25 0E7C                                       __ptext17 0E2A  
                                     __ptext18 0ED2                                       __ptext27 0E59  
                                     __ptext19 0E12                                       __ptext28 0EF4  
                                     _disp_sub 0744                                 disp_7seg@char1 0076  
                               disp_7seg@char2 0074                                 disp_7seg@char3 0075  
                    __end_of_ADC_GetConversion 0E97                        ?_EUSART_SetErrorHandler 0070  
EUSART_SetOverrunErrorHandler@interruptHandler 0070                                       int$flags 007E  
                                  ??_disp_7seg 0076             __end_of_INTERRUPT_InterruptManager 0013  
                   _INTERRUPT_InterruptManager 0004          __end_of_EUSART_SetFramingErrorHandler 0E12  
                _EUSART_SetFramingErrorHandler 0E0C                                     _INTCONbits 000B  
                                     intlevel1 0000                               ___lwmod@dividend 0072  
                      ?_PIN_MANAGER_Initialize 0070                 __end_of_EUSART_SetErrorHandler 0E0C  
                             ??_ADC_Initialize 0070                           _chkeckPressKeyNumber 0F50  
                     disp_sub@display_digital1 0056                       disp_sub@display_digital2 0050  
                     disp_sub@display_digital3 0051                    keyDebounce@SW3_CurrentState 0051  
EUSART_SetFramingErrorHandler@interruptHandler 0070                                     _OPTION_REG 0095  
                              ___lwmod@divisor 0070                                _TMR0_Initialize 07EC  
                              ___lwmod@counter 0074                    keyDebounce@SW1_PreviousTime 002C  
               __end_of_PIN_MANAGER_Initialize 0EB2                                     _SW1_Status 0040  
                       keyDebounce@CurrentTime 0052                                     _SW2_Status 003F  
                                   _SW3_Status 003E                                   ?_LED_DISABLE 0070  
                             CalTemperture@NTC 004F                              CalTemperture@temp 0051  
                        ?_chkeckPressKeyNumber 0070  
