

Microchip MPLAB XC8 Assembler V3.00 build 20241204225717 
                                                                                               Thu Jun 05 17:06:49 2025

Microchip MPLAB XC8 C Compiler v3.00 (Free license) build 20241204225717 Og1 
     1                           	processor	16F1936
     2                           	pagewidth 120
     3                           	opt	flic
     4                           	psect	idataCOMMON,global,class=CODE,space=0,delta=2,noexec
     5                           	psect	idataBANK0,global,class=CODE,space=0,delta=2,noexec
     6                           	psect	nvBANK0,global,class=BANK0,space=1,delta=1,noexec
     7                           	psect	cinit,global,class=CODE,space=0,merge=1,delta=2
     8                           	psect	bssCOMMON,global,class=COMMON,space=1,delta=1,noexec
     9                           	psect	dataCOMMON,global,class=COMMON,space=1,delta=1,noexec
    10                           	psect	bssBANK0,global,class=BANK0,space=1,delta=1,noexec
    11                           	psect	dataBANK0,global,class=BANK0,space=1,delta=1,noexec
    12                           	psect	clrtext,global,class=CODE,space=0,delta=2
    13                           	psect	cstackCOMMON,global,class=COMMON,space=1,delta=1,noexec
    14                           	psect	cstackBANK0,global,class=BANK0,space=1,delta=1,noexec
    15                           	psect	maintext,global,class=CODE,space=0,merge=1,split=1,delta=2
    16                           	psect	text1,local,class=CODE,space=0,merge=1,delta=2
    17                           	psect	text2,local,class=CODE,space=0,merge=1,delta=2
    18                           	psect	text3,local,class=CODE,space=0,merge=1,delta=2
    19                           	psect	text4,local,class=CODE,space=0,merge=1,delta=2
    20                           	psect	text5,local,class=CODE,space=0,merge=1,delta=2
    21                           	psect	text6,local,class=CODE,space=0,merge=1,delta=2
    22                           	psect	text7,local,class=CODE,space=0,merge=1,delta=2
    23                           	psect	text8,local,class=CODE,space=0,merge=1,delta=2,group=1
    24                           	psect	text9,local,class=CODE,space=0,merge=1,delta=2,group=1
    25                           	psect	text10,local,class=CODE,space=0,merge=1,delta=2,group=1
    26                           	psect	text11,local,class=CODE,space=0,merge=1,delta=2
    27                           	psect	text12,local,class=CODE,space=0,merge=1,delta=2
    28                           	psect	text13,local,class=CODE,space=0,merge=1,delta=2
    29                           	psect	text14,local,class=CODE,space=0,merge=1,delta=2
    30                           	psect	text15,local,class=CODE,space=0,merge=1,delta=2
    31                           	psect	text16,local,class=CODE,space=0,merge=1,delta=2
    32                           	psect	text17,local,class=CODE,space=0,merge=1,delta=2
    33                           	psect	text18,local,class=CODE,space=0,merge=1,delta=2
    34                           	psect	text19,local,class=CODE,space=0,merge=1,delta=2
    35                           	psect	text20,local,class=CODE,space=0,merge=1,delta=2
    36                           	psect	text21,local,class=CODE,space=0,merge=1,delta=2
    37                           	psect	intentry,global,class=CODE,space=0,delta=2
    38                           	psect	text23,local,class=CODE,space=0,merge=1,delta=2
    39                           	psect	text24,local,class=CODE,space=0,merge=1,delta=2
    40                           	psect	config,global,abs,ovrld,class=CONFIG,space=4,delta=2,noexec
    41                           	dabs	1,0x7E,2
    42     0000                     
    43                           ; Generated 27/03/2025 GMT
    44                           ; 
    45                           ; Copyright © 2025, Microchip Technology Inc. and its subsidiaries ("Microchip")
    46                           ; All rights reserved.
    47                           ; 
    48                           ; This software is developed by Microchip Technology Inc. and its subsidiaries ("Microch
      +                          ip").
    49                           ; 
    50                           ; Redistribution and use in source and binary forms, with or without modification, are
    51                           ; permitted provided that the following conditions are met:
    52                           ; 
    53                           ;     1. Redistributions of source code must retain the above copyright notice, this lis
      +                          t of
    54                           ;        conditions and the following disclaimer.
    55                           ; 
    56                           ;     2. Redistributions in binary form must reproduce the above copyright notice, this 
      +                          list
    57                           ;        of conditions and the following disclaimer in the documentation and/or other
    58                           ;        materials provided with the distribution. Publication is not required when
    59                           ;        this file is used in an embedded application.
    60                           ; 
    61                           ;     3. Microchip's name may not be used to endorse or promote products derived from th
      +                          is
    62                           ;        software without specific prior written permission.
    63                           ; 
    64                           ; THIS SOFTWARE IS PROVIDED BY MICROCHIP "AS IS" AND ANY EXPRESS OR IMPLIED WARRANTIES,
    65                           ; INCLUDING, BUT NOT LIMITED TO, THE IMPLIED WARRANTIES OF MERCHANTABILITY AND FITNESS F
      +                          OR
    66                           ; PURPOSE ARE DISCLAIMED.  IN NO EVENT SHALL MICROCHIP BE LIABLE FOR ANY DIRECT, INDIREC
      +                          T,
    67                           ; INCIDENTAL, SPECIAL, EXEMPLARY, OR CONSEQUENTIAL DAMAGES (INCLUDING BUT NOT LIMITED TO
    68                           ; PROCUREMENT OF SUBSTITUTE GOODS OR SERVICES; LOSS OF USE, DATA OR PROFITS; OR BUSINESS
    69                           ; INTERRUPTION) HOWSOEVER CAUSED AND ON ANY THEORY OF LIABILITY, WHETHER IN CONTRACT, ST
      +                          RICT
    70                           ; LIABILITY, OR TORT (INCLUDING NEGLIGENCE OR OTHERWISE) ARISING IN ANY WAY OUT OF THE U
      +                          SE OF
    71                           ; THIS SOFTWARE, EVEN IF ADVISED OF THE POSSIBILITY OF SUCH DAMAGE.
    72                           ; 
    73                           ; 
    74                           ; Code-generator required, PIC16F1936 Definitions
    75                           ; 
    76                           ; SFR Addresses
    77     0008                     bsr             equ	8
    78     0005                     fsr0h           equ	5
    79     0004                     fsr0l           equ	4
    80     0007                     fsr1h           equ	7
    81     0006                     fsr1l           equ	6
    82     0000                     indf            equ	0
    83     0000                     indf0           equ	0
    84     0001                     indf1           equ	1
    85     000B                     intcon          equ	11
    86     0002                     pc              equ	2
    87     0002                     pcl             equ	2
    88     000A                     pclath          equ	10
    89     0003                     status          equ	3
    90     0009                     wreg            equ	9
    91     0000                     INDF0           equ	0	;# 
    92     0001                     INDF1           equ	1	;# 
    93     0002                     PCL             equ	2	;# 
    94     0003                     STATUS          equ	3	;# 
    95     0004                     FSR0L           equ	4	;# 
    96     0005                     FSR0H           equ	5	;# 
    97     0006                     FSR1L           equ	6	;# 
    98     0007                     FSR1H           equ	7	;# 
    99     0008                     BSR             equ	8	;# 
   100     0009                     WREG            equ	9	;# 
   101     000A                     PCLATH          equ	10	;# 
   102     000B                     INTCON          equ	11	;# 
   103     000C                     PORTA           equ	12	;# 
   104     000D                     PORTB           equ	13	;# 
   105     000E                     PORTC           equ	14	;# 
   106     0010                     PORTE           equ	16	;# 
   107     0011                     PIR1            equ	17	;# 
   108     0012                     PIR2            equ	18	;# 
   109     0013                     PIR3            equ	19	;# 
   110     0015                     TMR0            equ	21	;# 
   111     0016                     TMR1            equ	22	;# 
   112     0016                     TMR1L           equ	22	;# 
   113     0017                     TMR1H           equ	23	;# 
   114     0018                     T1CON           equ	24	;# 
   115     0019                     T1GCON          equ	25	;# 
   116     001A                     TMR2            equ	26	;# 
   117     001B                     PR2             equ	27	;# 
   118     001C                     T2CON           equ	28	;# 
   119     001E                     CPSCON0         equ	30	;# 
   120     001F                     CPSCON1         equ	31	;# 
   121     008C                     TRISA           equ	140	;# 
   122     008D                     TRISB           equ	141	;# 
   123     008E                     TRISC           equ	142	;# 
   124     0090                     TRISE           equ	144	;# 
   125     0091                     PIE1            equ	145	;# 
   126     0092                     PIE2            equ	146	;# 
   127     0093                     PIE3            equ	147	;# 
   128     0095                     OPTION_REG      equ	149	;# 
   129     0096                     PCON            equ	150	;# 
   130     0097                     WDTCON          equ	151	;# 
   131     0098                     OSCTUNE         equ	152	;# 
   132     0099                     OSCCON          equ	153	;# 
   133     009A                     OSCSTAT         equ	154	;# 
   134     009B                     ADRES           equ	155	;# 
   135     009B                     ADRESL          equ	155	;# 
   136     009C                     ADRESH          equ	156	;# 
   137     009D                     ADCON0          equ	157	;# 
   138     009E                     ADCON1          equ	158	;# 
   139     010C                     LATA            equ	268	;# 
   140     010D                     LATB            equ	269	;# 
   141     010E                     LATC            equ	270	;# 
   142     0110                     LATE            equ	272	;# 
   143     0111                     CM1CON0         equ	273	;# 
   144     0112                     CM1CON1         equ	274	;# 
   145     0113                     CM2CON0         equ	275	;# 
   146     0114                     CM2CON1         equ	276	;# 
   147     0115                     CMOUT           equ	277	;# 
   148     0116                     BORCON          equ	278	;# 
   149     0117                     FVRCON          equ	279	;# 
   150     0118                     DACCON0         equ	280	;# 
   151     0119                     DACCON1         equ	281	;# 
   152     011A                     SRCON0          equ	282	;# 
   153     011B                     SRCON1          equ	283	;# 
   154     011D                     APFCON          equ	285	;# 
   155     018C                     ANSELA          equ	396	;# 
   156     018D                     ANSELB          equ	397	;# 
   157     0191                     EEADR           equ	401	;# 
   158     0191                     EEADRL          equ	401	;# 
   159     0192                     EEADRH          equ	402	;# 
   160     0193                     EEDAT           equ	403	;# 
   161     0193                     EEDATL          equ	403	;# 
   162     0193                     EEDATA          equ	403	;# 
   163     0194                     EEDATH          equ	404	;# 
   164     0195                     EECON1          equ	405	;# 
   165     0196                     EECON2          equ	406	;# 
   166     0199                     RCREG           equ	409	;# 
   167     019A                     TXREG           equ	410	;# 
   168     019B                     SP1BRG          equ	411	;# 
   169     019B                     SP1BRGL         equ	411	;# 
   170     019B                     SPBRG           equ	411	;# 
   171     019B                     SPBRGL          equ	411	;# 
   172     019C                     SP1BRGH         equ	412	;# 
   173     019C                     SPBRGH          equ	412	;# 
   174     019D                     RCSTA           equ	413	;# 
   175     019E                     TXSTA           equ	414	;# 
   176     019F                     BAUDCON         equ	415	;# 
   177     020D                     WPUB            equ	525	;# 
   178     0210                     WPUE            equ	528	;# 
   179     0211                     SSPBUF          equ	529	;# 
   180     0212                     SSPADD          equ	530	;# 
   181     0213                     SSPMSK          equ	531	;# 
   182     0214                     SSPSTAT         equ	532	;# 
   183     0215                     SSPCON1         equ	533	;# 
   184     0215                     SSPCON          equ	533	;# 
   185     0216                     SSPCON2         equ	534	;# 
   186     0217                     SSPCON3         equ	535	;# 
   187     0291                     CCPR1           equ	657	;# 
   188     0291                     CCPR1L          equ	657	;# 
   189     0292                     CCPR1H          equ	658	;# 
   190     0293                     CCP1CON         equ	659	;# 
   191     0294                     PWM1CON         equ	660	;# 
   192     0295                     CCP1AS          equ	661	;# 
   193     0295                     ECCP1AS         equ	661	;# 
   194     0296                     PSTR1CON        equ	662	;# 
   195     0298                     CCPR2           equ	664	;# 
   196     0298                     CCPR2L          equ	664	;# 
   197     0299                     CCPR2H          equ	665	;# 
   198     029A                     CCP2CON         equ	666	;# 
   199     029B                     PWM2CON         equ	667	;# 
   200     029C                     CCP2AS          equ	668	;# 
   201     029C                     ECCP2AS         equ	668	;# 
   202     029D                     PSTR2CON        equ	669	;# 
   203     029E                     CCPTMRS0        equ	670	;# 
   204     029F                     CCPTMRS1        equ	671	;# 
   205     0311                     CCPR3           equ	785	;# 
   206     0311                     CCPR3L          equ	785	;# 
   207     0312                     CCPR3H          equ	786	;# 
   208     0313                     CCP3CON         equ	787	;# 
   209     0314                     PWM3CON         equ	788	;# 
   210     0315                     CCP3AS          equ	789	;# 
   211     0315                     ECCP3AS         equ	789	;# 
   212     0316                     PSTR3CON        equ	790	;# 
   213     0318                     CCPR4           equ	792	;# 
   214     0318                     CCPR4L          equ	792	;# 
   215     0319                     CCPR4H          equ	793	;# 
   216     031A                     CCP4CON         equ	794	;# 
   217     031C                     CCPR5           equ	796	;# 
   218     031C                     CCPR5L          equ	796	;# 
   219     031D                     CCPR5H          equ	797	;# 
   220     031E                     CCP5CON         equ	798	;# 
   221     0394                     IOCBP           equ	916	;# 
   222     0395                     IOCBN           equ	917	;# 
   223     0396                     IOCBF           equ	918	;# 
   224     0415                     TMR4            equ	1045	;# 
   225     0416                     PR4             equ	1046	;# 
   226     0417                     T4CON           equ	1047	;# 
   227     041C                     TMR6            equ	1052	;# 
   228     041D                     PR6             equ	1053	;# 
   229     041E                     T6CON           equ	1054	;# 
   230     0791                     LCDCON          equ	1937	;# 
   231     0792                     LCDPS           equ	1938	;# 
   232     0793                     LCDREF          equ	1939	;# 
   233     0794                     LCDCST          equ	1940	;# 
   234     0795                     LCDRL           equ	1941	;# 
   235     0798                     LCDSE0          equ	1944	;# 
   236     0799                     LCDSE1          equ	1945	;# 
   237     07A0                     LCDDATA0        equ	1952	;# 
   238     07A1                     LCDDATA1        equ	1953	;# 
   239     07A3                     LCDDATA3        equ	1955	;# 
   240     07A4                     LCDDATA4        equ	1956	;# 
   241     07A6                     LCDDATA6        equ	1958	;# 
   242     07A7                     LCDDATA7        equ	1959	;# 
   243     07A9                     LCDDATA9        equ	1961	;# 
   244     07AA                     LCDDATA10       equ	1962	;# 
   245     0FE4                     STATUS_SHAD     equ	4068	;# 
   246     0FE5                     WREG_SHAD       equ	4069	;# 
   247     0FE6                     BSR_SHAD        equ	4070	;# 
   248     0FE7                     PCLATH_SHAD     equ	4071	;# 
   249     0FE8                     FSR0L_SHAD      equ	4072	;# 
   250     0FE9                     FSR0H_SHAD      equ	4073	;# 
   251     0FEA                     FSR1L_SHAD      equ	4074	;# 
   252     0FEB                     FSR1H_SHAD      equ	4075	;# 
   253     0FED                     STKPTR          equ	4077	;# 
   254     0FEE                     TOSL            equ	4078	;# 
   255     0FEF                     TOSH            equ	4079	;# 
   256     0000                     INDF0           equ	0	;# 
   257     0001                     INDF1           equ	1	;# 
   258     0002                     PCL             equ	2	;# 
   259     0003                     STATUS          equ	3	;# 
   260     0004                     FSR0L           equ	4	;# 
   261     0005                     FSR0H           equ	5	;# 
   262     0006                     FSR1L           equ	6	;# 
   263     0007                     FSR1H           equ	7	;# 
   264     0008                     BSR             equ	8	;# 
   265     0009                     WREG            equ	9	;# 
   266     000A                     PCLATH          equ	10	;# 
   267     000B                     INTCON          equ	11	;# 
   268     000C                     PORTA           equ	12	;# 
   269     000D                     PORTB           equ	13	;# 
   270     000E                     PORTC           equ	14	;# 
   271     0010                     PORTE           equ	16	;# 
   272     0011                     PIR1            equ	17	;# 
   273     0012                     PIR2            equ	18	;# 
   274     0013                     PIR3            equ	19	;# 
   275     0015                     TMR0            equ	21	;# 
   276     0016                     TMR1            equ	22	;# 
   277     0016                     TMR1L           equ	22	;# 
   278     0017                     TMR1H           equ	23	;# 
   279     0018                     T1CON           equ	24	;# 
   280     0019                     T1GCON          equ	25	;# 
   281     001A                     TMR2            equ	26	;# 
   282     001B                     PR2             equ	27	;# 
   283     001C                     T2CON           equ	28	;# 
   284     001E                     CPSCON0         equ	30	;# 
   285     001F                     CPSCON1         equ	31	;# 
   286     008C                     TRISA           equ	140	;# 
   287     008D                     TRISB           equ	141	;# 
   288     008E                     TRISC           equ	142	;# 
   289     0090                     TRISE           equ	144	;# 
   290     0091                     PIE1            equ	145	;# 
   291     0092                     PIE2            equ	146	;# 
   292     0093                     PIE3            equ	147	;# 
   293     0095                     OPTION_REG      equ	149	;# 
   294     0096                     PCON            equ	150	;# 
   295     0097                     WDTCON          equ	151	;# 
   296     0098                     OSCTUNE         equ	152	;# 
   297     0099                     OSCCON          equ	153	;# 
   298     009A                     OSCSTAT         equ	154	;# 
   299     009B                     ADRES           equ	155	;# 
   300     009B                     ADRESL          equ	155	;# 
   301     009C                     ADRESH          equ	156	;# 
   302     009D                     ADCON0          equ	157	;# 
   303     009E                     ADCON1          equ	158	;# 
   304     010C                     LATA            equ	268	;# 
   305     010D                     LATB            equ	269	;# 
   306     010E                     LATC            equ	270	;# 
   307     0110                     LATE            equ	272	;# 
   308     0111                     CM1CON0         equ	273	;# 
   309     0112                     CM1CON1         equ	274	;# 
   310     0113                     CM2CON0         equ	275	;# 
   311     0114                     CM2CON1         equ	276	;# 
   312     0115                     CMOUT           equ	277	;# 
   313     0116                     BORCON          equ	278	;# 
   314     0117                     FVRCON          equ	279	;# 
   315     0118                     DACCON0         equ	280	;# 
   316     0119                     DACCON1         equ	281	;# 
   317     011A                     SRCON0          equ	282	;# 
   318     011B                     SRCON1          equ	283	;# 
   319     011D                     APFCON          equ	285	;# 
   320     018C                     ANSELA          equ	396	;# 
   321     018D                     ANSELB          equ	397	;# 
   322     0191                     EEADR           equ	401	;# 
   323     0191                     EEADRL          equ	401	;# 
   324     0192                     EEADRH          equ	402	;# 
   325     0193                     EEDAT           equ	403	;# 
   326     0193                     EEDATL          equ	403	;# 
   327     0193                     EEDATA          equ	403	;# 
   328     0194                     EEDATH          equ	404	;# 
   329     0195                     EECON1          equ	405	;# 
   330     0196                     EECON2          equ	406	;# 
   331     0199                     RCREG           equ	409	;# 
   332     019A                     TXREG           equ	410	;# 
   333     019B                     SP1BRG          equ	411	;# 
   334     019B                     SP1BRGL         equ	411	;# 
   335     019B                     SPBRG           equ	411	;# 
   336     019B                     SPBRGL          equ	411	;# 
   337     019C                     SP1BRGH         equ	412	;# 
   338     019C                     SPBRGH          equ	412	;# 
   339     019D                     RCSTA           equ	413	;# 
   340     019E                     TXSTA           equ	414	;# 
   341     019F                     BAUDCON         equ	415	;# 
   342     020D                     WPUB            equ	525	;# 
   343     0210                     WPUE            equ	528	;# 
   344     0211                     SSPBUF          equ	529	;# 
   345     0212                     SSPADD          equ	530	;# 
   346     0213                     SSPMSK          equ	531	;# 
   347     0214                     SSPSTAT         equ	532	;# 
   348     0215                     SSPCON1         equ	533	;# 
   349     0215                     SSPCON          equ	533	;# 
   350     0216                     SSPCON2         equ	534	;# 
   351     0217                     SSPCON3         equ	535	;# 
   352     0291                     CCPR1           equ	657	;# 
   353     0291                     CCPR1L          equ	657	;# 
   354     0292                     CCPR1H          equ	658	;# 
   355     0293                     CCP1CON         equ	659	;# 
   356     0294                     PWM1CON         equ	660	;# 
   357     0295                     CCP1AS          equ	661	;# 
   358     0295                     ECCP1AS         equ	661	;# 
   359     0296                     PSTR1CON        equ	662	;# 
   360     0298                     CCPR2           equ	664	;# 
   361     0298                     CCPR2L          equ	664	;# 
   362     0299                     CCPR2H          equ	665	;# 
   363     029A                     CCP2CON         equ	666	;# 
   364     029B                     PWM2CON         equ	667	;# 
   365     029C                     CCP2AS          equ	668	;# 
   366     029C                     ECCP2AS         equ	668	;# 
   367     029D                     PSTR2CON        equ	669	;# 
   368     029E                     CCPTMRS0        equ	670	;# 
   369     029F                     CCPTMRS1        equ	671	;# 
   370     0311                     CCPR3           equ	785	;# 
   371     0311                     CCPR3L          equ	785	;# 
   372     0312                     CCPR3H          equ	786	;# 
   373     0313                     CCP3CON         equ	787	;# 
   374     0314                     PWM3CON         equ	788	;# 
   375     0315                     CCP3AS          equ	789	;# 
   376     0315                     ECCP3AS         equ	789	;# 
   377     0316                     PSTR3CON        equ	790	;# 
   378     0318                     CCPR4           equ	792	;# 
   379     0318                     CCPR4L          equ	792	;# 
   380     0319                     CCPR4H          equ	793	;# 
   381     031A                     CCP4CON         equ	794	;# 
   382     031C                     CCPR5           equ	796	;# 
   383     031C                     CCPR5L          equ	796	;# 
   384     031D                     CCPR5H          equ	797	;# 
   385     031E                     CCP5CON         equ	798	;# 
   386     0394                     IOCBP           equ	916	;# 
   387     0395                     IOCBN           equ	917	;# 
   388     0396                     IOCBF           equ	918	;# 
   389     0415                     TMR4            equ	1045	;# 
   390     0416                     PR4             equ	1046	;# 
   391     0417                     T4CON           equ	1047	;# 
   392     041C                     TMR6            equ	1052	;# 
   393     041D                     PR6             equ	1053	;# 
   394     041E                     T6CON           equ	1054	;# 
   395     0791                     LCDCON          equ	1937	;# 
   396     0792                     LCDPS           equ	1938	;# 
   397     0793                     LCDREF          equ	1939	;# 
   398     0794                     LCDCST          equ	1940	;# 
   399     0795                     LCDRL           equ	1941	;# 
   400     0798                     LCDSE0          equ	1944	;# 
   401     0799                     LCDSE1          equ	1945	;# 
   402     07A0                     LCDDATA0        equ	1952	;# 
   403     07A1                     LCDDATA1        equ	1953	;# 
   404     07A3                     LCDDATA3        equ	1955	;# 
   405     07A4                     LCDDATA4        equ	1956	;# 
   406     07A6                     LCDDATA6        equ	1958	;# 
   407     07A7                     LCDDATA7        equ	1959	;# 
   408     07A9                     LCDDATA9        equ	1961	;# 
   409     07AA                     LCDDATA10       equ	1962	;# 
   410     0FE4                     STATUS_SHAD     equ	4068	;# 
   411     0FE5                     WREG_SHAD       equ	4069	;# 
   412     0FE6                     BSR_SHAD        equ	4070	;# 
   413     0FE7                     PCLATH_SHAD     equ	4071	;# 
   414     0FE8                     FSR0L_SHAD      equ	4072	;# 
   415     0FE9                     FSR0H_SHAD      equ	4073	;# 
   416     0FEA                     FSR1L_SHAD      equ	4074	;# 
   417     0FEB                     FSR1H_SHAD      equ	4075	;# 
   418     0FED                     STKPTR          equ	4077	;# 
   419     0FEE                     TOSL            equ	4078	;# 
   420     0FEF                     TOSH            equ	4079	;# 
   421     0000                     INDF0           equ	0	;# 
   422     0001                     INDF1           equ	1	;# 
   423     0002                     PCL             equ	2	;# 
   424     0003                     STATUS          equ	3	;# 
   425     0004                     FSR0L           equ	4	;# 
   426     0005                     FSR0H           equ	5	;# 
   427     0006                     FSR1L           equ	6	;# 
   428     0007                     FSR1H           equ	7	;# 
   429     0008                     BSR             equ	8	;# 
   430     0009                     WREG            equ	9	;# 
   431     000A                     PCLATH          equ	10	;# 
   432     000B                     INTCON          equ	11	;# 
   433     000C                     PORTA           equ	12	;# 
   434     000D                     PORTB           equ	13	;# 
   435     000E                     PORTC           equ	14	;# 
   436     0010                     PORTE           equ	16	;# 
   437     0011                     PIR1            equ	17	;# 
   438     0012                     PIR2            equ	18	;# 
   439     0013                     PIR3            equ	19	;# 
   440     0015                     TMR0            equ	21	;# 
   441     0016                     TMR1            equ	22	;# 
   442     0016                     TMR1L           equ	22	;# 
   443     0017                     TMR1H           equ	23	;# 
   444     0018                     T1CON           equ	24	;# 
   445     0019                     T1GCON          equ	25	;# 
   446     001A                     TMR2            equ	26	;# 
   447     001B                     PR2             equ	27	;# 
   448     001C                     T2CON           equ	28	;# 
   449     001E                     CPSCON0         equ	30	;# 
   450     001F                     CPSCON1         equ	31	;# 
   451     008C                     TRISA           equ	140	;# 
   452     008D                     TRISB           equ	141	;# 
   453     008E                     TRISC           equ	142	;# 
   454     0090                     TRISE           equ	144	;# 
   455     0091                     PIE1            equ	145	;# 
   456     0092                     PIE2            equ	146	;# 
   457     0093                     PIE3            equ	147	;# 
   458     0095                     OPTION_REG      equ	149	;# 
   459     0096                     PCON            equ	150	;# 
   460     0097                     WDTCON          equ	151	;# 
   461     0098                     OSCTUNE         equ	152	;# 
   462     0099                     OSCCON          equ	153	;# 
   463     009A                     OSCSTAT         equ	154	;# 
   464     009B                     ADRES           equ	155	;# 
   465     009B                     ADRESL          equ	155	;# 
   466     009C                     ADRESH          equ	156	;# 
   467     009D                     ADCON0          equ	157	;# 
   468     009E                     ADCON1          equ	158	;# 
   469     010C                     LATA            equ	268	;# 
   470     010D                     LATB            equ	269	;# 
   471     010E                     LATC            equ	270	;# 
   472     0110                     LATE            equ	272	;# 
   473     0111                     CM1CON0         equ	273	;# 
   474     0112                     CM1CON1         equ	274	;# 
   475     0113                     CM2CON0         equ	275	;# 
   476     0114                     CM2CON1         equ	276	;# 
   477     0115                     CMOUT           equ	277	;# 
   478     0116                     BORCON          equ	278	;# 
   479     0117                     FVRCON          equ	279	;# 
   480     0118                     DACCON0         equ	280	;# 
   481     0119                     DACCON1         equ	281	;# 
   482     011A                     SRCON0          equ	282	;# 
   483     011B                     SRCON1          equ	283	;# 
   484     011D                     APFCON          equ	285	;# 
   485     018C                     ANSELA          equ	396	;# 
   486     018D                     ANSELB          equ	397	;# 
   487     0191                     EEADR           equ	401	;# 
   488     0191                     EEADRL          equ	401	;# 
   489     0192                     EEADRH          equ	402	;# 
   490     0193                     EEDAT           equ	403	;# 
   491     0193                     EEDATL          equ	403	;# 
   492     0193                     EEDATA          equ	403	;# 
   493     0194                     EEDATH          equ	404	;# 
   494     0195                     EECON1          equ	405	;# 
   495     0196                     EECON2          equ	406	;# 
   496     0199                     RCREG           equ	409	;# 
   497     019A                     TXREG           equ	410	;# 
   498     019B                     SP1BRG          equ	411	;# 
   499     019B                     SP1BRGL         equ	411	;# 
   500     019B                     SPBRG           equ	411	;# 
   501     019B                     SPBRGL          equ	411	;# 
   502     019C                     SP1BRGH         equ	412	;# 
   503     019C                     SPBRGH          equ	412	;# 
   504     019D                     RCSTA           equ	413	;# 
   505     019E                     TXSTA           equ	414	;# 
   506     019F                     BAUDCON         equ	415	;# 
   507     020D                     WPUB            equ	525	;# 
   508     0210                     WPUE            equ	528	;# 
   509     0211                     SSPBUF          equ	529	;# 
   510     0212                     SSPADD          equ	530	;# 
   511     0213                     SSPMSK          equ	531	;# 
   512     0214                     SSPSTAT         equ	532	;# 
   513     0215                     SSPCON1         equ	533	;# 
   514     0215                     SSPCON          equ	533	;# 
   515     0216                     SSPCON2         equ	534	;# 
   516     0217                     SSPCON3         equ	535	;# 
   517     0291                     CCPR1           equ	657	;# 
   518     0291                     CCPR1L          equ	657	;# 
   519     0292                     CCPR1H          equ	658	;# 
   520     0293                     CCP1CON         equ	659	;# 
   521     0294                     PWM1CON         equ	660	;# 
   522     0295                     CCP1AS          equ	661	;# 
   523     0295                     ECCP1AS         equ	661	;# 
   524     0296                     PSTR1CON        equ	662	;# 
   525     0298                     CCPR2           equ	664	;# 
   526     0298                     CCPR2L          equ	664	;# 
   527     0299                     CCPR2H          equ	665	;# 
   528     029A                     CCP2CON         equ	666	;# 
   529     029B                     PWM2CON         equ	667	;# 
   530     029C                     CCP2AS          equ	668	;# 
   531     029C                     ECCP2AS         equ	668	;# 
   532     029D                     PSTR2CON        equ	669	;# 
   533     029E                     CCPTMRS0        equ	670	;# 
   534     029F                     CCPTMRS1        equ	671	;# 
   535     0311                     CCPR3           equ	785	;# 
   536     0311                     CCPR3L          equ	785	;# 
   537     0312                     CCPR3H          equ	786	;# 
   538     0313                     CCP3CON         equ	787	;# 
   539     0314                     PWM3CON         equ	788	;# 
   540     0315                     CCP3AS          equ	789	;# 
   541     0315                     ECCP3AS         equ	789	;# 
   542     0316                     PSTR3CON        equ	790	;# 
   543     0318                     CCPR4           equ	792	;# 
   544     0318                     CCPR4L          equ	792	;# 
   545     0319                     CCPR4H          equ	793	;# 
   546     031A                     CCP4CON         equ	794	;# 
   547     031C                     CCPR5           equ	796	;# 
   548     031C                     CCPR5L          equ	796	;# 
   549     031D                     CCPR5H          equ	797	;# 
   550     031E                     CCP5CON         equ	798	;# 
   551     0394                     IOCBP           equ	916	;# 
   552     0395                     IOCBN           equ	917	;# 
   553     0396                     IOCBF           equ	918	;# 
   554     0415                     TMR4            equ	1045	;# 
   555     0416                     PR4             equ	1046	;# 
   556     0417                     T4CON           equ	1047	;# 
   557     041C                     TMR6            equ	1052	;# 
   558     041D                     PR6             equ	1053	;# 
   559     041E                     T6CON           equ	1054	;# 
   560     0791                     LCDCON          equ	1937	;# 
   561     0792                     LCDPS           equ	1938	;# 
   562     0793                     LCDREF          equ	1939	;# 
   563     0794                     LCDCST          equ	1940	;# 
   564     0795                     LCDRL           equ	1941	;# 
   565     0798                     LCDSE0          equ	1944	;# 
   566     0799                     LCDSE1          equ	1945	;# 
   567     07A0                     LCDDATA0        equ	1952	;# 
   568     07A1                     LCDDATA1        equ	1953	;# 
   569     07A3                     LCDDATA3        equ	1955	;# 
   570     07A4                     LCDDATA4        equ	1956	;# 
   571     07A6                     LCDDATA6        equ	1958	;# 
   572     07A7                     LCDDATA7        equ	1959	;# 
   573     07A9                     LCDDATA9        equ	1961	;# 
   574     07AA                     LCDDATA10       equ	1962	;# 
   575     0FE4                     STATUS_SHAD     equ	4068	;# 
   576     0FE5                     WREG_SHAD       equ	4069	;# 
   577     0FE6                     BSR_SHAD        equ	4070	;# 
   578     0FE7                     PCLATH_SHAD     equ	4071	;# 
   579     0FE8                     FSR0L_SHAD      equ	4072	;# 
   580     0FE9                     FSR0H_SHAD      equ	4073	;# 
   581     0FEA                     FSR1L_SHAD      equ	4074	;# 
   582     0FEB                     FSR1H_SHAD      equ	4075	;# 
   583     0FED                     STKPTR          equ	4077	;# 
   584     0FEE                     TOSL            equ	4078	;# 
   585     0FEF                     TOSH            equ	4079	;# 
   586     0000                     INDF0           equ	0	;# 
   587     0001                     INDF1           equ	1	;# 
   588     0002                     PCL             equ	2	;# 
   589     0003                     STATUS          equ	3	;# 
   590     0004                     FSR0L           equ	4	;# 
   591     0005                     FSR0H           equ	5	;# 
   592     0006                     FSR1L           equ	6	;# 
   593     0007                     FSR1H           equ	7	;# 
   594     0008                     BSR             equ	8	;# 
   595     0009                     WREG            equ	9	;# 
   596     000A                     PCLATH          equ	10	;# 
   597     000B                     INTCON          equ	11	;# 
   598     000C                     PORTA           equ	12	;# 
   599     000D                     PORTB           equ	13	;# 
   600     000E                     PORTC           equ	14	;# 
   601     0010                     PORTE           equ	16	;# 
   602     0011                     PIR1            equ	17	;# 
   603     0012                     PIR2            equ	18	;# 
   604     0013                     PIR3            equ	19	;# 
   605     0015                     TMR0            equ	21	;# 
   606     0016                     TMR1            equ	22	;# 
   607     0016                     TMR1L           equ	22	;# 
   608     0017                     TMR1H           equ	23	;# 
   609     0018                     T1CON           equ	24	;# 
   610     0019                     T1GCON          equ	25	;# 
   611     001A                     TMR2            equ	26	;# 
   612     001B                     PR2             equ	27	;# 
   613     001C                     T2CON           equ	28	;# 
   614     001E                     CPSCON0         equ	30	;# 
   615     001F                     CPSCON1         equ	31	;# 
   616     008C                     TRISA           equ	140	;# 
   617     008D                     TRISB           equ	141	;# 
   618     008E                     TRISC           equ	142	;# 
   619     0090                     TRISE           equ	144	;# 
   620     0091                     PIE1            equ	145	;# 
   621     0092                     PIE2            equ	146	;# 
   622     0093                     PIE3            equ	147	;# 
   623     0095                     OPTION_REG      equ	149	;# 
   624     0096                     PCON            equ	150	;# 
   625     0097                     WDTCON          equ	151	;# 
   626     0098                     OSCTUNE         equ	152	;# 
   627     0099                     OSCCON          equ	153	;# 
   628     009A                     OSCSTAT         equ	154	;# 
   629     009B                     ADRES           equ	155	;# 
   630     009B                     ADRESL          equ	155	;# 
   631     009C                     ADRESH          equ	156	;# 
   632     009D                     ADCON0          equ	157	;# 
   633     009E                     ADCON1          equ	158	;# 
   634     010C                     LATA            equ	268	;# 
   635     010D                     LATB            equ	269	;# 
   636     010E                     LATC            equ	270	;# 
   637     0110                     LATE            equ	272	;# 
   638     0111                     CM1CON0         equ	273	;# 
   639     0112                     CM1CON1         equ	274	;# 
   640     0113                     CM2CON0         equ	275	;# 
   641     0114                     CM2CON1         equ	276	;# 
   642     0115                     CMOUT           equ	277	;# 
   643     0116                     BORCON          equ	278	;# 
   644     0117                     FVRCON          equ	279	;# 
   645     0118                     DACCON0         equ	280	;# 
   646     0119                     DACCON1         equ	281	;# 
   647     011A                     SRCON0          equ	282	;# 
   648     011B                     SRCON1          equ	283	;# 
   649     011D                     APFCON          equ	285	;# 
   650     018C                     ANSELA          equ	396	;# 
   651     018D                     ANSELB          equ	397	;# 
   652     0191                     EEADR           equ	401	;# 
   653     0191                     EEADRL          equ	401	;# 
   654     0192                     EEADRH          equ	402	;# 
   655     0193                     EEDAT           equ	403	;# 
   656     0193                     EEDATL          equ	403	;# 
   657     0193                     EEDATA          equ	403	;# 
   658     0194                     EEDATH          equ	404	;# 
   659     0195                     EECON1          equ	405	;# 
   660     0196                     EECON2          equ	406	;# 
   661     0199                     RCREG           equ	409	;# 
   662     019A                     TXREG           equ	410	;# 
   663     019B                     SP1BRG          equ	411	;# 
   664     019B                     SP1BRGL         equ	411	;# 
   665     019B                     SPBRG           equ	411	;# 
   666     019B                     SPBRGL          equ	411	;# 
   667     019C                     SP1BRGH         equ	412	;# 
   668     019C                     SPBRGH          equ	412	;# 
   669     019D                     RCSTA           equ	413	;# 
   670     019E                     TXSTA           equ	414	;# 
   671     019F                     BAUDCON         equ	415	;# 
   672     020D                     WPUB            equ	525	;# 
   673     0210                     WPUE            equ	528	;# 
   674     0211                     SSPBUF          equ	529	;# 
   675     0212                     SSPADD          equ	530	;# 
   676     0213                     SSPMSK          equ	531	;# 
   677     0214                     SSPSTAT         equ	532	;# 
   678     0215                     SSPCON1         equ	533	;# 
   679     0215                     SSPCON          equ	533	;# 
   680     0216                     SSPCON2         equ	534	;# 
   681     0217                     SSPCON3         equ	535	;# 
   682     0291                     CCPR1           equ	657	;# 
   683     0291                     CCPR1L          equ	657	;# 
   684     0292                     CCPR1H          equ	658	;# 
   685     0293                     CCP1CON         equ	659	;# 
   686     0294                     PWM1CON         equ	660	;# 
   687     0295                     CCP1AS          equ	661	;# 
   688     0295                     ECCP1AS         equ	661	;# 
   689     0296                     PSTR1CON        equ	662	;# 
   690     0298                     CCPR2           equ	664	;# 
   691     0298                     CCPR2L          equ	664	;# 
   692     0299                     CCPR2H          equ	665	;# 
   693     029A                     CCP2CON         equ	666	;# 
   694     029B                     PWM2CON         equ	667	;# 
   695     029C                     CCP2AS          equ	668	;# 
   696     029C                     ECCP2AS         equ	668	;# 
   697     029D                     PSTR2CON        equ	669	;# 
   698     029E                     CCPTMRS0        equ	670	;# 
   699     029F                     CCPTMRS1        equ	671	;# 
   700     0311                     CCPR3           equ	785	;# 
   701     0311                     CCPR3L          equ	785	;# 
   702     0312                     CCPR3H          equ	786	;# 
   703     0313                     CCP3CON         equ	787	;# 
   704     0314                     PWM3CON         equ	788	;# 
   705     0315                     CCP3AS          equ	789	;# 
   706     0315                     ECCP3AS         equ	789	;# 
   707     0316                     PSTR3CON        equ	790	;# 
   708     0318                     CCPR4           equ	792	;# 
   709     0318                     CCPR4L          equ	792	;# 
   710     0319                     CCPR4H          equ	793	;# 
   711     031A                     CCP4CON         equ	794	;# 
   712     031C                     CCPR5           equ	796	;# 
   713     031C                     CCPR5L          equ	796	;# 
   714     031D                     CCPR5H          equ	797	;# 
   715     031E                     CCP5CON         equ	798	;# 
   716     0394                     IOCBP           equ	916	;# 
   717     0395                     IOCBN           equ	917	;# 
   718     0396                     IOCBF           equ	918	;# 
   719     0415                     TMR4            equ	1045	;# 
   720     0416                     PR4             equ	1046	;# 
   721     0417                     T4CON           equ	1047	;# 
   722     041C                     TMR6            equ	1052	;# 
   723     041D                     PR6             equ	1053	;# 
   724     041E                     T6CON           equ	1054	;# 
   725     0791                     LCDCON          equ	1937	;# 
   726     0792                     LCDPS           equ	1938	;# 
   727     0793                     LCDREF          equ	1939	;# 
   728     0794                     LCDCST          equ	1940	;# 
   729     0795                     LCDRL           equ	1941	;# 
   730     0798                     LCDSE0          equ	1944	;# 
   731     0799                     LCDSE1          equ	1945	;# 
   732     07A0                     LCDDATA0        equ	1952	;# 
   733     07A1                     LCDDATA1        equ	1953	;# 
   734     07A3                     LCDDATA3        equ	1955	;# 
   735     07A4                     LCDDATA4        equ	1956	;# 
   736     07A6                     LCDDATA6        equ	1958	;# 
   737     07A7                     LCDDATA7        equ	1959	;# 
   738     07A9                     LCDDATA9        equ	1961	;# 
   739     07AA                     LCDDATA10       equ	1962	;# 
   740     0FE4                     STATUS_SHAD     equ	4068	;# 
   741     0FE5                     WREG_SHAD       equ	4069	;# 
   742     0FE6                     BSR_SHAD        equ	4070	;# 
   743     0FE7                     PCLATH_SHAD     equ	4071	;# 
   744     0FE8                     FSR0L_SHAD      equ	4072	;# 
   745     0FE9                     FSR0H_SHAD      equ	4073	;# 
   746     0FEA                     FSR1L_SHAD      equ	4074	;# 
   747     0FEB                     FSR1H_SHAD      equ	4075	;# 
   748     0FED                     STKPTR          equ	4077	;# 
   749     0FEE                     TOSL            equ	4078	;# 
   750     0FEF                     TOSH            equ	4079	;# 
   751     0000                     INDF0           equ	0	;# 
   752     0001                     INDF1           equ	1	;# 
   753     0002                     PCL             equ	2	;# 
   754     0003                     STATUS          equ	3	;# 
   755     0004                     FSR0L           equ	4	;# 
   756     0005                     FSR0H           equ	5	;# 
   757     0006                     FSR1L           equ	6	;# 
   758     0007                     FSR1H           equ	7	;# 
   759     0008                     BSR             equ	8	;# 
   760     0009                     WREG            equ	9	;# 
   761     000A                     PCLATH          equ	10	;# 
   762     000B                     INTCON          equ	11	;# 
   763     000C                     PORTA           equ	12	;# 
   764     000D                     PORTB           equ	13	;# 
   765     000E                     PORTC           equ	14	;# 
   766     0010                     PORTE           equ	16	;# 
   767     0011                     PIR1            equ	17	;# 
   768     0012                     PIR2            equ	18	;# 
   769     0013                     PIR3            equ	19	;# 
   770     0015                     TMR0            equ	21	;# 
   771     0016                     TMR1            equ	22	;# 
   772     0016                     TMR1L           equ	22	;# 
   773     0017                     TMR1H           equ	23	;# 
   774     0018                     T1CON           equ	24	;# 
   775     0019                     T1GCON          equ	25	;# 
   776     001A                     TMR2            equ	26	;# 
   777     001B                     PR2             equ	27	;# 
   778     001C                     T2CON           equ	28	;# 
   779     001E                     CPSCON0         equ	30	;# 
   780     001F                     CPSCON1         equ	31	;# 
   781     008C                     TRISA           equ	140	;# 
   782     008D                     TRISB           equ	141	;# 
   783     008E                     TRISC           equ	142	;# 
   784     0090                     TRISE           equ	144	;# 
   785     0091                     PIE1            equ	145	;# 
   786     0092                     PIE2            equ	146	;# 
   787     0093                     PIE3            equ	147	;# 
   788     0095                     OPTION_REG      equ	149	;# 
   789     0096                     PCON            equ	150	;# 
   790     0097                     WDTCON          equ	151	;# 
   791     0098                     OSCTUNE         equ	152	;# 
   792     0099                     OSCCON          equ	153	;# 
   793     009A                     OSCSTAT         equ	154	;# 
   794     009B                     ADRES           equ	155	;# 
   795     009B                     ADRESL          equ	155	;# 
   796     009C                     ADRESH          equ	156	;# 
   797     009D                     ADCON0          equ	157	;# 
   798     009E                     ADCON1          equ	158	;# 
   799     010C                     LATA            equ	268	;# 
   800     010D                     LATB            equ	269	;# 
   801     010E                     LATC            equ	270	;# 
   802     0110                     LATE            equ	272	;# 
   803     0111                     CM1CON0         equ	273	;# 
   804     0112                     CM1CON1         equ	274	;# 
   805     0113                     CM2CON0         equ	275	;# 
   806     0114                     CM2CON1         equ	276	;# 
   807     0115                     CMOUT           equ	277	;# 
   808     0116                     BORCON          equ	278	;# 
   809     0117                     FVRCON          equ	279	;# 
   810     0118                     DACCON0         equ	280	;# 
   811     0119                     DACCON1         equ	281	;# 
   812     011A                     SRCON0          equ	282	;# 
   813     011B                     SRCON1          equ	283	;# 
   814     011D                     APFCON          equ	285	;# 
   815     018C                     ANSELA          equ	396	;# 
   816     018D                     ANSELB          equ	397	;# 
   817     0191                     EEADR           equ	401	;# 
   818     0191                     EEADRL          equ	401	;# 
   819     0192                     EEADRH          equ	402	;# 
   820     0193                     EEDAT           equ	403	;# 
   821     0193                     EEDATL          equ	403	;# 
   822     0193                     EEDATA          equ	403	;# 
   823     0194                     EEDATH          equ	404	;# 
   824     0195                     EECON1          equ	405	;# 
   825     0196                     EECON2          equ	406	;# 
   826     0199                     RCREG           equ	409	;# 
   827     019A                     TXREG           equ	410	;# 
   828     019B                     SP1BRG          equ	411	;# 
   829     019B                     SP1BRGL         equ	411	;# 
   830     019B                     SPBRG           equ	411	;# 
   831     019B                     SPBRGL          equ	411	;# 
   832     019C                     SP1BRGH         equ	412	;# 
   833     019C                     SPBRGH          equ	412	;# 
   834     019D                     RCSTA           equ	413	;# 
   835     019E                     TXSTA           equ	414	;# 
   836     019F                     BAUDCON         equ	415	;# 
   837     020D                     WPUB            equ	525	;# 
   838     0210                     WPUE            equ	528	;# 
   839     0211                     SSPBUF          equ	529	;# 
   840     0212                     SSPADD          equ	530	;# 
   841     0213                     SSPMSK          equ	531	;# 
   842     0214                     SSPSTAT         equ	532	;# 
   843     0215                     SSPCON1         equ	533	;# 
   844     0215                     SSPCON          equ	533	;# 
   845     0216                     SSPCON2         equ	534	;# 
   846     0217                     SSPCON3         equ	535	;# 
   847     0291                     CCPR1           equ	657	;# 
   848     0291                     CCPR1L          equ	657	;# 
   849     0292                     CCPR1H          equ	658	;# 
   850     0293                     CCP1CON         equ	659	;# 
   851     0294                     PWM1CON         equ	660	;# 
   852     0295                     CCP1AS          equ	661	;# 
   853     0295                     ECCP1AS         equ	661	;# 
   854     0296                     PSTR1CON        equ	662	;# 
   855     0298                     CCPR2           equ	664	;# 
   856     0298                     CCPR2L          equ	664	;# 
   857     0299                     CCPR2H          equ	665	;# 
   858     029A                     CCP2CON         equ	666	;# 
   859     029B                     PWM2CON         equ	667	;# 
   860     029C                     CCP2AS          equ	668	;# 
   861     029C                     ECCP2AS         equ	668	;# 
   862     029D                     PSTR2CON        equ	669	;# 
   863     029E                     CCPTMRS0        equ	670	;# 
   864     029F                     CCPTMRS1        equ	671	;# 
   865     0311                     CCPR3           equ	785	;# 
   866     0311                     CCPR3L          equ	785	;# 
   867     0312                     CCPR3H          equ	786	;# 
   868     0313                     CCP3CON         equ	787	;# 
   869     0314                     PWM3CON         equ	788	;# 
   870     0315                     CCP3AS          equ	789	;# 
   871     0315                     ECCP3AS         equ	789	;# 
   872     0316                     PSTR3CON        equ	790	;# 
   873     0318                     CCPR4           equ	792	;# 
   874     0318                     CCPR4L          equ	792	;# 
   875     0319                     CCPR4H          equ	793	;# 
   876     031A                     CCP4CON         equ	794	;# 
   877     031C                     CCPR5           equ	796	;# 
   878     031C                     CCPR5L          equ	796	;# 
   879     031D                     CCPR5H          equ	797	;# 
   880     031E                     CCP5CON         equ	798	;# 
   881     0394                     IOCBP           equ	916	;# 
   882     0395                     IOCBN           equ	917	;# 
   883     0396                     IOCBF           equ	918	;# 
   884     0415                     TMR4            equ	1045	;# 
   885     0416                     PR4             equ	1046	;# 
   886     0417                     T4CON           equ	1047	;# 
   887     041C                     TMR6            equ	1052	;# 
   888     041D                     PR6             equ	1053	;# 
   889     041E                     T6CON           equ	1054	;# 
   890     0791                     LCDCON          equ	1937	;# 
   891     0792                     LCDPS           equ	1938	;# 
   892     0793                     LCDREF          equ	1939	;# 
   893     0794                     LCDCST          equ	1940	;# 
   894     0795                     LCDRL           equ	1941	;# 
   895     0798                     LCDSE0          equ	1944	;# 
   896     0799                     LCDSE1          equ	1945	;# 
   897     07A0                     LCDDATA0        equ	1952	;# 
   898     07A1                     LCDDATA1        equ	1953	;# 
   899     07A3                     LCDDATA3        equ	1955	;# 
   900     07A4                     LCDDATA4        equ	1956	;# 
   901     07A6                     LCDDATA6        equ	1958	;# 
   902     07A7                     LCDDATA7        equ	1959	;# 
   903     07A9                     LCDDATA9        equ	1961	;# 
   904     07AA                     LCDDATA10       equ	1962	;# 
   905     0FE4                     STATUS_SHAD     equ	4068	;# 
   906     0FE5                     WREG_SHAD       equ	4069	;# 
   907     0FE6                     BSR_SHAD        equ	4070	;# 
   908     0FE7                     PCLATH_SHAD     equ	4071	;# 
   909     0FE8                     FSR0L_SHAD      equ	4072	;# 
   910     0FE9                     FSR0H_SHAD      equ	4073	;# 
   911     0FEA                     FSR1L_SHAD      equ	4074	;# 
   912     0FEB                     FSR1H_SHAD      equ	4075	;# 
   913     0FED                     STKPTR          equ	4077	;# 
   914     0FEE                     TOSL            equ	4078	;# 
   915     0FEF                     TOSH            equ	4079	;# 
   916     0000                     INDF0           equ	0	;# 
   917     0001                     INDF1           equ	1	;# 
   918     0002                     PCL             equ	2	;# 
   919     0003                     STATUS          equ	3	;# 
   920     0004                     FSR0L           equ	4	;# 
   921     0005                     FSR0H           equ	5	;# 
   922     0006                     FSR1L           equ	6	;# 
   923     0007                     FSR1H           equ	7	;# 
   924     0008                     BSR             equ	8	;# 
   925     0009                     WREG            equ	9	;# 
   926     000A                     PCLATH          equ	10	;# 
   927     000B                     INTCON          equ	11	;# 
   928     000C                     PORTA           equ	12	;# 
   929     000D                     PORTB           equ	13	;# 
   930     000E                     PORTC           equ	14	;# 
   931     0010                     PORTE           equ	16	;# 
   932     0011                     PIR1            equ	17	;# 
   933     0012                     PIR2            equ	18	;# 
   934     0013                     PIR3            equ	19	;# 
   935     0015                     TMR0            equ	21	;# 
   936     0016                     TMR1            equ	22	;# 
   937     0016                     TMR1L           equ	22	;# 
   938     0017                     TMR1H           equ	23	;# 
   939     0018                     T1CON           equ	24	;# 
   940     0019                     T1GCON          equ	25	;# 
   941     001A                     TMR2            equ	26	;# 
   942     001B                     PR2             equ	27	;# 
   943     001C                     T2CON           equ	28	;# 
   944     001E                     CPSCON0         equ	30	;# 
   945     001F                     CPSCON1         equ	31	;# 
   946     008C                     TRISA           equ	140	;# 
   947     008D                     TRISB           equ	141	;# 
   948     008E                     TRISC           equ	142	;# 
   949     0090                     TRISE           equ	144	;# 
   950     0091                     PIE1            equ	145	;# 
   951     0092                     PIE2            equ	146	;# 
   952     0093                     PIE3            equ	147	;# 
   953     0095                     OPTION_REG      equ	149	;# 
   954     0096                     PCON            equ	150	;# 
   955     0097                     WDTCON          equ	151	;# 
   956     0098                     OSCTUNE         equ	152	;# 
   957     0099                     OSCCON          equ	153	;# 
   958     009A                     OSCSTAT         equ	154	;# 
   959     009B                     ADRES           equ	155	;# 
   960     009B                     ADRESL          equ	155	;# 
   961     009C                     ADRESH          equ	156	;# 
   962     009D                     ADCON0          equ	157	;# 
   963     009E                     ADCON1          equ	158	;# 
   964     010C                     LATA            equ	268	;# 
   965     010D                     LATB            equ	269	;# 
   966     010E                     LATC            equ	270	;# 
   967     0110                     LATE            equ	272	;# 
   968     0111                     CM1CON0         equ	273	;# 
   969     0112                     CM1CON1         equ	274	;# 
   970     0113                     CM2CON0         equ	275	;# 
   971     0114                     CM2CON1         equ	276	;# 
   972     0115                     CMOUT           equ	277	;# 
   973     0116                     BORCON          equ	278	;# 
   974     0117                     FVRCON          equ	279	;# 
   975     0118                     DACCON0         equ	280	;# 
   976     0119                     DACCON1         equ	281	;# 
   977     011A                     SRCON0          equ	282	;# 
   978     011B                     SRCON1          equ	283	;# 
   979     011D                     APFCON          equ	285	;# 
   980     018C                     ANSELA          equ	396	;# 
   981     018D                     ANSELB          equ	397	;# 
   982     0191                     EEADR           equ	401	;# 
   983     0191                     EEADRL          equ	401	;# 
   984     0192                     EEADRH          equ	402	;# 
   985     0193                     EEDAT           equ	403	;# 
   986     0193                     EEDATL          equ	403	;# 
   987     0193                     EEDATA          equ	403	;# 
   988     0194                     EEDATH          equ	404	;# 
   989     0195                     EECON1          equ	405	;# 
   990     0196                     EECON2          equ	406	;# 
   991     0199                     RCREG           equ	409	;# 
   992     019A                     TXREG           equ	410	;# 
   993     019B                     SP1BRG          equ	411	;# 
   994     019B                     SP1BRGL         equ	411	;# 
   995     019B                     SPBRG           equ	411	;# 
   996     019B                     SPBRGL          equ	411	;# 
   997     019C                     SP1BRGH         equ	412	;# 
   998     019C                     SPBRGH          equ	412	;# 
   999     019D                     RCSTA           equ	413	;# 
  1000     019E                     TXSTA           equ	414	;# 
  1001     019F                     BAUDCON         equ	415	;# 
  1002     020D                     WPUB            equ	525	;# 
  1003     0210                     WPUE            equ	528	;# 
  1004     0211                     SSPBUF          equ	529	;# 
  1005     0212                     SSPADD          equ	530	;# 
  1006     0213                     SSPMSK          equ	531	;# 
  1007     0214                     SSPSTAT         equ	532	;# 
  1008     0215                     SSPCON1         equ	533	;# 
  1009     0215                     SSPCON          equ	533	;# 
  1010     0216                     SSPCON2         equ	534	;# 
  1011     0217                     SSPCON3         equ	535	;# 
  1012     0291                     CCPR1           equ	657	;# 
  1013     0291                     CCPR1L          equ	657	;# 
  1014     0292                     CCPR1H          equ	658	;# 
  1015     0293                     CCP1CON         equ	659	;# 
  1016     0294                     PWM1CON         equ	660	;# 
  1017     0295                     CCP1AS          equ	661	;# 
  1018     0295                     ECCP1AS         equ	661	;# 
  1019     0296                     PSTR1CON        equ	662	;# 
  1020     0298                     CCPR2           equ	664	;# 
  1021     0298                     CCPR2L          equ	664	;# 
  1022     0299                     CCPR2H          equ	665	;# 
  1023     029A                     CCP2CON         equ	666	;# 
  1024     029B                     PWM2CON         equ	667	;# 
  1025     029C                     CCP2AS          equ	668	;# 
  1026     029C                     ECCP2AS         equ	668	;# 
  1027     029D                     PSTR2CON        equ	669	;# 
  1028     029E                     CCPTMRS0        equ	670	;# 
  1029     029F                     CCPTMRS1        equ	671	;# 
  1030     0311                     CCPR3           equ	785	;# 
  1031     0311                     CCPR3L          equ	785	;# 
  1032     0312                     CCPR3H          equ	786	;# 
  1033     0313                     CCP3CON         equ	787	;# 
  1034     0314                     PWM3CON         equ	788	;# 
  1035     0315                     CCP3AS          equ	789	;# 
  1036     0315                     ECCP3AS         equ	789	;# 
  1037     0316                     PSTR3CON        equ	790	;# 
  1038     0318                     CCPR4           equ	792	;# 
  1039     0318                     CCPR4L          equ	792	;# 
  1040     0319                     CCPR4H          equ	793	;# 
  1041     031A                     CCP4CON         equ	794	;# 
  1042     031C                     CCPR5           equ	796	;# 
  1043     031C                     CCPR5L          equ	796	;# 
  1044     031D                     CCPR5H          equ	797	;# 
  1045     031E                     CCP5CON         equ	798	;# 
  1046     0394                     IOCBP           equ	916	;# 
  1047     0395                     IOCBN           equ	917	;# 
  1048     0396                     IOCBF           equ	918	;# 
  1049     0415                     TMR4            equ	1045	;# 
  1050     0416                     PR4             equ	1046	;# 
  1051     0417                     T4CON           equ	1047	;# 
  1052     041C                     TMR6            equ	1052	;# 
  1053     041D                     PR6             equ	1053	;# 
  1054     041E                     T6CON           equ	1054	;# 
  1055     0791                     LCDCON          equ	1937	;# 
  1056     0792                     LCDPS           equ	1938	;# 
  1057     0793                     LCDREF          equ	1939	;# 
  1058     0794                     LCDCST          equ	1940	;# 
  1059     0795                     LCDRL           equ	1941	;# 
  1060     0798                     LCDSE0          equ	1944	;# 
  1061     0799                     LCDSE1          equ	1945	;# 
  1062     07A0                     LCDDATA0        equ	1952	;# 
  1063     07A1                     LCDDATA1        equ	1953	;# 
  1064     07A3                     LCDDATA3        equ	1955	;# 
  1065     07A4                     LCDDATA4        equ	1956	;# 
  1066     07A6                     LCDDATA6        equ	1958	;# 
  1067     07A7                     LCDDATA7        equ	1959	;# 
  1068     07A9                     LCDDATA9        equ	1961	;# 
  1069     07AA                     LCDDATA10       equ	1962	;# 
  1070     0FE4                     STATUS_SHAD     equ	4068	;# 
  1071     0FE5                     WREG_SHAD       equ	4069	;# 
  1072     0FE6                     BSR_SHAD        equ	4070	;# 
  1073     0FE7                     PCLATH_SHAD     equ	4071	;# 
  1074     0FE8                     FSR0L_SHAD      equ	4072	;# 
  1075     0FE9                     FSR0H_SHAD      equ	4073	;# 
  1076     0FEA                     FSR1L_SHAD      equ	4074	;# 
  1077     0FEB                     FSR1H_SHAD      equ	4075	;# 
  1078     0FED                     STKPTR          equ	4077	;# 
  1079     0FEE                     TOSL            equ	4078	;# 
  1080     0FEF                     TOSH            equ	4079	;# 
  1081     0000                     INDF0           equ	0	;# 
  1082     0001                     INDF1           equ	1	;# 
  1083     0002                     PCL             equ	2	;# 
  1084     0003                     STATUS          equ	3	;# 
  1085     0004                     FSR0L           equ	4	;# 
  1086     0005                     FSR0H           equ	5	;# 
  1087     0006                     FSR1L           equ	6	;# 
  1088     0007                     FSR1H           equ	7	;# 
  1089     0008                     BSR             equ	8	;# 
  1090     0009                     WREG            equ	9	;# 
  1091     000A                     PCLATH          equ	10	;# 
  1092     000B                     INTCON          equ	11	;# 
  1093     000C                     PORTA           equ	12	;# 
  1094     000D                     PORTB           equ	13	;# 
  1095     000E                     PORTC           equ	14	;# 
  1096     0010                     PORTE           equ	16	;# 
  1097     0011                     PIR1            equ	17	;# 
  1098     0012                     PIR2            equ	18	;# 
  1099     0013                     PIR3            equ	19	;# 
  1100     0015                     TMR0            equ	21	;# 
  1101     0016                     TMR1            equ	22	;# 
  1102     0016                     TMR1L           equ	22	;# 
  1103     0017                     TMR1H           equ	23	;# 
  1104     0018                     T1CON           equ	24	;# 
  1105     0019                     T1GCON          equ	25	;# 
  1106     001A                     TMR2            equ	26	;# 
  1107     001B                     PR2             equ	27	;# 
  1108     001C                     T2CON           equ	28	;# 
  1109     001E                     CPSCON0         equ	30	;# 
  1110     001F                     CPSCON1         equ	31	;# 
  1111     008C                     TRISA           equ	140	;# 
  1112     008D                     TRISB           equ	141	;# 
  1113     008E                     TRISC           equ	142	;# 
  1114     0090                     TRISE           equ	144	;# 
  1115     0091                     PIE1            equ	145	;# 
  1116     0092                     PIE2            equ	146	;# 
  1117     0093                     PIE3            equ	147	;# 
  1118     0095                     OPTION_REG      equ	149	;# 
  1119     0096                     PCON            equ	150	;# 
  1120     0097                     WDTCON          equ	151	;# 
  1121     0098                     OSCTUNE         equ	152	;# 
  1122     0099                     OSCCON          equ	153	;# 
  1123     009A                     OSCSTAT         equ	154	;# 
  1124     009B                     ADRES           equ	155	;# 
  1125     009B                     ADRESL          equ	155	;# 
  1126     009C                     ADRESH          equ	156	;# 
  1127     009D                     ADCON0          equ	157	;# 
  1128     009E                     ADCON1          equ	158	;# 
  1129     010C                     LATA            equ	268	;# 
  1130     010D                     LATB            equ	269	;# 
  1131     010E                     LATC            equ	270	;# 
  1132     0110                     LATE            equ	272	;# 
  1133     0111                     CM1CON0         equ	273	;# 
  1134     0112                     CM1CON1         equ	274	;# 
  1135     0113                     CM2CON0         equ	275	;# 
  1136     0114                     CM2CON1         equ	276	;# 
  1137     0115                     CMOUT           equ	277	;# 
  1138     0116                     BORCON          equ	278	;# 
  1139     0117                     FVRCON          equ	279	;# 
  1140     0118                     DACCON0         equ	280	;# 
  1141     0119                     DACCON1         equ	281	;# 
  1142     011A                     SRCON0          equ	282	;# 
  1143     011B                     SRCON1          equ	283	;# 
  1144     011D                     APFCON          equ	285	;# 
  1145     018C                     ANSELA          equ	396	;# 
  1146     018D                     ANSELB          equ	397	;# 
  1147     0191                     EEADR           equ	401	;# 
  1148     0191                     EEADRL          equ	401	;# 
  1149     0192                     EEADRH          equ	402	;# 
  1150     0193                     EEDAT           equ	403	;# 
  1151     0193                     EEDATL          equ	403	;# 
  1152     0193                     EEDATA          equ	403	;# 
  1153     0194                     EEDATH          equ	404	;# 
  1154     0195                     EECON1          equ	405	;# 
  1155     0196                     EECON2          equ	406	;# 
  1156     0199                     RCREG           equ	409	;# 
  1157     019A                     TXREG           equ	410	;# 
  1158     019B                     SP1BRG          equ	411	;# 
  1159     019B                     SP1BRGL         equ	411	;# 
  1160     019B                     SPBRG           equ	411	;# 
  1161     019B                     SPBRGL          equ	411	;# 
  1162     019C                     SP1BRGH         equ	412	;# 
  1163     019C                     SPBRGH          equ	412	;# 
  1164     019D                     RCSTA           equ	413	;# 
  1165     019E                     TXSTA           equ	414	;# 
  1166     019F                     BAUDCON         equ	415	;# 
  1167     020D                     WPUB            equ	525	;# 
  1168     0210                     WPUE            equ	528	;# 
  1169     0211                     SSPBUF          equ	529	;# 
  1170     0212                     SSPADD          equ	530	;# 
  1171     0213                     SSPMSK          equ	531	;# 
  1172     0214                     SSPSTAT         equ	532	;# 
  1173     0215                     SSPCON1         equ	533	;# 
  1174     0215                     SSPCON          equ	533	;# 
  1175     0216                     SSPCON2         equ	534	;# 
  1176     0217                     SSPCON3         equ	535	;# 
  1177     0291                     CCPR1           equ	657	;# 
  1178     0291                     CCPR1L          equ	657	;# 
  1179     0292                     CCPR1H          equ	658	;# 
  1180     0293                     CCP1CON         equ	659	;# 
  1181     0294                     PWM1CON         equ	660	;# 
  1182     0295                     CCP1AS          equ	661	;# 
  1183     0295                     ECCP1AS         equ	661	;# 
  1184     0296                     PSTR1CON        equ	662	;# 
  1185     0298                     CCPR2           equ	664	;# 
  1186     0298                     CCPR2L          equ	664	;# 
  1187     0299                     CCPR2H          equ	665	;# 
  1188     029A                     CCP2CON         equ	666	;# 
  1189     029B                     PWM2CON         equ	667	;# 
  1190     029C                     CCP2AS          equ	668	;# 
  1191     029C                     ECCP2AS         equ	668	;# 
  1192     029D                     PSTR2CON        equ	669	;# 
  1193     029E                     CCPTMRS0        equ	670	;# 
  1194     029F                     CCPTMRS1        equ	671	;# 
  1195     0311                     CCPR3           equ	785	;# 
  1196     0311                     CCPR3L          equ	785	;# 
  1197     0312                     CCPR3H          equ	786	;# 
  1198     0313                     CCP3CON         equ	787	;# 
  1199     0314                     PWM3CON         equ	788	;# 
  1200     0315                     CCP3AS          equ	789	;# 
  1201     0315                     ECCP3AS         equ	789	;# 
  1202     0316                     PSTR3CON        equ	790	;# 
  1203     0318                     CCPR4           equ	792	;# 
  1204     0318                     CCPR4L          equ	792	;# 
  1205     0319                     CCPR4H          equ	793	;# 
  1206     031A                     CCP4CON         equ	794	;# 
  1207     031C                     CCPR5           equ	796	;# 
  1208     031C                     CCPR5L          equ	796	;# 
  1209     031D                     CCPR5H          equ	797	;# 
  1210     031E                     CCP5CON         equ	798	;# 
  1211     0394                     IOCBP           equ	916	;# 
  1212     0395                     IOCBN           equ	917	;# 
  1213     0396                     IOCBF           equ	918	;# 
  1214     0415                     TMR4            equ	1045	;# 
  1215     0416                     PR4             equ	1046	;# 
  1216     0417                     T4CON           equ	1047	;# 
  1217     041C                     TMR6            equ	1052	;# 
  1218     041D                     PR6             equ	1053	;# 
  1219     041E                     T6CON           equ	1054	;# 
  1220     0791                     LCDCON          equ	1937	;# 
  1221     0792                     LCDPS           equ	1938	;# 
  1222     0793                     LCDREF          equ	1939	;# 
  1223     0794                     LCDCST          equ	1940	;# 
  1224     0795                     LCDRL           equ	1941	;# 
  1225     0798                     LCDSE0          equ	1944	;# 
  1226     0799                     LCDSE1          equ	1945	;# 
  1227     07A0                     LCDDATA0        equ	1952	;# 
  1228     07A1                     LCDDATA1        equ	1953	;# 
  1229     07A3                     LCDDATA3        equ	1955	;# 
  1230     07A4                     LCDDATA4        equ	1956	;# 
  1231     07A6                     LCDDATA6        equ	1958	;# 
  1232     07A7                     LCDDATA7        equ	1959	;# 
  1233     07A9                     LCDDATA9        equ	1961	;# 
  1234     07AA                     LCDDATA10       equ	1962	;# 
  1235     0FE4                     STATUS_SHAD     equ	4068	;# 
  1236     0FE5                     WREG_SHAD       equ	4069	;# 
  1237     0FE6                     BSR_SHAD        equ	4070	;# 
  1238     0FE7                     PCLATH_SHAD     equ	4071	;# 
  1239     0FE8                     FSR0L_SHAD      equ	4072	;# 
  1240     0FE9                     FSR0H_SHAD      equ	4073	;# 
  1241     0FEA                     FSR1L_SHAD      equ	4074	;# 
  1242     0FEB                     FSR1H_SHAD      equ	4075	;# 
  1243     0FED                     STKPTR          equ	4077	;# 
  1244     0FEE                     TOSL            equ	4078	;# 
  1245     0FEF                     TOSH            equ	4079	;# 
  1246     0000                     INDF0           equ	0	;# 
  1247     0001                     INDF1           equ	1	;# 
  1248     0002                     PCL             equ	2	;# 
  1249     0003                     STATUS          equ	3	;# 
  1250     0004                     FSR0L           equ	4	;# 
  1251     0005                     FSR0H           equ	5	;# 
  1252     0006                     FSR1L           equ	6	;# 
  1253     0007                     FSR1H           equ	7	;# 
  1254     0008                     BSR             equ	8	;# 
  1255     0009                     WREG            equ	9	;# 
  1256     000A                     PCLATH          equ	10	;# 
  1257     000B                     INTCON          equ	11	;# 
  1258     000C                     PORTA           equ	12	;# 
  1259     000D                     PORTB           equ	13	;# 
  1260     000E                     PORTC           equ	14	;# 
  1261     0010                     PORTE           equ	16	;# 
  1262     0011                     PIR1            equ	17	;# 
  1263     0012                     PIR2            equ	18	;# 
  1264     0013                     PIR3            equ	19	;# 
  1265     0015                     TMR0            equ	21	;# 
  1266     0016                     TMR1            equ	22	;# 
  1267     0016                     TMR1L           equ	22	;# 
  1268     0017                     TMR1H           equ	23	;# 
  1269     0018                     T1CON           equ	24	;# 
  1270     0019                     T1GCON          equ	25	;# 
  1271     001A                     TMR2            equ	26	;# 
  1272     001B                     PR2             equ	27	;# 
  1273     001C                     T2CON           equ	28	;# 
  1274     001E                     CPSCON0         equ	30	;# 
  1275     001F                     CPSCON1         equ	31	;# 
  1276     008C                     TRISA           equ	140	;# 
  1277     008D                     TRISB           equ	141	;# 
  1278     008E                     TRISC           equ	142	;# 
  1279     0090                     TRISE           equ	144	;# 
  1280     0091                     PIE1            equ	145	;# 
  1281     0092                     PIE2            equ	146	;# 
  1282     0093                     PIE3            equ	147	;# 
  1283     0095                     OPTION_REG      equ	149	;# 
  1284     0096                     PCON            equ	150	;# 
  1285     0097                     WDTCON          equ	151	;# 
  1286     0098                     OSCTUNE         equ	152	;# 
  1287     0099                     OSCCON          equ	153	;# 
  1288     009A                     OSCSTAT         equ	154	;# 
  1289     009B                     ADRES           equ	155	;# 
  1290     009B                     ADRESL          equ	155	;# 
  1291     009C                     ADRESH          equ	156	;# 
  1292     009D                     ADCON0          equ	157	;# 
  1293     009E                     ADCON1          equ	158	;# 
  1294     010C                     LATA            equ	268	;# 
  1295     010D                     LATB            equ	269	;# 
  1296     010E                     LATC            equ	270	;# 
  1297     0110                     LATE            equ	272	;# 
  1298     0111                     CM1CON0         equ	273	;# 
  1299     0112                     CM1CON1         equ	274	;# 
  1300     0113                     CM2CON0         equ	275	;# 
  1301     0114                     CM2CON1         equ	276	;# 
  1302     0115                     CMOUT           equ	277	;# 
  1303     0116                     BORCON          equ	278	;# 
  1304     0117                     FVRCON          equ	279	;# 
  1305     0118                     DACCON0         equ	280	;# 
  1306     0119                     DACCON1         equ	281	;# 
  1307     011A                     SRCON0          equ	282	;# 
  1308     011B                     SRCON1          equ	283	;# 
  1309     011D                     APFCON          equ	285	;# 
  1310     018C                     ANSELA          equ	396	;# 
  1311     018D                     ANSELB          equ	397	;# 
  1312     0191                     EEADR           equ	401	;# 
  1313     0191                     EEADRL          equ	401	;# 
  1314     0192                     EEADRH          equ	402	;# 
  1315     0193                     EEDAT           equ	403	;# 
  1316     0193                     EEDATL          equ	403	;# 
  1317     0193                     EEDATA          equ	403	;# 
  1318     0194                     EEDATH          equ	404	;# 
  1319     0195                     EECON1          equ	405	;# 
  1320     0196                     EECON2          equ	406	;# 
  1321     0199                     RCREG           equ	409	;# 
  1322     019A                     TXREG           equ	410	;# 
  1323     019B                     SP1BRG          equ	411	;# 
  1324     019B                     SP1BRGL         equ	411	;# 
  1325     019B                     SPBRG           equ	411	;# 
  1326     019B                     SPBRGL          equ	411	;# 
  1327     019C                     SP1BRGH         equ	412	;# 
  1328     019C                     SPBRGH          equ	412	;# 
  1329     019D                     RCSTA           equ	413	;# 
  1330     019E                     TXSTA           equ	414	;# 
  1331     019F                     BAUDCON         equ	415	;# 
  1332     020D                     WPUB            equ	525	;# 
  1333     0210                     WPUE            equ	528	;# 
  1334     0211                     SSPBUF          equ	529	;# 
  1335     0212                     SSPADD          equ	530	;# 
  1336     0213                     SSPMSK          equ	531	;# 
  1337     0214                     SSPSTAT         equ	532	;# 
  1338     0215                     SSPCON1         equ	533	;# 
  1339     0215                     SSPCON          equ	533	;# 
  1340     0216                     SSPCON2         equ	534	;# 
  1341     0217                     SSPCON3         equ	535	;# 
  1342     0291                     CCPR1           equ	657	;# 
  1343     0291                     CCPR1L          equ	657	;# 
  1344     0292                     CCPR1H          equ	658	;# 
  1345     0293                     CCP1CON         equ	659	;# 
  1346     0294                     PWM1CON         equ	660	;# 
  1347     0295                     CCP1AS          equ	661	;# 
  1348     0295                     ECCP1AS         equ	661	;# 
  1349     0296                     PSTR1CON        equ	662	;# 
  1350     0298                     CCPR2           equ	664	;# 
  1351     0298                     CCPR2L          equ	664	;# 
  1352     0299                     CCPR2H          equ	665	;# 
  1353     029A                     CCP2CON         equ	666	;# 
  1354     029B                     PWM2CON         equ	667	;# 
  1355     029C                     CCP2AS          equ	668	;# 
  1356     029C                     ECCP2AS         equ	668	;# 
  1357     029D                     PSTR2CON        equ	669	;# 
  1358     029E                     CCPTMRS0        equ	670	;# 
  1359     029F                     CCPTMRS1        equ	671	;# 
  1360     0311                     CCPR3           equ	785	;# 
  1361     0311                     CCPR3L          equ	785	;# 
  1362     0312                     CCPR3H          equ	786	;# 
  1363     0313                     CCP3CON         equ	787	;# 
  1364     0314                     PWM3CON         equ	788	;# 
  1365     0315                     CCP3AS          equ	789	;# 
  1366     0315                     ECCP3AS         equ	789	;# 
  1367     0316                     PSTR3CON        equ	790	;# 
  1368     0318                     CCPR4           equ	792	;# 
  1369     0318                     CCPR4L          equ	792	;# 
  1370     0319                     CCPR4H          equ	793	;# 
  1371     031A                     CCP4CON         equ	794	;# 
  1372     031C                     CCPR5           equ	796	;# 
  1373     031C                     CCPR5L          equ	796	;# 
  1374     031D                     CCPR5H          equ	797	;# 
  1375     031E                     CCP5CON         equ	798	;# 
  1376     0394                     IOCBP           equ	916	;# 
  1377     0395                     IOCBN           equ	917	;# 
  1378     0396                     IOCBF           equ	918	;# 
  1379     0415                     TMR4            equ	1045	;# 
  1380     0416                     PR4             equ	1046	;# 
  1381     0417                     T4CON           equ	1047	;# 
  1382     041C                     TMR6            equ	1052	;# 
  1383     041D                     PR6             equ	1053	;# 
  1384     041E                     T6CON           equ	1054	;# 
  1385     0791                     LCDCON          equ	1937	;# 
  1386     0792                     LCDPS           equ	1938	;# 
  1387     0793                     LCDREF          equ	1939	;# 
  1388     0794                     LCDCST          equ	1940	;# 
  1389     0795                     LCDRL           equ	1941	;# 
  1390     0798                     LCDSE0          equ	1944	;# 
  1391     0799                     LCDSE1          equ	1945	;# 
  1392     07A0                     LCDDATA0        equ	1952	;# 
  1393     07A1                     LCDDATA1        equ	1953	;# 
  1394     07A3                     LCDDATA3        equ	1955	;# 
  1395     07A4                     LCDDATA4        equ	1956	;# 
  1396     07A6                     LCDDATA6        equ	1958	;# 
  1397     07A7                     LCDDATA7        equ	1959	;# 
  1398     07A9                     LCDDATA9        equ	1961	;# 
  1399     07AA                     LCDDATA10       equ	1962	;# 
  1400     0FE4                     STATUS_SHAD     equ	4068	;# 
  1401     0FE5                     WREG_SHAD       equ	4069	;# 
  1402     0FE6                     BSR_SHAD        equ	4070	;# 
  1403     0FE7                     PCLATH_SHAD     equ	4071	;# 
  1404     0FE8                     FSR0L_SHAD      equ	4072	;# 
  1405     0FE9                     FSR0H_SHAD      equ	4073	;# 
  1406     0FEA                     FSR1L_SHAD      equ	4074	;# 
  1407     0FEB                     FSR1H_SHAD      equ	4075	;# 
  1408     0FED                     STKPTR          equ	4077	;# 
  1409     0FEE                     TOSL            equ	4078	;# 
  1410     0FEF                     TOSH            equ	4079	;# 
  1411     0000                     INDF0           equ	0	;# 
  1412     0001                     INDF1           equ	1	;# 
  1413     0002                     PCL             equ	2	;# 
  1414     0003                     STATUS          equ	3	;# 
  1415     0004                     FSR0L           equ	4	;# 
  1416     0005                     FSR0H           equ	5	;# 
  1417     0006                     FSR1L           equ	6	;# 
  1418     0007                     FSR1H           equ	7	;# 
  1419     0008                     BSR             equ	8	;# 
  1420     0009                     WREG            equ	9	;# 
  1421     000A                     PCLATH          equ	10	;# 
  1422     000B                     INTCON          equ	11	;# 
  1423     000C                     PORTA           equ	12	;# 
  1424     000D                     PORTB           equ	13	;# 
  1425     000E                     PORTC           equ	14	;# 
  1426     0010                     PORTE           equ	16	;# 
  1427     0011                     PIR1            equ	17	;# 
  1428     0012                     PIR2            equ	18	;# 
  1429     0013                     PIR3            equ	19	;# 
  1430     0015                     TMR0            equ	21	;# 
  1431     0016                     TMR1            equ	22	;# 
  1432     0016                     TMR1L           equ	22	;# 
  1433     0017                     TMR1H           equ	23	;# 
  1434     0018                     T1CON           equ	24	;# 
  1435     0019                     T1GCON          equ	25	;# 
  1436     001A                     TMR2            equ	26	;# 
  1437     001B                     PR2             equ	27	;# 
  1438     001C                     T2CON           equ	28	;# 
  1439     001E                     CPSCON0         equ	30	;# 
  1440     001F                     CPSCON1         equ	31	;# 
  1441     008C                     TRISA           equ	140	;# 
  1442     008D                     TRISB           equ	141	;# 
  1443     008E                     TRISC           equ	142	;# 
  1444     0090                     TRISE           equ	144	;# 
  1445     0091                     PIE1            equ	145	;# 
  1446     0092                     PIE2            equ	146	;# 
  1447     0093                     PIE3            equ	147	;# 
  1448     0095                     OPTION_REG      equ	149	;# 
  1449     0096                     PCON            equ	150	;# 
  1450     0097                     WDTCON          equ	151	;# 
  1451     0098                     OSCTUNE         equ	152	;# 
  1452     0099                     OSCCON          equ	153	;# 
  1453     009A                     OSCSTAT         equ	154	;# 
  1454     009B                     ADRES           equ	155	;# 
  1455     009B                     ADRESL          equ	155	;# 
  1456     009C                     ADRESH          equ	156	;# 
  1457     009D                     ADCON0          equ	157	;# 
  1458     009E                     ADCON1          equ	158	;# 
  1459     010C                     LATA            equ	268	;# 
  1460     010D                     LATB            equ	269	;# 
  1461     010E                     LATC            equ	270	;# 
  1462     0110                     LATE            equ	272	;# 
  1463     0111                     CM1CON0         equ	273	;# 
  1464     0112                     CM1CON1         equ	274	;# 
  1465     0113                     CM2CON0         equ	275	;# 
  1466     0114                     CM2CON1         equ	276	;# 
  1467     0115                     CMOUT           equ	277	;# 
  1468     0116                     BORCON          equ	278	;# 
  1469     0117                     FVRCON          equ	279	;# 
  1470     0118                     DACCON0         equ	280	;# 
  1471     0119                     DACCON1         equ	281	;# 
  1472     011A                     SRCON0          equ	282	;# 
  1473     011B                     SRCON1          equ	283	;# 
  1474     011D                     APFCON          equ	285	;# 
  1475     018C                     ANSELA          equ	396	;# 
  1476     018D                     ANSELB          equ	397	;# 
  1477     0191                     EEADR           equ	401	;# 
  1478     0191                     EEADRL          equ	401	;# 
  1479     0192                     EEADRH          equ	402	;# 
  1480     0193                     EEDAT           equ	403	;# 
  1481     0193                     EEDATL          equ	403	;# 
  1482     0193                     EEDATA          equ	403	;# 
  1483     0194                     EEDATH          equ	404	;# 
  1484     0195                     EECON1          equ	405	;# 
  1485     0196                     EECON2          equ	406	;# 
  1486     0199                     RCREG           equ	409	;# 
  1487     019A                     TXREG           equ	410	;# 
  1488     019B                     SP1BRG          equ	411	;# 
  1489     019B                     SP1BRGL         equ	411	;# 
  1490     019B                     SPBRG           equ	411	;# 
  1491     019B                     SPBRGL          equ	411	;# 
  1492     019C                     SP1BRGH         equ	412	;# 
  1493     019C                     SPBRGH          equ	412	;# 
  1494     019D                     RCSTA           equ	413	;# 
  1495     019E                     TXSTA           equ	414	;# 
  1496     019F                     BAUDCON         equ	415	;# 
  1497     020D                     WPUB            equ	525	;# 
  1498     0210                     WPUE            equ	528	;# 
  1499     0211                     SSPBUF          equ	529	;# 
  1500     0212                     SSPADD          equ	530	;# 
  1501     0213                     SSPMSK          equ	531	;# 
  1502     0214                     SSPSTAT         equ	532	;# 
  1503     0215                     SSPCON1         equ	533	;# 
  1504     0215                     SSPCON          equ	533	;# 
  1505     0216                     SSPCON2         equ	534	;# 
  1506     0217                     SSPCON3         equ	535	;# 
  1507     0291                     CCPR1           equ	657	;# 
  1508     0291                     CCPR1L          equ	657	;# 
  1509     0292                     CCPR1H          equ	658	;# 
  1510     0293                     CCP1CON         equ	659	;# 
  1511     0294                     PWM1CON         equ	660	;# 
  1512     0295                     CCP1AS          equ	661	;# 
  1513     0295                     ECCP1AS         equ	661	;# 
  1514     0296                     PSTR1CON        equ	662	;# 
  1515     0298                     CCPR2           equ	664	;# 
  1516     0298                     CCPR2L          equ	664	;# 
  1517     0299                     CCPR2H          equ	665	;# 
  1518     029A                     CCP2CON         equ	666	;# 
  1519     029B                     PWM2CON         equ	667	;# 
  1520     029C                     CCP2AS          equ	668	;# 
  1521     029C                     ECCP2AS         equ	668	;# 
  1522     029D                     PSTR2CON        equ	669	;# 
  1523     029E                     CCPTMRS0        equ	670	;# 
  1524     029F                     CCPTMRS1        equ	671	;# 
  1525     0311                     CCPR3           equ	785	;# 
  1526     0311                     CCPR3L          equ	785	;# 
  1527     0312                     CCPR3H          equ	786	;# 
  1528     0313                     CCP3CON         equ	787	;# 
  1529     0314                     PWM3CON         equ	788	;# 
  1530     0315                     CCP3AS          equ	789	;# 
  1531     0315                     ECCP3AS         equ	789	;# 
  1532     0316                     PSTR3CON        equ	790	;# 
  1533     0318                     CCPR4           equ	792	;# 
  1534     0318                     CCPR4L          equ	792	;# 
  1535     0319                     CCPR4H          equ	793	;# 
  1536     031A                     CCP4CON         equ	794	;# 
  1537     031C                     CCPR5           equ	796	;# 
  1538     031C                     CCPR5L          equ	796	;# 
  1539     031D                     CCPR5H          equ	797	;# 
  1540     031E                     CCP5CON         equ	798	;# 
  1541     0394                     IOCBP           equ	916	;# 
  1542     0395                     IOCBN           equ	917	;# 
  1543     0396                     IOCBF           equ	918	;# 
  1544     0415                     TMR4            equ	1045	;# 
  1545     0416                     PR4             equ	1046	;# 
  1546     0417                     T4CON           equ	1047	;# 
  1547     041C                     TMR6            equ	1052	;# 
  1548     041D                     PR6             equ	1053	;# 
  1549     041E                     T6CON           equ	1054	;# 
  1550     0791                     LCDCON          equ	1937	;# 
  1551     0792                     LCDPS           equ	1938	;# 
  1552     0793                     LCDREF          equ	1939	;# 
  1553     0794                     LCDCST          equ	1940	;# 
  1554     0795                     LCDRL           equ	1941	;# 
  1555     0798                     LCDSE0          equ	1944	;# 
  1556     0799                     LCDSE1          equ	1945	;# 
  1557     07A0                     LCDDATA0        equ	1952	;# 
  1558     07A1                     LCDDATA1        equ	1953	;# 
  1559     07A3                     LCDDATA3        equ	1955	;# 
  1560     07A4                     LCDDATA4        equ	1956	;# 
  1561     07A6                     LCDDATA6        equ	1958	;# 
  1562     07A7                     LCDDATA7        equ	1959	;# 
  1563     07A9                     LCDDATA9        equ	1961	;# 
  1564     07AA                     LCDDATA10       equ	1962	;# 
  1565     0FE4                     STATUS_SHAD     equ	4068	;# 
  1566     0FE5                     WREG_SHAD       equ	4069	;# 
  1567     0FE6                     BSR_SHAD        equ	4070	;# 
  1568     0FE7                     PCLATH_SHAD     equ	4071	;# 
  1569     0FE8                     FSR0L_SHAD      equ	4072	;# 
  1570     0FE9                     FSR0H_SHAD      equ	4073	;# 
  1571     0FEA                     FSR1L_SHAD      equ	4074	;# 
  1572     0FEB                     FSR1H_SHAD      equ	4075	;# 
  1573     0FED                     STKPTR          equ	4077	;# 
  1574     0FEE                     TOSL            equ	4078	;# 
  1575     0FEF                     TOSH            equ	4079	;# 
  1576     0000                     INDF0           equ	0	;# 
  1577     0001                     INDF1           equ	1	;# 
  1578     0002                     PCL             equ	2	;# 
  1579     0003                     STATUS          equ	3	;# 
  1580     0004                     FSR0L           equ	4	;# 
  1581     0005                     FSR0H           equ	5	;# 
  1582     0006                     FSR1L           equ	6	;# 
  1583     0007                     FSR1H           equ	7	;# 
  1584     0008                     BSR             equ	8	;# 
  1585     0009                     WREG            equ	9	;# 
  1586     000A                     PCLATH          equ	10	;# 
  1587     000B                     INTCON          equ	11	;# 
  1588     000C                     PORTA           equ	12	;# 
  1589     000D                     PORTB           equ	13	;# 
  1590     000E                     PORTC           equ	14	;# 
  1591     0010                     PORTE           equ	16	;# 
  1592     0011                     PIR1            equ	17	;# 
  1593     0012                     PIR2            equ	18	;# 
  1594     0013                     PIR3            equ	19	;# 
  1595     0015                     TMR0            equ	21	;# 
  1596     0016                     TMR1            equ	22	;# 
  1597     0016                     TMR1L           equ	22	;# 
  1598     0017                     TMR1H           equ	23	;# 
  1599     0018                     T1CON           equ	24	;# 
  1600     0019                     T1GCON          equ	25	;# 
  1601     001A                     TMR2            equ	26	;# 
  1602     001B                     PR2             equ	27	;# 
  1603     001C                     T2CON           equ	28	;# 
  1604     001E                     CPSCON0         equ	30	;# 
  1605     001F                     CPSCON1         equ	31	;# 
  1606     008C                     TRISA           equ	140	;# 
  1607     008D                     TRISB           equ	141	;# 
  1608     008E                     TRISC           equ	142	;# 
  1609     0090                     TRISE           equ	144	;# 
  1610     0091                     PIE1            equ	145	;# 
  1611     0092                     PIE2            equ	146	;# 
  1612     0093                     PIE3            equ	147	;# 
  1613     0095                     OPTION_REG      equ	149	;# 
  1614     0096                     PCON            equ	150	;# 
  1615     0097                     WDTCON          equ	151	;# 
  1616     0098                     OSCTUNE         equ	152	;# 
  1617     0099                     OSCCON          equ	153	;# 
  1618     009A                     OSCSTAT         equ	154	;# 
  1619     009B                     ADRES           equ	155	;# 
  1620     009B                     ADRESL          equ	155	;# 
  1621     009C                     ADRESH          equ	156	;# 
  1622     009D                     ADCON0          equ	157	;# 
  1623     009E                     ADCON1          equ	158	;# 
  1624     010C                     LATA            equ	268	;# 
  1625     010D                     LATB            equ	269	;# 
  1626     010E                     LATC            equ	270	;# 
  1627     0110                     LATE            equ	272	;# 
  1628     0111                     CM1CON0         equ	273	;# 
  1629     0112                     CM1CON1         equ	274	;# 
  1630     0113                     CM2CON0         equ	275	;# 
  1631     0114                     CM2CON1         equ	276	;# 
  1632     0115                     CMOUT           equ	277	;# 
  1633     0116                     BORCON          equ	278	;# 
  1634     0117                     FVRCON          equ	279	;# 
  1635     0118                     DACCON0         equ	280	;# 
  1636     0119                     DACCON1         equ	281	;# 
  1637     011A                     SRCON0          equ	282	;# 
  1638     011B                     SRCON1          equ	283	;# 
  1639     011D                     APFCON          equ	285	;# 
  1640     018C                     ANSELA          equ	396	;# 
  1641     018D                     ANSELB          equ	397	;# 
  1642     0191                     EEADR           equ	401	;# 
  1643     0191                     EEADRL          equ	401	;# 
  1644     0192                     EEADRH          equ	402	;# 
  1645     0193                     EEDAT           equ	403	;# 
  1646     0193                     EEDATL          equ	403	;# 
  1647     0193                     EEDATA          equ	403	;# 
  1648     0194                     EEDATH          equ	404	;# 
  1649     0195                     EECON1          equ	405	;# 
  1650     0196                     EECON2          equ	406	;# 
  1651     0199                     RCREG           equ	409	;# 
  1652     019A                     TXREG           equ	410	;# 
  1653     019B                     SP1BRG          equ	411	;# 
  1654     019B                     SP1BRGL         equ	411	;# 
  1655     019B                     SPBRG           equ	411	;# 
  1656     019B                     SPBRGL          equ	411	;# 
  1657     019C                     SP1BRGH         equ	412	;# 
  1658     019C                     SPBRGH          equ	412	;# 
  1659     019D                     RCSTA           equ	413	;# 
  1660     019E                     TXSTA           equ	414	;# 
  1661     019F                     BAUDCON         equ	415	;# 
  1662     020D                     WPUB            equ	525	;# 
  1663     0210                     WPUE            equ	528	;# 
  1664     0211                     SSPBUF          equ	529	;# 
  1665     0212                     SSPADD          equ	530	;# 
  1666     0213                     SSPMSK          equ	531	;# 
  1667     0214                     SSPSTAT         equ	532	;# 
  1668     0215                     SSPCON1         equ	533	;# 
  1669     0215                     SSPCON          equ	533	;# 
  1670     0216                     SSPCON2         equ	534	;# 
  1671     0217                     SSPCON3         equ	535	;# 
  1672     0291                     CCPR1           equ	657	;# 
  1673     0291                     CCPR1L          equ	657	;# 
  1674     0292                     CCPR1H          equ	658	;# 
  1675     0293                     CCP1CON         equ	659	;# 
  1676     0294                     PWM1CON         equ	660	;# 
  1677     0295                     CCP1AS          equ	661	;# 
  1678     0295                     ECCP1AS         equ	661	;# 
  1679     0296                     PSTR1CON        equ	662	;# 
  1680     0298                     CCPR2           equ	664	;# 
  1681     0298                     CCPR2L          equ	664	;# 
  1682     0299                     CCPR2H          equ	665	;# 
  1683     029A                     CCP2CON         equ	666	;# 
  1684     029B                     PWM2CON         equ	667	;# 
  1685     029C                     CCP2AS          equ	668	;# 
  1686     029C                     ECCP2AS         equ	668	;# 
  1687     029D                     PSTR2CON        equ	669	;# 
  1688     029E                     CCPTMRS0        equ	670	;# 
  1689     029F                     CCPTMRS1        equ	671	;# 
  1690     0311                     CCPR3           equ	785	;# 
  1691     0311                     CCPR3L          equ	785	;# 
  1692     0312                     CCPR3H          equ	786	;# 
  1693     0313                     CCP3CON         equ	787	;# 
  1694     0314                     PWM3CON         equ	788	;# 
  1695     0315                     CCP3AS          equ	789	;# 
  1696     0315                     ECCP3AS         equ	789	;# 
  1697     0316                     PSTR3CON        equ	790	;# 
  1698     0318                     CCPR4           equ	792	;# 
  1699     0318                     CCPR4L          equ	792	;# 
  1700     0319                     CCPR4H          equ	793	;# 
  1701     031A                     CCP4CON         equ	794	;# 
  1702     031C                     CCPR5           equ	796	;# 
  1703     031C                     CCPR5L          equ	796	;# 
  1704     031D                     CCPR5H          equ	797	;# 
  1705     031E                     CCP5CON         equ	798	;# 
  1706     0394                     IOCBP           equ	916	;# 
  1707     0395                     IOCBN           equ	917	;# 
  1708     0396                     IOCBF           equ	918	;# 
  1709     0415                     TMR4            equ	1045	;# 
  1710     0416                     PR4             equ	1046	;# 
  1711     0417                     T4CON           equ	1047	;# 
  1712     041C                     TMR6            equ	1052	;# 
  1713     041D                     PR6             equ	1053	;# 
  1714     041E                     T6CON           equ	1054	;# 
  1715     0791                     LCDCON          equ	1937	;# 
  1716     0792                     LCDPS           equ	1938	;# 
  1717     0793                     LCDREF          equ	1939	;# 
  1718     0794                     LCDCST          equ	1940	;# 
  1719     0795                     LCDRL           equ	1941	;# 
  1720     0798                     LCDSE0          equ	1944	;# 
  1721     0799                     LCDSE1          equ	1945	;# 
  1722     07A0                     LCDDATA0        equ	1952	;# 
  1723     07A1                     LCDDATA1        equ	1953	;# 
  1724     07A3                     LCDDATA3        equ	1955	;# 
  1725     07A4                     LCDDATA4        equ	1956	;# 
  1726     07A6                     LCDDATA6        equ	1958	;# 
  1727     07A7                     LCDDATA7        equ	1959	;# 
  1728     07A9                     LCDDATA9        equ	1961	;# 
  1729     07AA                     LCDDATA10       equ	1962	;# 
  1730     0FE4                     STATUS_SHAD     equ	4068	;# 
  1731     0FE5                     WREG_SHAD       equ	4069	;# 
  1732     0FE6                     BSR_SHAD        equ	4070	;# 
  1733     0FE7                     PCLATH_SHAD     equ	4071	;# 
  1734     0FE8                     FSR0L_SHAD      equ	4072	;# 
  1735     0FE9                     FSR0H_SHAD      equ	4073	;# 
  1736     0FEA                     FSR1L_SHAD      equ	4074	;# 
  1737     0FEB                     FSR1H_SHAD      equ	4075	;# 
  1738     0FED                     STKPTR          equ	4077	;# 
  1739     0FEE                     TOSL            equ	4078	;# 
  1740     0FEF                     TOSH            equ	4079	;# 
  1741                           
  1742 ;; Function _EUSART_DefaultFramingErrorHandler is unused but had its address taken
  1743     0000                     _EUSART_DefaultFramingErrorHandler equ	0
  1744                           
  1745 ;; Function _EUSART_DefaultOverrunErrorHandler is unused but had its address taken
  1746     0000                     _EUSART_DefaultOverrunErrorHandler equ	0
  1747                           
  1748 ;; Function _EUSART_DefaultErrorHandler is unused but had its address taken
  1749     0000                     _EUSART_DefaultErrorHandler equ	0
  1750                           
  1751                           	psect	idataCOMMON
  1752     0737                     __pidataCOMMON:
  1753                           
  1754                           ;initializer for key_debounce@sw1_previous_state
  1755     0737  3401               	retlw	1
  1756                           
  1757                           	psect	idataBANK0
  1758     0738                     __pidataBANK0:
  1759                           
  1760                           ;initializer for _flag_Key_release
  1761     0738  3401               	retlw	1
  1762                           
  1763                           	psect	nvBANK0
  1764     003B                     __pnvBANK0:
  1765     003B                     _EUSART_ErrorHandler:
  1766     003B                     	ds	2
  1767     003D                     _EUSART_OverrunErrorHandler:
  1768     003D                     	ds	2
  1769     003F                     _EUSART_FramingErrorHandler:
  1770     003F                     	ds	2
  1771     0041                     _TMR0_InterruptHandler:
  1772     0041                     	ds	2
  1773     0011                     _PIR1bits       set	17
  1774     0015                     _TMR0           set	21
  1775     000B                     _INTCONbits     set	11
  1776     000D                     _PORTBbits      set	13
  1777     0095                     _OPTION_REGbits set	149
  1778     008E                     _TRISC          set	142
  1779     008D                     _TRISB          set	141
  1780     008C                     _TRISA          set	140
  1781     0090                     _TRISE          set	144
  1782     009D                     _ADCON0bits     set	157
  1783     009D                     _ADCON0         set	157
  1784     009C                     _ADRESH         set	156
  1785     009B                     _ADRESL         set	155
  1786     009E                     _ADCON1         set	158
  1787     0097                     _WDTCON         set	151
  1788     0098                     _OSCTUNE        set	152
  1789     0099                     _OSCCON         set	153
  1790     0095                     _OPTION_REG     set	149
  1791     008E                     _TRISCbits      set	142
  1792     008C                     _TRISAbits      set	140
  1793     011D                     _APFCON         set	285
  1794     010E                     _LATC           set	270
  1795     010D                     _LATB           set	269
  1796     010C                     _LATA           set	268
  1797     0110                     _LATE           set	272
  1798     0116                     _BORCON         set	278
  1799     010C                     _LATAbits       set	268
  1800     010E                     _LATCbits       set	270
  1801     019A                     _TXREG          set	410
  1802     0199                     _RCREG          set	409
  1803     019D                     _RCSTAbits      set	413
  1804     019E                     _TXSTAbits      set	414
  1805     019C                     _SPBRGH         set	412
  1806     019B                     _SPBRGL         set	411
  1807     019E                     _TXSTA          set	414
  1808     019D                     _RCSTA          set	413
  1809     019F                     _BAUDCON        set	415
  1810     018C                     _ANSELA         set	396
  1811     018D                     _ANSELB         set	397
  1812     020D                     _WPUB           set	525
  1813     0210                     _WPUE           set	528
  1814                           
  1815                           	psect	cinit
  1816     0015                     start_initialization:	
  1817                           ; #config settings
  1818                           
  1819     0015                     __initialization:
  1820                           
  1821                           ; Initialize objects allocated to COMMON
  1822     0015  3187  2737  3180   	fcall	__pidataCOMMON	;fetch initializer
  1823     0018  00FD               	movwf	__pdataCOMMON& (0+127)
  1824                           
  1825                           ; Initialize objects allocated to BANK0
  1826     0019  3187  2738  3180   	fcall	__pidataBANK0	;fetch initializer
  1827     001C  00CB               	movwf	__pdataBANK0& (0+127)
  1828                           
  1829                           ; Clear objects allocated to COMMON
  1830     001D  01FC               	clrf	__pbssCOMMON& (0+127)
  1831                           
  1832                           ; Clear objects allocated to BANK0
  1833     001E  3020               	movlw	low __pbssBANK0
  1834     001F  0084               	movwf	4
  1835     0020  3000               	movlw	high __pbssBANK0
  1836     0021  0085               	movwf	5
  1837     0022  301B               	movlw	27
  1838     0023  3187  2715  3180   	fcall	clear_ram0
  1839     0026                     end_of_initialization:	
  1840                           ;End of C runtime variable initialization code
  1841                           
  1842     0026                     __end_of__initialization:
  1843     0026  107E               	bcf	int$flags,0	;clear compiler interrupt flag (level 1)
  1844     0027  0020               	movlb	0
  1845     0028  3186  2E3B         	ljmp	_main	;jump to C main() function
  1846                           
  1847                           	psect	bssCOMMON
  1848     007C                     __pbssCOMMON:
  1849     007C                     _timer0ReloadVal:
  1850     007C                     	ds	1
  1851                           
  1852                           	psect	dataCOMMON
  1853     007D                     __pdataCOMMON:
  1854     007D                     key_debounce@sw1_previous_state:
  1855     007D                     	ds	1
  1856                           
  1857                           	psect	bssBANK0
  1858     0020                     __pbssBANK0:
  1859     0020                     _last_time:
  1860     0020                     	ds	4
  1861     0024                     _current_time:
  1862     0024                     	ds	4
  1863     0028                     key_debounce@previous_time:
  1864     0028                     	ds	4
  1865     002C                     _milliseconds:
  1866     002C                     	ds	4
  1867     0030                     _T1000ms:
  1868     0030                     	ds	2
  1869     0032                     _T500ms:
  1870     0032                     	ds	2
  1871     0034                     _T250ms:
  1872     0034                     	ds	2
  1873     0036                     _ADC_InterruptHandler:
  1874     0036                     	ds	2
  1875     0038                     _temp_cnt:
  1876     0038                     	ds	1
  1877     0039                     _eusartRxLastError:
  1878     0039                     	ds	1
  1879     003A                     _SW1_STATUS:
  1880     003A                     	ds	1
  1881                           
  1882                           	psect	dataBANK0
  1883     004B                     __pdataBANK0:
  1884     004B                     _flag_Key_release:
  1885     004B                     	ds	1
  1886                           
  1887                           	psect	clrtext
  1888     0715                     clear_ram0:	
  1889                           ;	Called with FSR0 containing the base address, and
  1890                           ;	WREG with the size to clear
  1891                           
  1892     0715  0064               	clrwdt	;clear the watchdog before getting into this loop
  1893     0716                     clrloop0:
  1894     0716  0180               	clrf	0	;clear RAM location pointed to by FSR
  1895     0717  3101               	addfsr 0,1
  1896     0718  0B89               	decfsz	9,f	;Have we reached the end of clearing yet?
  1897     0719  2F16               	goto	clrloop0	;have we reached the end yet?
  1898     071A  3400               	retlw	0	;all done for this memory range, return
  1899                           
  1900                           	psect	cstackCOMMON
  1901     0070                     __pcstackCOMMON:
  1902     0070                     ?_TMR0_ISR:
  1903     0070                     ?_TMR0_SetInterruptHandler:	
  1904                           ; 1 bytes @ 0x0
  1905                           
  1906     0070                     ?_PIN_MANAGER_Initialize:	
  1907                           ; 1 bytes @ 0x0
  1908                           
  1909     0070                     ?_OSCILLATOR_Initialize:	
  1910                           ; 1 bytes @ 0x0
  1911                           
  1912     0070                     ?_WDT_Initialize:	
  1913                           ; 1 bytes @ 0x0
  1914                           
  1915     0070                     ?_ADC_Initialize:	
  1916                           ; 1 bytes @ 0x0
  1917                           
  1918     0070                     ?_EUSART_Initialize:	
  1919                           ; 1 bytes @ 0x0
  1920                           
  1921     0070                     ?_EUSART_SetFramingErrorHandler:	
  1922                           ; 1 bytes @ 0x0
  1923                           
  1924     0070                     ?_EUSART_SetOverrunErrorHandler:	
  1925                           ; 1 bytes @ 0x0
  1926                           
  1927     0070                     ?_EUSART_SetErrorHandler:	
  1928                           ; 1 bytes @ 0x0
  1929                           
  1930     0070                     ?_TMR0_timerHandler:	
  1931                           ; 1 bytes @ 0x0
  1932                           
  1933     0070                     ?_LED_DISABLE:	
  1934                           ; 1 bytes @ 0x0
  1935                           
  1936     0070                     ?_SSLED:	
  1937                           ; 1 bytes @ 0x0
  1938                           
  1939     0070                     ?_key_debounce:	
  1940                           ; 1 bytes @ 0x0
  1941                           
  1942     0070                     ?_INTERRUPT_InterruptManager:	
  1943                           ; 1 bytes @ 0x0
  1944                           
  1945     0070                     ?_TMR0_Initialize:	
  1946                           ; 1 bytes @ 0x0
  1947                           
  1948     0070                     ?_SYSTEM_Initialize:	
  1949                           ; 1 bytes @ 0x0
  1950                           
  1951     0070                     ?_main:	
  1952                           ; 1 bytes @ 0x0
  1953                           
  1954     0070                     ?___awmod:	
  1955                           ; 2 bytes @ 0x0
  1956                           
  1957     0070                     ?___lwdiv:	
  1958                           ; 2 bytes @ 0x0
  1959                           
  1960     0070                     ?___lwmod:	
  1961                           ; 2 bytes @ 0x0
  1962                           
  1963     0070                     ?_get_time_ms:	
  1964                           ; 2 bytes @ 0x0
  1965                           
  1966     0070                     SSLED@xa:	
  1967                           ; 4 bytes @ 0x0
  1968                           
  1969     0070                     TMR0_SetInterruptHandler@InterruptHandler:	
  1970                           ; 1 bytes @ 0x0
  1971                           
  1972     0070                     EUSART_SetFramingErrorHandler@interruptHandler:	
  1973                           ; 2 bytes @ 0x0
  1974                           
  1975     0070                     EUSART_SetOverrunErrorHandler@interruptHandler:	
  1976                           ; 2 bytes @ 0x0
  1977                           
  1978     0070                     EUSART_SetErrorHandler@interruptHandler:	
  1979                           ; 2 bytes @ 0x0
  1980                           
  1981     0070                     ___awmod@divisor:	
  1982                           ; 2 bytes @ 0x0
  1983                           
  1984     0070                     ___lwdiv@divisor:	
  1985                           ; 2 bytes @ 0x0
  1986                           
  1987     0070                     ___lwmod@divisor:	
  1988                           ; 2 bytes @ 0x0
  1989                           
  1990     0070                     ??_TMR0_ISR:	
  1991                           ; 2 bytes @ 0x0
  1992                           
  1993     0070                     ??_PIN_MANAGER_Initialize:	
  1994                           ; 1 bytes @ 0x0
  1995                           
  1996     0070                     ??_OSCILLATOR_Initialize:	
  1997                           ; 1 bytes @ 0x0
  1998                           
  1999     0070                     ??_WDT_Initialize:	
  2000                           ; 1 bytes @ 0x0
  2001                           
  2002     0070                     ??_ADC_Initialize:	
  2003                           ; 1 bytes @ 0x0
  2004                           
  2005     0070                     ??_TMR0_timerHandler:	
  2006                           ; 1 bytes @ 0x0
  2007                           
  2008     0070                     ??_LED_DISABLE:	
  2009                           ; 1 bytes @ 0x0
  2010                           
  2011     0070                     ??_INTERRUPT_InterruptManager:	
  2012                           ; 1 bytes @ 0x0
  2013                           
  2014                           
  2015                           ; 1 bytes @ 0x0
  2016     0070                     	ds	1
  2017     0071                     SSLED@nu:
  2018     0071                     ??_SSLED:	
  2019                           ; 1 bytes @ 0x1
  2020                           
  2021                           
  2022                           ; 1 bytes @ 0x1
  2023     0071                     	ds	1
  2024     0072                     ?_SSD:
  2025     0072                     SSD@xn:	
  2026                           ; 1 bytes @ 0x2
  2027                           
  2028     0072                     ___awmod@dividend:	
  2029                           ; 1 bytes @ 0x2
  2030                           
  2031     0072                     ___lwdiv@dividend:	
  2032                           ; 2 bytes @ 0x2
  2033                           
  2034     0072                     ___lwmod@dividend:	
  2035                           ; 2 bytes @ 0x2
  2036                           
  2037     0072                     ??_TMR0_SetInterruptHandler:	
  2038                           ; 2 bytes @ 0x2
  2039                           
  2040     0072                     ??_EUSART_Initialize:	
  2041                           ; 1 bytes @ 0x2
  2042                           
  2043     0072                     ??_EUSART_SetFramingErrorHandler:	
  2044                           ; 1 bytes @ 0x2
  2045                           
  2046     0072                     ??_EUSART_SetOverrunErrorHandler:	
  2047                           ; 1 bytes @ 0x2
  2048                           
  2049     0072                     ??_EUSART_SetErrorHandler:	
  2050                           ; 1 bytes @ 0x2
  2051                           
  2052     0072                     ??_TMR0_Initialize:	
  2053                           ; 1 bytes @ 0x2
  2054                           
  2055     0072                     ??_SYSTEM_Initialize:	
  2056                           ; 1 bytes @ 0x2
  2057                           
  2058                           
  2059                           ; 1 bytes @ 0x2
  2060     0072                     	ds	1
  2061     0073                     SSD@num:
  2062     0073                     ??_SSD:	
  2063                           ; 1 bytes @ 0x3
  2064                           
  2065                           
  2066                           ; 1 bytes @ 0x3
  2067     0073                     	ds	1
  2068     0074                     ?_disp_7seg:
  2069     0074                     disp_7seg@char2:	
  2070                           ; 1 bytes @ 0x4
  2071                           
  2072     0074                     ___awmod@counter:	
  2073                           ; 1 bytes @ 0x4
  2074                           
  2075     0074                     ___lwmod@counter:	
  2076                           ; 1 bytes @ 0x4
  2077                           
  2078     0074                     ___lwdiv@quotient:	
  2079                           ; 1 bytes @ 0x4
  2080                           
  2081     0074                     ??_get_time_ms:	
  2082                           ; 2 bytes @ 0x4
  2083                           
  2084     0074                     ??_key_debounce:	
  2085                           ; 1 bytes @ 0x4
  2086                           
  2087     0074                     ??___awmod:	
  2088                           ; 1 bytes @ 0x4
  2089                           
  2090     0074                     ??___lwdiv:	
  2091                           ; 1 bytes @ 0x4
  2092                           
  2093     0074                     ??___lwmod:	
  2094                           ; 1 bytes @ 0x4
  2095                           
  2096                           
  2097                           ; 1 bytes @ 0x4
  2098     0074                     	ds	1
  2099     0075                     disp_7seg@char3:
  2100     0075                     ___awmod@sign:	
  2101                           ; 1 bytes @ 0x5
  2102                           
  2103                           
  2104                           ; 1 bytes @ 0x5
  2105     0075                     	ds	1
  2106     0076                     disp_7seg@char1:
  2107     0076                     ___lwdiv@counter:	
  2108                           ; 1 bytes @ 0x6
  2109                           
  2110     0076                     ??_disp_7seg:	
  2111                           ; 1 bytes @ 0x6
  2112                           
  2113                           
  2114                           ; 1 bytes @ 0x6
  2115     0076                     	ds	1
  2116     0077                     ?_disp_sub:
  2117     0077                     disp_sub@disp_char:	
  2118                           ; 1 bytes @ 0x7
  2119                           
  2120                           
  2121                           ; 1 bytes @ 0x7
  2122     0077                     	ds	1
  2123     0078                     key_debounce@current_time:
  2124     0078                     ??_disp_sub:	
  2125                           ; 4 bytes @ 0x8
  2126                           
  2127                           
  2128                           ; 1 bytes @ 0x8
  2129     0078                     	ds	4
  2130     007C                     ??_main:
  2131                           
  2132                           	psect	cstackBANK0
  2133     0043                     __pcstackBANK0:	
  2134                           ; 1 bytes @ 0xC
  2135                           
  2136     0043                     disp_sub@disp_temp:
  2137                           
  2138                           ; 1 bytes @ 0x0
  2139     0043                     	ds	1
  2140     0044                     disp_sub@display_digital2:
  2141                           
  2142                           ; 1 bytes @ 0x1
  2143     0044                     	ds	1
  2144     0045                     disp_sub@display_digital3:
  2145                           
  2146                           ; 1 bytes @ 0x2
  2147     0045                     	ds	1
  2148     0046                     disp_sub@temp:
  2149                           
  2150                           ; 2 bytes @ 0x3
  2151     0046                     	ds	2
  2152     0048                     disp_sub@i:
  2153                           
  2154                           ; 2 bytes @ 0x5
  2155     0048                     	ds	2
  2156     004A                     disp_sub@display_digital1:
  2157                           
  2158                           ; 1 bytes @ 0x7
  2159     004A                     	ds	1
  2160                           
  2161                           	psect	maintext
  2162     063B                     __pmaintext:	
  2163 ;;
  2164 ;;Main: autosize = 0, tempsize = 0, incstack = 0, save=0
  2165 ;;
  2166 ;; *************** function _main *****************
  2167 ;; Defined at:
  2168 ;;		line 72 in file "main.c"
  2169 ;; Parameters:    Size  Location     Type
  2170 ;;		None
  2171 ;; Auto vars:     Size  Location     Type
  2172 ;;		None
  2173 ;; Return value:  Size  Location     Type
  2174 ;;                  2  625[None  ] int 
  2175 ;; Registers used:
  2176 ;;		wreg, status,2, status,0, pclath, cstack
  2177 ;; Tracked objects:
  2178 ;;		On entry : B1F/0
  2179 ;;		On exit  : 0/0
  2180 ;;		Unchanged: 0/0
  2181 ;; Data sizes:     COMMON   BANK0   BANK1   BANK2   BANK3   BANK4   BANK5   BANK6
  2182 ;;      Params:         0       0       0       0       0       0       0       0
  2183 ;;      Locals:         0       0       0       0       0       0       0       0
  2184 ;;      Temps:          0       0       0       0       0       0       0       0
  2185 ;;      Totals:         0       0       0       0       0       0       0       0
  2186 ;;Total ram usage:        0 bytes
  2187 ;; Hardware stack levels required when called: 8
  2188 ;; This function calls:
  2189 ;;		_SYSTEM_Initialize
  2190 ;;		_TMR0_SetInterruptHandler
  2191 ;;		_disp_sub
  2192 ;;		_key_debounce
  2193 ;; This function is called by:
  2194 ;;		Startup code after reset
  2195 ;; This function uses a non-reentrant model
  2196 ;;
  2197                           
  2198     063B                     _main:	
  2199                           ;psect for function _main
  2200                           
  2201     063B                     l2491:	
  2202                           ;incstack = 0
  2203                           ; Regs used in _main: [wreg+status,2+status,0+pclath+cstack]
  2204                           
  2205                           
  2206                           ;main.c: 75:     SYSTEM_Initialize();
  2207     063B  3186  26D2  3186   	fcall	_SYSTEM_Initialize
  2208                           
  2209                           ;main.c: 76:     TMR0_SetInterruptHandler(TMR0_timerHandler);
  2210     063E  3011               	movlw	low _TMR0_timerHandler
  2211     063F  00F0               	movwf	TMR0_SetInterruptHandler@InterruptHandler
  2212     0640  3006               	movlw	high _TMR0_timerHandler
  2213     0641  00F1               	movwf	TMR0_SetInterruptHandler@InterruptHandler+1
  2214     0642  3187  271B  3186   	fcall	_TMR0_SetInterruptHandler
  2215     0645                     l2493:
  2216                           
  2217                           ;main.c: 82:     (INTCONbits.GIE = 1);
  2218     0645  178B               	bsf	11,7	;volatile
  2219     0646                     l2495:
  2220                           
  2221                           ;main.c: 85:     (INTCONbits.PEIE = 1);
  2222     0646  170B               	bsf	11,6	;volatile
  2223     0647                     l626:	
  2224                           ;main.c: 93:     while (1)
  2225                           
  2226                           
  2227                           ;main.c: 94:     {;main.c: 104:         key_debounce();
  2228     0647  3184  246F  3186   	fcall	_key_debounce
  2229     064A                     l2497:
  2230                           
  2231                           ;main.c: 105:         if((SW1_STATUS==KEY_STATE_SHORT_PRESS)&&(flag_Key_release==1))
  2232     064A  0020               	movlb	0	; select bank0
  2233     064B  033A               	decf	_SW1_STATUS,w
  2234     064C  1D03               	btfss	3,2
  2235     064D  2E4F               	goto	u1621
  2236     064E  2E50               	goto	u1620
  2237     064F                     u1621:
  2238     064F  2E58               	goto	l2505
  2239     0650                     u1620:
  2240     0650                     l2499:
  2241     0650  034B               	decf	_flag_Key_release,w
  2242     0651  1D03               	btfss	3,2
  2243     0652  2E54               	goto	u1631
  2244     0653  2E55               	goto	u1630
  2245     0654                     u1631:
  2246     0654  2E58               	goto	l2505
  2247     0655                     u1630:
  2248     0655                     l2501:
  2249                           
  2250                           ;main.c: 106:         {;main.c: 107:             temp_cnt++;
  2251     0655  3001               	movlw	1
  2252     0656  07B8               	addwf	_temp_cnt,f
  2253     0657                     l2503:
  2254                           
  2255                           ;main.c: 108:             flag_Key_release = 0 ;
  2256     0657  01CB               	clrf	_flag_Key_release
  2257     0658                     l2505:
  2258                           
  2259                           ;main.c: 110:         disp_sub(temp_cnt,11);
  2260     0658  300B               	movlw	11
  2261     0659  00F7               	movwf	disp_sub@disp_char
  2262     065A  0838               	movf	_temp_cnt,w
  2263     065B  3184  24FD  3186   	fcall	_disp_sub
  2264     065E  2E47               	goto	l626
  2265     065F  3180  2813         	ljmp	start
  2266     0661                     __end_of_main:
  2267                           
  2268                           	psect	text1
  2269     046F                     __ptext1:	
  2270 ;; *************** function _key_debounce *****************
  2271 ;; Defined at:
  2272 ;;		line 19 in file "mcc_generated_files/key/key.c"
  2273 ;; Parameters:    Size  Location     Type
  2274 ;;		None
  2275 ;; Auto vars:     Size  Location     Type
  2276 ;;  current_time    4    8[COMMON] unsigned long 
  2277 ;;  sw1_current_    1    0        unsigned char 
  2278 ;; Return value:  Size  Location     Type
  2279 ;;                  1    wreg      void 
  2280 ;; Registers used:
  2281 ;;		wreg, status,2, status,0, pclath, cstack
  2282 ;; Tracked objects:
  2283 ;;		On entry : 0/0
  2284 ;;		On exit  : 0/0
  2285 ;;		Unchanged: 0/0
  2286 ;; Data sizes:     COMMON   BANK0   BANK1   BANK2   BANK3   BANK4   BANK5   BANK6
  2287 ;;      Params:         0       0       0       0       0       0       0       0
  2288 ;;      Locals:         4       0       0       0       0       0       0       0
  2289 ;;      Temps:          4       0       0       0       0       0       0       0
  2290 ;;      Totals:         8       0       0       0       0       0       0       0
  2291 ;;Total ram usage:        8 bytes
  2292 ;; Hardware stack levels used: 1
  2293 ;; Hardware stack levels required when called: 4
  2294 ;; This function calls:
  2295 ;;		_get_time_ms
  2296 ;; This function is called by:
  2297 ;;		_main
  2298 ;; This function uses a non-reentrant model
  2299 ;;
  2300                           
  2301     046F                     _key_debounce:	
  2302                           ;psect for function _key_debounce
  2303                           
  2304     046F                     l2431:	
  2305                           ;incstack = 0
  2306                           ; Regs used in _key_debounce: [wreg+status,2+status,0+pclath+cstack]
  2307                           
  2308                           
  2309                           ;mcc_generated_files/key/key.c: 20:   static long previous_time;;mcc_generated_files/key
      +                          /key.c: 21:   static unsigned char sw1_previous_state = 1;;mcc_generated_files/key/key.c
      +                          : 22:   unsigned char sw1_current_state;;mcc_generated_files/key/key.c: 24:   unsigned l
      +                          ong current_time = get_time_ms();
  2310     046F  3186  26F5  3184   	fcall	_get_time_ms
  2311     0472  0873               	movf	?_get_time_ms+3,w
  2312     0473  00FB               	movwf	key_debounce@current_time+3
  2313     0474  0872               	movf	?_get_time_ms+2,w
  2314     0475  00FA               	movwf	key_debounce@current_time+2
  2315     0476  0871               	movf	?_get_time_ms+1,w
  2316     0477  00F9               	movwf	key_debounce@current_time+1
  2317     0478  0870               	movf	?_get_time_ms,w
  2318     0479  00F8               	movwf	key_debounce@current_time
  2319     047A                     l2433:
  2320                           
  2321                           ;mcc_generated_files/key/key.c: 26:   if (PORTBbits.RB1 == 0) {
  2322     047A  0020               	movlb	0	; select bank0
  2323     047B  188D               	btfsc	13,1	;volatile
  2324     047C  2C7E               	goto	u1511
  2325     047D  2C7F               	goto	u1510
  2326     047E                     u1511:
  2327     047E  2CCD               	goto	l347
  2328     047F                     u1510:
  2329     047F                     l2435:
  2330     047F                     l2437:
  2331                           
  2332                           ;mcc_generated_files/key/key.c: 28:     if (sw1_previous_state != sw1_current_state) {
  2333     047F  087D               	movf	key_debounce@sw1_previous_state,w
  2334     0480  1903               	btfsc	3,2
  2335     0481  2C83               	goto	u1521
  2336     0482  2C84               	goto	u1520
  2337     0483                     u1521:
  2338     0483  2C8E               	goto	l2441
  2339     0484                     u1520:
  2340     0484                     l2439:
  2341                           
  2342                           ;mcc_generated_files/key/key.c: 29:       previous_time = current_time;
  2343     0484  087B               	movf	key_debounce@current_time+3,w
  2344     0485  00AB               	movwf	key_debounce@previous_time+3
  2345     0486  087A               	movf	key_debounce@current_time+2,w
  2346     0487  00AA               	movwf	key_debounce@previous_time+2
  2347     0488  0879               	movf	key_debounce@current_time+1,w
  2348     0489  00A9               	movwf	key_debounce@previous_time+1
  2349     048A  0878               	movf	key_debounce@current_time,w
  2350     048B  00A8               	movwf	key_debounce@previous_time
  2351                           
  2352                           ;mcc_generated_files/key/key.c: 30:       sw1_previous_state = sw1_current_state;
  2353     048C  01FD               	clrf	key_debounce@sw1_previous_state
  2354                           
  2355                           ;mcc_generated_files/key/key.c: 31:     } else {
  2356     048D  2CFC               	goto	l357
  2357     048E                     l2441:
  2358                           
  2359                           ;mcc_generated_files/key/key.c: 32:       if (current_time - previous_time > 1000) {
  2360     048E  0828               	movf	key_debounce@previous_time,w
  2361     048F  0278               	subwf	key_debounce@current_time,w
  2362     0490  00F4               	movwf	??_key_debounce
  2363     0491  0829               	movf	key_debounce@previous_time+1,w
  2364     0492  3B79               	subwfb	key_debounce@current_time+1,w
  2365     0493  00F5               	movwf	??_key_debounce+1
  2366     0494  082A               	movf	key_debounce@previous_time+2,w
  2367     0495  3B7A               	subwfb	key_debounce@current_time+2,w
  2368     0496  00F6               	movwf	??_key_debounce+2
  2369     0497  082B               	movf	key_debounce@previous_time+3,w
  2370     0498  3B7B               	subwfb	key_debounce@current_time+3,w
  2371     0499  00F7               	movwf	??_key_debounce+3
  2372     049A  0877               	movf	??_key_debounce+3,w
  2373     049B  1D03               	btfss	3,2
  2374     049C  2CA8               	goto	u1530
  2375     049D  0876               	movf	??_key_debounce+2,w
  2376     049E  1D03               	btfss	3,2
  2377     049F  2CA8               	goto	u1530
  2378     04A0  30E9               	movlw	233
  2379     04A1  0274               	subwf	??_key_debounce,w
  2380     04A2  3003               	movlw	3
  2381     04A3  3B75               	subwfb	??_key_debounce+1,w
  2382     04A4  1C03               	btfss	3,0
  2383     04A5  2CA7               	goto	u1531
  2384     04A6  2CA8               	goto	u1530
  2385     04A7                     u1531:
  2386     04A7  2CAC               	goto	l2445
  2387     04A8                     u1530:
  2388     04A8                     l2443:
  2389                           
  2390                           ;mcc_generated_files/key/key.c: 33:         SW1_STATUS = KEY_STATE_LONG_PRESS;
  2391     04A8  3002               	movlw	2
  2392     04A9  0020               	movlb	0	; select bank0
  2393     04AA  00BA               	movwf	_SW1_STATUS
  2394                           
  2395                           ;mcc_generated_files/key/key.c: 34:       } else if (current_time - previous_time > 50) 
      +                          {
  2396     04AB  2CFC               	goto	l357
  2397     04AC                     l2445:
  2398     04AC  0020               	movlb	0	; select bank0
  2399     04AD  0828               	movf	key_debounce@previous_time,w
  2400     04AE  0278               	subwf	key_debounce@current_time,w
  2401     04AF  00F4               	movwf	??_key_debounce
  2402     04B0  0829               	movf	key_debounce@previous_time+1,w
  2403     04B1  3B79               	subwfb	key_debounce@current_time+1,w
  2404     04B2  00F5               	movwf	??_key_debounce+1
  2405     04B3  082A               	movf	key_debounce@previous_time+2,w
  2406     04B4  3B7A               	subwfb	key_debounce@current_time+2,w
  2407     04B5  00F6               	movwf	??_key_debounce+2
  2408     04B6  082B               	movf	key_debounce@previous_time+3,w
  2409     04B7  3B7B               	subwfb	key_debounce@current_time+3,w
  2410     04B8  00F7               	movwf	??_key_debounce+3
  2411     04B9  0877               	movf	??_key_debounce+3,w
  2412     04BA  1D03               	btfss	3,2
  2413     04BB  2CC8               	goto	u1540
  2414     04BC  0876               	movf	??_key_debounce+2,w
  2415     04BD  1D03               	btfss	3,2
  2416     04BE  2CC8               	goto	u1540
  2417     04BF  0875               	movf	??_key_debounce+1,w
  2418     04C0  1D03               	btfss	3,2
  2419     04C1  2CC8               	goto	u1540
  2420     04C2  3033               	movlw	51
  2421     04C3  0274               	subwf	??_key_debounce,w
  2422     04C4  1C03               	btfss	3,0
  2423     04C5  2CC7               	goto	u1541
  2424     04C6  2CC8               	goto	u1540
  2425     04C7                     u1541:
  2426     04C7  2CCC               	goto	l349
  2427     04C8                     u1540:
  2428     04C8                     l2447:
  2429                           
  2430                           ;mcc_generated_files/key/key.c: 35:         SW1_STATUS = KEY_STATE_SHORT_PRESS;
  2431     04C8  3001               	movlw	1
  2432     04C9  0020               	movlb	0	; select bank0
  2433     04CA  00BA               	movwf	_SW1_STATUS
  2434     04CB  2CFC               	goto	l357
  2435     04CC                     l349:	
  2436                           ;mcc_generated_files/key/key.c: 37:     }
  2437                           
  2438                           
  2439                           ;mcc_generated_files/key/key.c: 38:   } else {
  2440     04CC  2CFC               	goto	l357
  2441     04CD                     l347:
  2442     04CD                     l2449:
  2443                           
  2444                           ;mcc_generated_files/key/key.c: 40:     if (sw1_previous_state != sw1_current_state) {
  2445     04CD  037D               	decf	key_debounce@sw1_previous_state,w
  2446     04CE  1903               	btfsc	3,2
  2447     04CF  2CD1               	goto	u1551
  2448     04D0  2CD2               	goto	u1550
  2449     04D1                     u1551:
  2450     04D1  2CDD               	goto	l2453
  2451     04D2                     u1550:
  2452     04D2                     l2451:
  2453                           
  2454                           ;mcc_generated_files/key/key.c: 41:       previous_time = current_time;
  2455     04D2  087B               	movf	key_debounce@current_time+3,w
  2456     04D3  00AB               	movwf	key_debounce@previous_time+3
  2457     04D4  087A               	movf	key_debounce@current_time+2,w
  2458     04D5  00AA               	movwf	key_debounce@previous_time+2
  2459     04D6  0879               	movf	key_debounce@current_time+1,w
  2460     04D7  00A9               	movwf	key_debounce@previous_time+1
  2461     04D8  0878               	movf	key_debounce@current_time,w
  2462     04D9  00A8               	movwf	key_debounce@previous_time
  2463                           
  2464                           ;mcc_generated_files/key/key.c: 42:       sw1_previous_state = sw1_current_state;
  2465     04DA  3001               	movlw	1
  2466     04DB  00FD               	movwf	key_debounce@sw1_previous_state
  2467                           
  2468                           ;mcc_generated_files/key/key.c: 43:     } else {
  2469     04DC  2CFC               	goto	l357
  2470     04DD                     l2453:
  2471                           
  2472                           ;mcc_generated_files/key/key.c: 44:       if (current_time - previous_time > 50) {
  2473     04DD  0828               	movf	key_debounce@previous_time,w
  2474     04DE  0278               	subwf	key_debounce@current_time,w
  2475     04DF  00F4               	movwf	??_key_debounce
  2476     04E0  0829               	movf	key_debounce@previous_time+1,w
  2477     04E1  3B79               	subwfb	key_debounce@current_time+1,w
  2478     04E2  00F5               	movwf	??_key_debounce+1
  2479     04E3  082A               	movf	key_debounce@previous_time+2,w
  2480     04E4  3B7A               	subwfb	key_debounce@current_time+2,w
  2481     04E5  00F6               	movwf	??_key_debounce+2
  2482     04E6  082B               	movf	key_debounce@previous_time+3,w
  2483     04E7  3B7B               	subwfb	key_debounce@current_time+3,w
  2484     04E8  00F7               	movwf	??_key_debounce+3
  2485     04E9  0877               	movf	??_key_debounce+3,w
  2486     04EA  1D03               	btfss	3,2
  2487     04EB  2CF8               	goto	u1560
  2488     04EC  0876               	movf	??_key_debounce+2,w
  2489     04ED  1D03               	btfss	3,2
  2490     04EE  2CF8               	goto	u1560
  2491     04EF  0875               	movf	??_key_debounce+1,w
  2492     04F0  1D03               	btfss	3,2
  2493     04F1  2CF8               	goto	u1560
  2494     04F2  3033               	movlw	51
  2495     04F3  0274               	subwf	??_key_debounce,w
  2496     04F4  1C03               	btfss	3,0
  2497     04F5  2CF7               	goto	u1561
  2498     04F6  2CF8               	goto	u1560
  2499     04F7                     u1561:
  2500     04F7  2CFC               	goto	l357
  2501     04F8                     u1560:
  2502     04F8                     l2455:
  2503                           
  2504                           ;mcc_generated_files/key/key.c: 45:         SW1_STATUS = KEY_STATE_RELEASE;
  2505     04F8  0020               	movlb	0	; select bank0
  2506     04F9  01BA               	clrf	_SW1_STATUS
  2507     04FA                     l2457:
  2508                           
  2509                           ;mcc_generated_files/key/key.c: 46:         flag_Key_release = 1;
  2510     04FA  3001               	movlw	1
  2511     04FB  00CB               	movwf	_flag_Key_release
  2512     04FC                     l357:
  2513     04FC  0008               	return
  2514     04FD                     __end_of_key_debounce:
  2515                           
  2516                           	psect	text2
  2517     06F5                     __ptext2:	
  2518 ;; *************** function _get_time_ms *****************
  2519 ;; Defined at:
  2520 ;;		line 13 in file "mcc_generated_files/key/key.c"
  2521 ;; Parameters:    Size  Location     Type
  2522 ;;		None
  2523 ;; Auto vars:     Size  Location     Type
  2524 ;;		None
  2525 ;; Return value:  Size  Location     Type
  2526 ;;                  4    0[COMMON] unsigned long 
  2527 ;; Registers used:
  2528 ;;		wreg
  2529 ;; Tracked objects:
  2530 ;;		On entry : 0/0
  2531 ;;		On exit  : 0/0
  2532 ;;		Unchanged: 0/0
  2533 ;; Data sizes:     COMMON   BANK0   BANK1   BANK2   BANK3   BANK4   BANK5   BANK6
  2534 ;;      Params:         4       0       0       0       0       0       0       0
  2535 ;;      Locals:         0       0       0       0       0       0       0       0
  2536 ;;      Temps:          0       0       0       0       0       0       0       0
  2537 ;;      Totals:         4       0       0       0       0       0       0       0
  2538 ;;Total ram usage:        4 bytes
  2539 ;; Hardware stack levels used: 1
  2540 ;; Hardware stack levels required when called: 3
  2541 ;; This function calls:
  2542 ;;		Nothing
  2543 ;; This function is called by:
  2544 ;;		_key_debounce
  2545 ;; This function uses a non-reentrant model
  2546 ;;
  2547                           
  2548     06F5                     _get_time_ms:	
  2549                           ;psect for function _get_time_ms
  2550                           
  2551     06F5                     l2253:	
  2552                           ;incstack = 0
  2553                           ; Regs used in _get_time_ms: [wreg]
  2554                           
  2555                           
  2556                           ;mcc_generated_files/key/key.c: 14:   return milliseconds;
  2557     06F5  0020               	movlb	0	; select bank0
  2558     06F6  082F               	movf	_milliseconds+3,w
  2559     06F7  00F3               	movwf	?_get_time_ms+3
  2560     06F8  082E               	movf	_milliseconds+2,w
  2561     06F9  00F2               	movwf	?_get_time_ms+2
  2562     06FA  082D               	movf	_milliseconds+1,w
  2563     06FB  00F1               	movwf	?_get_time_ms+1
  2564     06FC  082C               	movf	_milliseconds,w
  2565     06FD  00F0               	movwf	?_get_time_ms
  2566     06FE                     l338:
  2567     06FE  0008               	return
  2568     06FF                     __end_of_get_time_ms:
  2569                           
  2570                           	psect	text3
  2571     04FD                     __ptext3:	
  2572 ;; *************** function _disp_sub *****************
  2573 ;; Defined at:
  2574 ;;		line 10 in file "mcc_generated_files/disp_7seg/disp_7seg.c"
  2575 ;; Parameters:    Size  Location     Type
  2576 ;;  disp_temp       1    wreg     unsigned char 
  2577 ;;  disp_char       1    7[COMMON] unsigned char 
  2578 ;; Auto vars:     Size  Location     Type
  2579 ;;  disp_temp       1    0[BANK0 ] unsigned char 
  2580 ;;  i               2    5[BANK0 ] unsigned int 
  2581 ;;  temp            2    3[BANK0 ] unsigned int 
  2582 ;;  display_digi    1    7[BANK0 ] unsigned char 
  2583 ;;  display_digi    1    2[BANK0 ] unsigned char 
  2584 ;;  display_digi    1    1[BANK0 ] unsigned char 
  2585 ;; Return value:  Size  Location     Type
  2586 ;;                  1    wreg      void 
  2587 ;; Registers used:
  2588 ;;		wreg, status,2, status,0, pclath, cstack
  2589 ;; Tracked objects:
  2590 ;;		On entry : 0/0
  2591 ;;		On exit  : 0/0
  2592 ;;		Unchanged: 0/0
  2593 ;; Data sizes:     COMMON   BANK0   BANK1   BANK2   BANK3   BANK4   BANK5   BANK6
  2594 ;;      Params:         1       0       0       0       0       0       0       0
  2595 ;;      Locals:         0       8       0       0       0       0       0       0
  2596 ;;      Temps:          2       0       0       0       0       0       0       0
  2597 ;;      Totals:         3       8       0       0       0       0       0       0
  2598 ;;Total ram usage:       11 bytes
  2599 ;; Hardware stack levels used: 1
  2600 ;; Hardware stack levels required when called: 7
  2601 ;; This function calls:
  2602 ;;		___awmod
  2603 ;;		___lwdiv
  2604 ;;		___lwmod
  2605 ;;		_disp_7seg
  2606 ;; This function is called by:
  2607 ;;		_main
  2608 ;; This function uses a non-reentrant model
  2609 ;;
  2610                           
  2611     04FD                     _disp_sub:	
  2612                           ;psect for function _disp_sub
  2613                           
  2614                           
  2615                           ;incstack = 0
  2616                           ; Regs used in _disp_sub: [wreg+status,2+status,0+pclath+cstack]
  2617                           ;disp_sub@disp_temp stored from wreg
  2618     04FD  0020               	movlb	0	; select bank0
  2619     04FE  00C3               	movwf	disp_sub@disp_temp
  2620     04FF                     l2409:
  2621                           
  2622                           ;mcc_generated_files/disp_7seg/disp_7seg.c: 11:   unsigned int temp = disp_temp;
  2623     04FF  0843               	movf	disp_sub@disp_temp,w
  2624     0500  00F8               	movwf	??_disp_sub
  2625     0501  01F9               	clrf	??_disp_sub+1
  2626     0502  0878               	movf	??_disp_sub,w
  2627     0503  00C6               	movwf	disp_sub@temp
  2628     0504  0879               	movf	??_disp_sub+1,w
  2629     0505  00C7               	movwf	disp_sub@temp+1
  2630     0506                     l2411:
  2631                           
  2632                           ;mcc_generated_files/disp_7seg/disp_7seg.c: 12:   unsigned char display_digital1 = (unsi
      +                          gned char)(temp / 10);
  2633     0506  300A               	movlw	10
  2634     0507  00F0               	movwf	___lwdiv@divisor
  2635     0508  3000               	movlw	0
  2636     0509  00F1               	movwf	___lwdiv@divisor+1
  2637     050A  0847               	movf	disp_sub@temp+1,w
  2638     050B  00F3               	movwf	___lwdiv@dividend+1
  2639     050C  0846               	movf	disp_sub@temp,w
  2640     050D  00F2               	movwf	___lwdiv@dividend
  2641     050E  3185  25A5  3184   	fcall	___lwdiv
  2642     0511  0870               	movf	?___lwdiv,w
  2643     0512  0020               	movlb	0	; select bank0
  2644     0513  00CA               	movwf	disp_sub@display_digital1
  2645     0514                     l2413:
  2646                           
  2647                           ;mcc_generated_files/disp_7seg/disp_7seg.c: 15:   if(display_digital1 >9) {
  2648     0514  300A               	movlw	10
  2649     0515  024A               	subwf	disp_sub@display_digital1,w
  2650     0516  1C03               	skipc
  2651     0517  2D19               	goto	u1491
  2652     0518  2D1A               	goto	u1490
  2653     0519                     u1491:
  2654     0519  2D2B               	goto	l17
  2655     051A                     u1490:
  2656     051A                     l2415:
  2657                           
  2658                           ;mcc_generated_files/disp_7seg/disp_7seg.c: 16:     display_digital1 %= 10;
  2659     051A  300A               	movlw	10
  2660     051B  00F0               	movwf	___awmod@divisor
  2661     051C  3000               	movlw	0
  2662     051D  00F1               	movwf	___awmod@divisor+1
  2663     051E  084A               	movf	disp_sub@display_digital1,w
  2664     051F  00F8               	movwf	??_disp_sub
  2665     0520  01F9               	clrf	??_disp_sub+1
  2666     0521  0878               	movf	??_disp_sub,w
  2667     0522  00F2               	movwf	___awmod@dividend
  2668     0523  0879               	movf	??_disp_sub+1,w
  2669     0524  00F3               	movwf	___awmod@dividend+1
  2670     0525  3185  2554  3184   	fcall	___awmod
  2671     0528  0870               	movf	?___awmod,w
  2672     0529  0020               	movlb	0	; select bank0
  2673     052A  00CA               	movwf	disp_sub@display_digital1
  2674     052B                     l17:	
  2675                           ;mcc_generated_files/disp_7seg/disp_7seg.c: 17:   }
  2676                           
  2677                           
  2678                           ;mcc_generated_files/disp_7seg/disp_7seg.c: 18:   unsigned char display_digital2 = (unsi
      +                          gned char)(temp % 10);
  2679     052B  300A               	movlw	10
  2680     052C  00F0               	movwf	___lwmod@divisor
  2681     052D  3000               	movlw	0
  2682     052E  00F1               	movwf	___lwmod@divisor+1
  2683     052F  0847               	movf	disp_sub@temp+1,w
  2684     0530  00F3               	movwf	___lwmod@dividend+1
  2685     0531  0846               	movf	disp_sub@temp,w
  2686     0532  00F2               	movwf	___lwmod@dividend
  2687     0533  3185  25DF  3184   	fcall	___lwmod
  2688     0536  0870               	movf	?___lwmod,w
  2689     0537  0020               	movlb	0	; select bank0
  2690     0538  00C4               	movwf	disp_sub@display_digital2
  2691     0539                     l2417:
  2692                           
  2693                           ;mcc_generated_files/disp_7seg/disp_7seg.c: 19:   unsigned char display_digital3 = disp_
      +                          char;
  2694     0539  0877               	movf	disp_sub@disp_char,w
  2695     053A  00C5               	movwf	disp_sub@display_digital3
  2696     053B                     l2419:
  2697                           
  2698                           ;mcc_generated_files/disp_7seg/disp_7seg.c: 21:   for (unsigned int i = 0; i < 10; i++) 
      +                          {
  2699     053B  01C8               	clrf	disp_sub@i
  2700     053C  01C9               	clrf	disp_sub@i+1
  2701     053D                     l2425:
  2702                           
  2703                           ;mcc_generated_files/disp_7seg/disp_7seg.c: 22:     disp_7seg(display_digital1, display_
      +                          digital2, display_digital3);
  2704     053D  0844               	movf	disp_sub@display_digital2,w
  2705     053E  00F4               	movwf	disp_7seg@char2
  2706     053F  0845               	movf	disp_sub@display_digital3,w
  2707     0540  00F5               	movwf	disp_7seg@char3
  2708     0541  084A               	movf	disp_sub@display_digital1,w
  2709     0542  3186  2683  3184   	fcall	_disp_7seg
  2710     0545                     l2427:
  2711                           
  2712                           ;mcc_generated_files/disp_7seg/disp_7seg.c: 23:   }
  2713     0545  3001               	movlw	1
  2714     0546  0020               	movlb	0	; select bank0
  2715     0547  07C8               	addwf	disp_sub@i,f
  2716     0548  3000               	movlw	0
  2717     0549  3DC9               	addwfc	disp_sub@i+1,f
  2718     054A                     l2429:
  2719     054A  3000               	movlw	0
  2720     054B  0249               	subwf	disp_sub@i+1,w
  2721     054C  300A               	movlw	10
  2722     054D  1903               	skipnz
  2723     054E  0248               	subwf	disp_sub@i,w
  2724     054F  1C03               	skipc
  2725     0550  2D52               	goto	u1501
  2726     0551  2D53               	goto	u1500
  2727     0552                     u1501:
  2728     0552  2D3D               	goto	l2425
  2729     0553                     u1500:
  2730     0553                     l20:
  2731     0553  0008               	return
  2732     0554                     __end_of_disp_sub:
  2733                           
  2734                           	psect	text4
  2735     0683                     __ptext4:	
  2736 ;; *************** function _disp_7seg *****************
  2737 ;; Defined at:
  2738 ;;		line 26 in file "mcc_generated_files/disp_7seg/disp_7seg.c"
  2739 ;; Parameters:    Size  Location     Type
  2740 ;;  char1           1    wreg     unsigned char 
  2741 ;;  char2           1    4[COMMON] unsigned char 
  2742 ;;  char3           1    5[COMMON] unsigned char 
  2743 ;; Auto vars:     Size  Location     Type
  2744 ;;  char1           1    6[COMMON] unsigned char 
  2745 ;; Return value:  Size  Location     Type
  2746 ;;                  1    wreg      void 
  2747 ;; Registers used:
  2748 ;;		wreg, status,2, status,0, pclath, cstack
  2749 ;; Tracked objects:
  2750 ;;		On entry : 0/0
  2751 ;;		On exit  : 0/0
  2752 ;;		Unchanged: 0/0
  2753 ;; Data sizes:     COMMON   BANK0   BANK1   BANK2   BANK3   BANK4   BANK5   BANK6
  2754 ;;      Params:         2       0       0       0       0       0       0       0
  2755 ;;      Locals:         1       0       0       0       0       0       0       0
  2756 ;;      Temps:          0       0       0       0       0       0       0       0
  2757 ;;      Totals:         3       0       0       0       0       0       0       0
  2758 ;;Total ram usage:        3 bytes
  2759 ;; Hardware stack levels used: 1
  2760 ;; Hardware stack levels required when called: 6
  2761 ;; This function calls:
  2762 ;;		_SSD
  2763 ;; This function is called by:
  2764 ;;		_disp_sub
  2765 ;; This function uses a non-reentrant model
  2766 ;;
  2767                           
  2768     0683                     _disp_7seg:	
  2769                           ;psect for function _disp_7seg
  2770                           
  2771                           
  2772                           ;incstack = 0
  2773                           ; Regs used in _disp_7seg: [wreg+status,2+status,0+pclath+cstack]
  2774                           ;disp_7seg@char1 stored from wreg
  2775     0683  00F6               	movwf	disp_7seg@char1
  2776     0684                     l2251:
  2777                           
  2778                           ;mcc_generated_files/disp_7seg/disp_7seg.c: 27:   SSD(char1, 1);
  2779     0684  01F2               	clrf	SSD@xn
  2780     0685  0AF2               	incf	SSD@xn,f
  2781     0686  0876               	movf	disp_7seg@char1,w
  2782     0687  3180  202A  3186   	fcall	_SSD
  2783                           
  2784                           ;mcc_generated_files/disp_7seg/disp_7seg.c: 28:   SSD(char2, 2);
  2785     068A  3002               	movlw	2
  2786     068B  00F2               	movwf	SSD@xn
  2787     068C  0874               	movf	disp_7seg@char2,w
  2788     068D  3180  202A  3186   	fcall	_SSD
  2789                           
  2790                           ;mcc_generated_files/disp_7seg/disp_7seg.c: 29:   SSD(10, 3);
  2791     0690  3003               	movlw	3
  2792     0691  00F2               	movwf	SSD@xn
  2793     0692  300A               	movlw	10
  2794     0693  3180  202A  3186   	fcall	_SSD
  2795                           
  2796                           ;mcc_generated_files/disp_7seg/disp_7seg.c: 30:   SSD(char3, 3);
  2797     0696  3003               	movlw	3
  2798     0697  00F2               	movwf	SSD@xn
  2799     0698  0875               	movf	disp_7seg@char3,w
  2800     0699  3180  202A  3186   	fcall	_SSD
  2801                           
  2802                           ;mcc_generated_files/disp_7seg/disp_7seg.c: 31:   SSD(10, 1);
  2803     069C  01F2               	clrf	SSD@xn
  2804     069D  0AF2               	incf	SSD@xn,f
  2805     069E  300A               	movlw	10
  2806     069F  3180  202A  3186   	fcall	_SSD
  2807     06A2                     l23:
  2808     06A2  0008               	return
  2809     06A3                     __end_of_disp_7seg:
  2810                           
  2811                           	psect	text5
  2812     002A                     __ptext5:	
  2813 ;; *************** function _SSD *****************
  2814 ;; Defined at:
  2815 ;;		line 331 in file "mcc_generated_files/disp_7seg/disp_7seg.c"
  2816 ;; Parameters:    Size  Location     Type
  2817 ;;  num             1    wreg     unsigned char 
  2818 ;;  xn              1    2[COMMON] unsigned char 
  2819 ;; Auto vars:     Size  Location     Type
  2820 ;;  num             1    3[COMMON] unsigned char 
  2821 ;; Return value:  Size  Location     Type
  2822 ;;                  1    wreg      void 
  2823 ;; Registers used:
  2824 ;;		wreg, status,2, status,0, pclath, cstack
  2825 ;; Tracked objects:
  2826 ;;		On entry : 0/0
  2827 ;;		On exit  : 0/0
  2828 ;;		Unchanged: 0/0
  2829 ;; Data sizes:     COMMON   BANK0   BANK1   BANK2   BANK3   BANK4   BANK5   BANK6
  2830 ;;      Params:         1       0       0       0       0       0       0       0
  2831 ;;      Locals:         1       0       0       0       0       0       0       0
  2832 ;;      Temps:          0       0       0       0       0       0       0       0
  2833 ;;      Totals:         2       0       0       0       0       0       0       0
  2834 ;;Total ram usage:        2 bytes
  2835 ;; Hardware stack levels used: 1
  2836 ;; Hardware stack levels required when called: 5
  2837 ;; This function calls:
  2838 ;;		_SSLED
  2839 ;; This function is called by:
  2840 ;;		_disp_7seg
  2841 ;; This function uses a non-reentrant model
  2842 ;;
  2843                           
  2844     002A                     _SSD:	
  2845                           ;psect for function _SSD
  2846                           
  2847                           
  2848                           ;incstack = 0
  2849                           ; Regs used in _SSD: [wreg+status,2+status,0+pclath+cstack]
  2850                           ;SSD@num stored from wreg
  2851     002A  00F3               	movwf	SSD@num
  2852     002B                     l2187:
  2853                           
  2854                           ;mcc_generated_files/disp_7seg/disp_7seg.c: 332:   if (num == 0) {
  2855     002B  0873               	movf	SSD@num,w
  2856     002C  1D03               	btfss	3,2
  2857     002D  282F               	goto	u1111
  2858     002E  2830               	goto	u1110
  2859     002F                     u1111:
  2860     002F  285B               	goto	l2191
  2861     0030                     u1110:
  2862     0030                     l2189:
  2863                           
  2864                           ;mcc_generated_files/disp_7seg/disp_7seg.c: 333:     SSLED(xn, 1);
  2865     0030  01F0               	clrf	SSLED@xa
  2866     0031  0AF0               	incf	SSLED@xa,f
  2867     0032  0872               	movf	SSD@xn,w
  2868     0033  3182  22D8  3180   	fcall	_SSLED
  2869                           
  2870                           ;mcc_generated_files/disp_7seg/disp_7seg.c: 334:     SSLED(xn, 2);
  2871     0036  3002               	movlw	2
  2872     0037  00F0               	movwf	SSLED@xa
  2873     0038  0872               	movf	SSD@xn,w
  2874     0039  3182  22D8  3180   	fcall	_SSLED
  2875                           
  2876                           ;mcc_generated_files/disp_7seg/disp_7seg.c: 335:     SSLED(xn, 3);
  2877     003C  3003               	movlw	3
  2878     003D  00F0               	movwf	SSLED@xa
  2879     003E  0872               	movf	SSD@xn,w
  2880     003F  3182  22D8  3180   	fcall	_SSLED
  2881                           
  2882                           ;mcc_generated_files/disp_7seg/disp_7seg.c: 336:     SSLED(xn, 4);
  2883     0042  3004               	movlw	4
  2884     0043  00F0               	movwf	SSLED@xa
  2885     0044  0872               	movf	SSD@xn,w
  2886     0045  3182  22D8  3180   	fcall	_SSLED
  2887                           
  2888                           ;mcc_generated_files/disp_7seg/disp_7seg.c: 337:     SSLED(xn, 5);
  2889     0048  3005               	movlw	5
  2890     0049  00F0               	movwf	SSLED@xa
  2891     004A  0872               	movf	SSD@xn,w
  2892     004B  3182  22D8  3180   	fcall	_SSLED
  2893                           
  2894                           ;mcc_generated_files/disp_7seg/disp_7seg.c: 338:     SSLED(xn, 6);
  2895     004E  3006               	movlw	6
  2896     004F  00F0               	movwf	SSLED@xa
  2897     0050  0872               	movf	SSD@xn,w
  2898     0051  3182  22D8  3180   	fcall	_SSLED
  2899                           
  2900                           ;mcc_generated_files/disp_7seg/disp_7seg.c: 339:     SSLED(1, 8);
  2901     0054  3008               	movlw	8
  2902     0055  00F0               	movwf	SSLED@xa
  2903     0056  3001               	movlw	1
  2904     0057  3182  22D8  3180   	fcall	_SSLED
  2905                           
  2906                           ;mcc_generated_files/disp_7seg/disp_7seg.c: 340:   } else if (num == 1) {
  2907     005A  2AD7               	goto	l329
  2908     005B                     l2191:
  2909     005B  0373               	decf	SSD@num,w
  2910     005C  1D03               	btfss	3,2
  2911     005D  285F               	goto	u1121
  2912     005E  2860               	goto	u1120
  2913     005F                     u1121:
  2914     005F  288B               	goto	l2195
  2915     0060                     u1120:
  2916     0060                     l2193:
  2917                           
  2918                           ;mcc_generated_files/disp_7seg/disp_7seg.c: 341:     SSLED(xn, 5);
  2919     0060  3005               	movlw	5
  2920     0061  00F0               	movwf	SSLED@xa
  2921     0062  0872               	movf	SSD@xn,w
  2922     0063  3182  22D8  3180   	fcall	_SSLED
  2923                           
  2924                           ;mcc_generated_files/disp_7seg/disp_7seg.c: 342:     SSLED(xn, 6);
  2925     0066  3006               	movlw	6
  2926     0067  00F0               	movwf	SSLED@xa
  2927     0068  0872               	movf	SSD@xn,w
  2928     0069  3182  22D8  3180   	fcall	_SSLED
  2929                           
  2930                           ;mcc_generated_files/disp_7seg/disp_7seg.c: 343:     SSLED(1, 8);
  2931     006C  3008               	movlw	8
  2932     006D  00F0               	movwf	SSLED@xa
  2933     006E  3001               	movlw	1
  2934     006F  3182  22D8  3180   	fcall	_SSLED
  2935                           
  2936                           ;mcc_generated_files/disp_7seg/disp_7seg.c: 344:     SSLED(1, 8);
  2937     0072  3008               	movlw	8
  2938     0073  00F0               	movwf	SSLED@xa
  2939     0074  3001               	movlw	1
  2940     0075  3182  22D8  3180   	fcall	_SSLED
  2941                           
  2942                           ;mcc_generated_files/disp_7seg/disp_7seg.c: 345:     SSLED(1, 8);
  2943     0078  3008               	movlw	8
  2944     0079  00F0               	movwf	SSLED@xa
  2945     007A  3001               	movlw	1
  2946     007B  3182  22D8  3180   	fcall	_SSLED
  2947                           
  2948                           ;mcc_generated_files/disp_7seg/disp_7seg.c: 346:     SSLED(1, 8);
  2949     007E  3008               	movlw	8
  2950     007F  00F0               	movwf	SSLED@xa
  2951     0080  3001               	movlw	1
  2952     0081  3182  22D8  3180   	fcall	_SSLED
  2953                           
  2954                           ;mcc_generated_files/disp_7seg/disp_7seg.c: 347:     SSLED(1, 8);
  2955     0084  3008               	movlw	8
  2956     0085  00F0               	movwf	SSLED@xa
  2957     0086  3001               	movlw	1
  2958     0087  3182  22D8  3180   	fcall	_SSLED
  2959                           
  2960                           ;mcc_generated_files/disp_7seg/disp_7seg.c: 348:   } else if (num == 2) {
  2961     008A  2AD7               	goto	l329
  2962     008B                     l2195:
  2963     008B  3002               	movlw	2
  2964     008C  0673               	xorwf	SSD@num,w
  2965     008D  1D03               	btfss	3,2
  2966     008E  2890               	goto	u1131
  2967     008F  2891               	goto	u1130
  2968     0090                     u1131:
  2969     0090  28BC               	goto	l2199
  2970     0091                     u1130:
  2971     0091                     l2197:
  2972                           
  2973                           ;mcc_generated_files/disp_7seg/disp_7seg.c: 349:     SSLED(xn, 1);
  2974     0091  01F0               	clrf	SSLED@xa
  2975     0092  0AF0               	incf	SSLED@xa,f
  2976     0093  0872               	movf	SSD@xn,w
  2977     0094  3182  22D8  3180   	fcall	_SSLED
  2978                           
  2979                           ;mcc_generated_files/disp_7seg/disp_7seg.c: 350:     SSLED(xn, 2);
  2980     0097  3002               	movlw	2
  2981     0098  00F0               	movwf	SSLED@xa
  2982     0099  0872               	movf	SSD@xn,w
  2983     009A  3182  22D8  3180   	fcall	_SSLED
  2984                           
  2985                           ;mcc_generated_files/disp_7seg/disp_7seg.c: 351:     SSLED(xn, 4);
  2986     009D  3004               	movlw	4
  2987     009E  00F0               	movwf	SSLED@xa
  2988     009F  0872               	movf	SSD@xn,w
  2989     00A0  3182  22D8  3180   	fcall	_SSLED
  2990                           
  2991                           ;mcc_generated_files/disp_7seg/disp_7seg.c: 352:     SSLED(xn, 5);
  2992     00A3  3005               	movlw	5
  2993     00A4  00F0               	movwf	SSLED@xa
  2994     00A5  0872               	movf	SSD@xn,w
  2995     00A6  3182  22D8  3180   	fcall	_SSLED
  2996                           
  2997                           ;mcc_generated_files/disp_7seg/disp_7seg.c: 353:     SSLED(xn, 7);
  2998     00A9  3007               	movlw	7
  2999     00AA  00F0               	movwf	SSLED@xa
  3000     00AB  0872               	movf	SSD@xn,w
  3001     00AC  3182  22D8  3180   	fcall	_SSLED
  3002                           
  3003                           ;mcc_generated_files/disp_7seg/disp_7seg.c: 354:     SSLED(1, 8);
  3004     00AF  3008               	movlw	8
  3005     00B0  00F0               	movwf	SSLED@xa
  3006     00B1  3001               	movlw	1
  3007     00B2  3182  22D8  3180   	fcall	_SSLED
  3008                           
  3009                           ;mcc_generated_files/disp_7seg/disp_7seg.c: 355:     SSLED(1, 8);
  3010     00B5  3008               	movlw	8
  3011     00B6  00F0               	movwf	SSLED@xa
  3012     00B7  3001               	movlw	1
  3013     00B8  3182  22D8  3180   	fcall	_SSLED
  3014                           
  3015                           ;mcc_generated_files/disp_7seg/disp_7seg.c: 356:   } else if (num == 3) {
  3016     00BB  2AD7               	goto	l329
  3017     00BC                     l2199:
  3018     00BC  3003               	movlw	3
  3019     00BD  0673               	xorwf	SSD@num,w
  3020     00BE  1D03               	btfss	3,2
  3021     00BF  28C1               	goto	u1141
  3022     00C0  28C2               	goto	u1140
  3023     00C1                     u1141:
  3024     00C1  28ED               	goto	l2203
  3025     00C2                     u1140:
  3026     00C2                     l2201:
  3027                           
  3028                           ;mcc_generated_files/disp_7seg/disp_7seg.c: 357:     SSLED(xn, 1);
  3029     00C2  01F0               	clrf	SSLED@xa
  3030     00C3  0AF0               	incf	SSLED@xa,f
  3031     00C4  0872               	movf	SSD@xn,w
  3032     00C5  3182  22D8  3180   	fcall	_SSLED
  3033                           
  3034                           ;mcc_generated_files/disp_7seg/disp_7seg.c: 358:     SSLED(xn, 4);
  3035     00C8  3004               	movlw	4
  3036     00C9  00F0               	movwf	SSLED@xa
  3037     00CA  0872               	movf	SSD@xn,w
  3038     00CB  3182  22D8  3180   	fcall	_SSLED
  3039                           
  3040                           ;mcc_generated_files/disp_7seg/disp_7seg.c: 359:     SSLED(xn, 5);
  3041     00CE  3005               	movlw	5
  3042     00CF  00F0               	movwf	SSLED@xa
  3043     00D0  0872               	movf	SSD@xn,w
  3044     00D1  3182  22D8  3180   	fcall	_SSLED
  3045                           
  3046                           ;mcc_generated_files/disp_7seg/disp_7seg.c: 360:     SSLED(xn, 6);
  3047     00D4  3006               	movlw	6
  3048     00D5  00F0               	movwf	SSLED@xa
  3049     00D6  0872               	movf	SSD@xn,w
  3050     00D7  3182  22D8  3180   	fcall	_SSLED
  3051                           
  3052                           ;mcc_generated_files/disp_7seg/disp_7seg.c: 361:     SSLED(xn, 7);
  3053     00DA  3007               	movlw	7
  3054     00DB  00F0               	movwf	SSLED@xa
  3055     00DC  0872               	movf	SSD@xn,w
  3056     00DD  3182  22D8  3180   	fcall	_SSLED
  3057                           
  3058                           ;mcc_generated_files/disp_7seg/disp_7seg.c: 362:     SSLED(1, 8);
  3059     00E0  3008               	movlw	8
  3060     00E1  00F0               	movwf	SSLED@xa
  3061     00E2  3001               	movlw	1
  3062     00E3  3182  22D8  3180   	fcall	_SSLED
  3063                           
  3064                           ;mcc_generated_files/disp_7seg/disp_7seg.c: 363:     SSLED(1, 8);
  3065     00E6  3008               	movlw	8
  3066     00E7  00F0               	movwf	SSLED@xa
  3067     00E8  3001               	movlw	1
  3068     00E9  3182  22D8  3180   	fcall	_SSLED
  3069                           
  3070                           ;mcc_generated_files/disp_7seg/disp_7seg.c: 364:   } else if (num == 4) {
  3071     00EC  2AD7               	goto	l329
  3072     00ED                     l2203:
  3073     00ED  3004               	movlw	4
  3074     00EE  0673               	xorwf	SSD@num,w
  3075     00EF  1D03               	btfss	3,2
  3076     00F0  28F2               	goto	u1151
  3077     00F1  28F3               	goto	u1150
  3078     00F2                     u1151:
  3079     00F2  291E               	goto	l2207
  3080     00F3                     u1150:
  3081     00F3                     l2205:
  3082                           
  3083                           ;mcc_generated_files/disp_7seg/disp_7seg.c: 365:     SSLED(xn, 3);
  3084     00F3  3003               	movlw	3
  3085     00F4  00F0               	movwf	SSLED@xa
  3086     00F5  0872               	movf	SSD@xn,w
  3087     00F6  3182  22D8  3180   	fcall	_SSLED
  3088                           
  3089                           ;mcc_generated_files/disp_7seg/disp_7seg.c: 366:     SSLED(xn, 5);
  3090     00F9  3005               	movlw	5
  3091     00FA  00F0               	movwf	SSLED@xa
  3092     00FB  0872               	movf	SSD@xn,w
  3093     00FC  3182  22D8  3180   	fcall	_SSLED
  3094                           
  3095                           ;mcc_generated_files/disp_7seg/disp_7seg.c: 367:     SSLED(xn, 6);
  3096     00FF  3006               	movlw	6
  3097     0100  00F0               	movwf	SSLED@xa
  3098     0101  0872               	movf	SSD@xn,w
  3099     0102  3182  22D8  3180   	fcall	_SSLED
  3100                           
  3101                           ;mcc_generated_files/disp_7seg/disp_7seg.c: 368:     SSLED(xn, 7);
  3102     0105  3007               	movlw	7
  3103     0106  00F0               	movwf	SSLED@xa
  3104     0107  0872               	movf	SSD@xn,w
  3105     0108  3182  22D8  3180   	fcall	_SSLED
  3106                           
  3107                           ;mcc_generated_files/disp_7seg/disp_7seg.c: 369:     SSLED(1, 8);
  3108     010B  3008               	movlw	8
  3109     010C  00F0               	movwf	SSLED@xa
  3110     010D  3001               	movlw	1
  3111     010E  3182  22D8  3180   	fcall	_SSLED
  3112                           
  3113                           ;mcc_generated_files/disp_7seg/disp_7seg.c: 370:     SSLED(1, 8);
  3114     0111  3008               	movlw	8
  3115     0112  00F0               	movwf	SSLED@xa
  3116     0113  3001               	movlw	1
  3117     0114  3182  22D8  3180   	fcall	_SSLED
  3118                           
  3119                           ;mcc_generated_files/disp_7seg/disp_7seg.c: 371:     SSLED(1, 8);
  3120     0117  3008               	movlw	8
  3121     0118  00F0               	movwf	SSLED@xa
  3122     0119  3001               	movlw	1
  3123     011A  3182  22D8  3180   	fcall	_SSLED
  3124                           
  3125                           ;mcc_generated_files/disp_7seg/disp_7seg.c: 372:   } else if (num == 5) {
  3126     011D  2AD7               	goto	l329
  3127     011E                     l2207:
  3128     011E  3005               	movlw	5
  3129     011F  0673               	xorwf	SSD@num,w
  3130     0120  1D03               	btfss	3,2
  3131     0121  2923               	goto	u1161
  3132     0122  2924               	goto	u1160
  3133     0123                     u1161:
  3134     0123  294F               	goto	l2211
  3135     0124                     u1160:
  3136     0124                     l2209:
  3137                           
  3138                           ;mcc_generated_files/disp_7seg/disp_7seg.c: 373:     SSLED(xn, 1);
  3139     0124  01F0               	clrf	SSLED@xa
  3140     0125  0AF0               	incf	SSLED@xa,f
  3141     0126  0872               	movf	SSD@xn,w
  3142     0127  3182  22D8  3180   	fcall	_SSLED
  3143                           
  3144                           ;mcc_generated_files/disp_7seg/disp_7seg.c: 374:     SSLED(xn, 3);
  3145     012A  3003               	movlw	3
  3146     012B  00F0               	movwf	SSLED@xa
  3147     012C  0872               	movf	SSD@xn,w
  3148     012D  3182  22D8  3180   	fcall	_SSLED
  3149                           
  3150                           ;mcc_generated_files/disp_7seg/disp_7seg.c: 375:     SSLED(xn, 4);
  3151     0130  3004               	movlw	4
  3152     0131  00F0               	movwf	SSLED@xa
  3153     0132  0872               	movf	SSD@xn,w
  3154     0133  3182  22D8  3180   	fcall	_SSLED
  3155                           
  3156                           ;mcc_generated_files/disp_7seg/disp_7seg.c: 376:     SSLED(xn, 6);
  3157     0136  3006               	movlw	6
  3158     0137  00F0               	movwf	SSLED@xa
  3159     0138  0872               	movf	SSD@xn,w
  3160     0139  3182  22D8  3180   	fcall	_SSLED
  3161                           
  3162                           ;mcc_generated_files/disp_7seg/disp_7seg.c: 377:     SSLED(xn, 7);
  3163     013C  3007               	movlw	7
  3164     013D  00F0               	movwf	SSLED@xa
  3165     013E  0872               	movf	SSD@xn,w
  3166     013F  3182  22D8  3180   	fcall	_SSLED
  3167                           
  3168                           ;mcc_generated_files/disp_7seg/disp_7seg.c: 378:     SSLED(1, 8);
  3169     0142  3008               	movlw	8
  3170     0143  00F0               	movwf	SSLED@xa
  3171     0144  3001               	movlw	1
  3172     0145  3182  22D8  3180   	fcall	_SSLED
  3173                           
  3174                           ;mcc_generated_files/disp_7seg/disp_7seg.c: 379:     SSLED(1, 8);
  3175     0148  3008               	movlw	8
  3176     0149  00F0               	movwf	SSLED@xa
  3177     014A  3001               	movlw	1
  3178     014B  3182  22D8  3180   	fcall	_SSLED
  3179                           
  3180                           ;mcc_generated_files/disp_7seg/disp_7seg.c: 380:   } else if (num == 6) {
  3181     014E  2AD7               	goto	l329
  3182     014F                     l2211:
  3183     014F  3006               	movlw	6
  3184     0150  0673               	xorwf	SSD@num,w
  3185     0151  1D03               	btfss	3,2
  3186     0152  2954               	goto	u1171
  3187     0153  2955               	goto	u1170
  3188     0154                     u1171:
  3189     0154  2980               	goto	l2215
  3190     0155                     u1170:
  3191     0155                     l2213:
  3192                           
  3193                           ;mcc_generated_files/disp_7seg/disp_7seg.c: 381:     SSLED(xn, 1);
  3194     0155  01F0               	clrf	SSLED@xa
  3195     0156  0AF0               	incf	SSLED@xa,f
  3196     0157  0872               	movf	SSD@xn,w
  3197     0158  3182  22D8  3180   	fcall	_SSLED
  3198                           
  3199                           ;mcc_generated_files/disp_7seg/disp_7seg.c: 382:     SSLED(xn, 2);
  3200     015B  3002               	movlw	2
  3201     015C  00F0               	movwf	SSLED@xa
  3202     015D  0872               	movf	SSD@xn,w
  3203     015E  3182  22D8  3180   	fcall	_SSLED
  3204                           
  3205                           ;mcc_generated_files/disp_7seg/disp_7seg.c: 383:     SSLED(xn, 3);
  3206     0161  3003               	movlw	3
  3207     0162  00F0               	movwf	SSLED@xa
  3208     0163  0872               	movf	SSD@xn,w
  3209     0164  3182  22D8  3180   	fcall	_SSLED
  3210                           
  3211                           ;mcc_generated_files/disp_7seg/disp_7seg.c: 384:     SSLED(xn, 6);
  3212     0167  3006               	movlw	6
  3213     0168  00F0               	movwf	SSLED@xa
  3214     0169  0872               	movf	SSD@xn,w
  3215     016A  3182  22D8  3180   	fcall	_SSLED
  3216                           
  3217                           ;mcc_generated_files/disp_7seg/disp_7seg.c: 385:     SSLED(xn, 7);
  3218     016D  3007               	movlw	7
  3219     016E  00F0               	movwf	SSLED@xa
  3220     016F  0872               	movf	SSD@xn,w
  3221     0170  3182  22D8  3180   	fcall	_SSLED
  3222                           
  3223                           ;mcc_generated_files/disp_7seg/disp_7seg.c: 386:     SSLED(1, 8);
  3224     0173  3008               	movlw	8
  3225     0174  00F0               	movwf	SSLED@xa
  3226     0175  3001               	movlw	1
  3227     0176  3182  22D8  3180   	fcall	_SSLED
  3228                           
  3229                           ;mcc_generated_files/disp_7seg/disp_7seg.c: 387:     SSLED(1, 8);
  3230     0179  3008               	movlw	8
  3231     017A  00F0               	movwf	SSLED@xa
  3232     017B  3001               	movlw	1
  3233     017C  3182  22D8  3180   	fcall	_SSLED
  3234                           
  3235                           ;mcc_generated_files/disp_7seg/disp_7seg.c: 388:   } else if (num == 7) {
  3236     017F  2AD7               	goto	l329
  3237     0180                     l2215:
  3238     0180  3007               	movlw	7
  3239     0181  0673               	xorwf	SSD@num,w
  3240     0182  1D03               	btfss	3,2
  3241     0183  2985               	goto	u1181
  3242     0184  2986               	goto	u1180
  3243     0185                     u1181:
  3244     0185  29B1               	goto	l2219
  3245     0186                     u1180:
  3246     0186                     l2217:
  3247                           
  3248                           ;mcc_generated_files/disp_7seg/disp_7seg.c: 389:     SSLED(xn, 3);
  3249     0186  3003               	movlw	3
  3250     0187  00F0               	movwf	SSLED@xa
  3251     0188  0872               	movf	SSD@xn,w
  3252     0189  3182  22D8  3180   	fcall	_SSLED
  3253                           
  3254                           ;mcc_generated_files/disp_7seg/disp_7seg.c: 390:     SSLED(xn, 4);
  3255     018C  3004               	movlw	4
  3256     018D  00F0               	movwf	SSLED@xa
  3257     018E  0872               	movf	SSD@xn,w
  3258     018F  3182  22D8  3180   	fcall	_SSLED
  3259                           
  3260                           ;mcc_generated_files/disp_7seg/disp_7seg.c: 391:     SSLED(xn, 5);
  3261     0192  3005               	movlw	5
  3262     0193  00F0               	movwf	SSLED@xa
  3263     0194  0872               	movf	SSD@xn,w
  3264     0195  3182  22D8  3180   	fcall	_SSLED
  3265                           
  3266                           ;mcc_generated_files/disp_7seg/disp_7seg.c: 392:     SSLED(xn, 6);
  3267     0198  3006               	movlw	6
  3268     0199  00F0               	movwf	SSLED@xa
  3269     019A  0872               	movf	SSD@xn,w
  3270     019B  3182  22D8  3180   	fcall	_SSLED
  3271                           
  3272                           ;mcc_generated_files/disp_7seg/disp_7seg.c: 393:     SSLED(1, 8);
  3273     019E  3008               	movlw	8
  3274     019F  00F0               	movwf	SSLED@xa
  3275     01A0  3001               	movlw	1
  3276     01A1  3182  22D8  3180   	fcall	_SSLED
  3277                           
  3278                           ;mcc_generated_files/disp_7seg/disp_7seg.c: 394:     SSLED(1, 8);
  3279     01A4  3008               	movlw	8
  3280     01A5  00F0               	movwf	SSLED@xa
  3281     01A6  3001               	movlw	1
  3282     01A7  3182  22D8  3180   	fcall	_SSLED
  3283                           
  3284                           ;mcc_generated_files/disp_7seg/disp_7seg.c: 395:     SSLED(1, 8);
  3285     01AA  3008               	movlw	8
  3286     01AB  00F0               	movwf	SSLED@xa
  3287     01AC  3001               	movlw	1
  3288     01AD  3182  22D8  3180   	fcall	_SSLED
  3289                           
  3290                           ;mcc_generated_files/disp_7seg/disp_7seg.c: 396:   } else if (num == 8) {
  3291     01B0  2AD7               	goto	l329
  3292     01B1                     l2219:
  3293     01B1  3008               	movlw	8
  3294     01B2  0673               	xorwf	SSD@num,w
  3295     01B3  1D03               	btfss	3,2
  3296     01B4  29B6               	goto	u1191
  3297     01B5  29B7               	goto	u1190
  3298     01B6                     u1191:
  3299     01B6  29E2               	goto	l2223
  3300     01B7                     u1190:
  3301     01B7                     l2221:
  3302                           
  3303                           ;mcc_generated_files/disp_7seg/disp_7seg.c: 397:     SSLED(xn, 1);
  3304     01B7  01F0               	clrf	SSLED@xa
  3305     01B8  0AF0               	incf	SSLED@xa,f
  3306     01B9  0872               	movf	SSD@xn,w
  3307     01BA  3182  22D8  3180   	fcall	_SSLED
  3308                           
  3309                           ;mcc_generated_files/disp_7seg/disp_7seg.c: 398:     SSLED(xn, 2);
  3310     01BD  3002               	movlw	2
  3311     01BE  00F0               	movwf	SSLED@xa
  3312     01BF  0872               	movf	SSD@xn,w
  3313     01C0  3182  22D8  3180   	fcall	_SSLED
  3314                           
  3315                           ;mcc_generated_files/disp_7seg/disp_7seg.c: 399:     SSLED(xn, 3);
  3316     01C3  3003               	movlw	3
  3317     01C4  00F0               	movwf	SSLED@xa
  3318     01C5  0872               	movf	SSD@xn,w
  3319     01C6  3182  22D8  3180   	fcall	_SSLED
  3320                           
  3321                           ;mcc_generated_files/disp_7seg/disp_7seg.c: 400:     SSLED(xn, 4);
  3322     01C9  3004               	movlw	4
  3323     01CA  00F0               	movwf	SSLED@xa
  3324     01CB  0872               	movf	SSD@xn,w
  3325     01CC  3182  22D8  3180   	fcall	_SSLED
  3326                           
  3327                           ;mcc_generated_files/disp_7seg/disp_7seg.c: 401:     SSLED(xn, 5);
  3328     01CF  3005               	movlw	5
  3329     01D0  00F0               	movwf	SSLED@xa
  3330     01D1  0872               	movf	SSD@xn,w
  3331     01D2  3182  22D8  3180   	fcall	_SSLED
  3332                           
  3333                           ;mcc_generated_files/disp_7seg/disp_7seg.c: 402:     SSLED(xn, 6);
  3334     01D5  3006               	movlw	6
  3335     01D6  00F0               	movwf	SSLED@xa
  3336     01D7  0872               	movf	SSD@xn,w
  3337     01D8  3182  22D8  3180   	fcall	_SSLED
  3338                           
  3339                           ;mcc_generated_files/disp_7seg/disp_7seg.c: 403:     SSLED(xn, 7);
  3340     01DB  3007               	movlw	7
  3341     01DC  00F0               	movwf	SSLED@xa
  3342     01DD  0872               	movf	SSD@xn,w
  3343     01DE  3182  22D8  3180   	fcall	_SSLED
  3344                           
  3345                           ;mcc_generated_files/disp_7seg/disp_7seg.c: 404:   } else if (num == 9) {
  3346     01E1  2AD7               	goto	l329
  3347     01E2                     l2223:
  3348     01E2  3009               	movlw	9
  3349     01E3  0673               	xorwf	SSD@num,w
  3350     01E4  1D03               	btfss	3,2
  3351     01E5  29E7               	goto	u1201
  3352     01E6  29E8               	goto	u1200
  3353     01E7                     u1201:
  3354     01E7  2A13               	goto	l2227
  3355     01E8                     u1200:
  3356     01E8                     l2225:
  3357                           
  3358                           ;mcc_generated_files/disp_7seg/disp_7seg.c: 405:     SSLED(xn, 3);
  3359     01E8  3003               	movlw	3
  3360     01E9  00F0               	movwf	SSLED@xa
  3361     01EA  0872               	movf	SSD@xn,w
  3362     01EB  3182  22D8  3180   	fcall	_SSLED
  3363                           
  3364                           ;mcc_generated_files/disp_7seg/disp_7seg.c: 406:     SSLED(xn, 4);
  3365     01EE  3004               	movlw	4
  3366     01EF  00F0               	movwf	SSLED@xa
  3367     01F0  0872               	movf	SSD@xn,w
  3368     01F1  3182  22D8  3180   	fcall	_SSLED
  3369                           
  3370                           ;mcc_generated_files/disp_7seg/disp_7seg.c: 407:     SSLED(xn, 5);
  3371     01F4  3005               	movlw	5
  3372     01F5  00F0               	movwf	SSLED@xa
  3373     01F6  0872               	movf	SSD@xn,w
  3374     01F7  3182  22D8  3180   	fcall	_SSLED
  3375                           
  3376                           ;mcc_generated_files/disp_7seg/disp_7seg.c: 408:     SSLED(xn, 6);
  3377     01FA  3006               	movlw	6
  3378     01FB  00F0               	movwf	SSLED@xa
  3379     01FC  0872               	movf	SSD@xn,w
  3380     01FD  3182  22D8  3180   	fcall	_SSLED
  3381                           
  3382                           ;mcc_generated_files/disp_7seg/disp_7seg.c: 409:     SSLED(xn, 7);
  3383     0200  3007               	movlw	7
  3384     0201  00F0               	movwf	SSLED@xa
  3385     0202  0872               	movf	SSD@xn,w
  3386     0203  3182  22D8  3180   	fcall	_SSLED
  3387                           
  3388                           ;mcc_generated_files/disp_7seg/disp_7seg.c: 410:     SSLED(1, 8);
  3389     0206  3008               	movlw	8
  3390     0207  00F0               	movwf	SSLED@xa
  3391     0208  3001               	movlw	1
  3392     0209  3182  22D8  3180   	fcall	_SSLED
  3393                           
  3394                           ;mcc_generated_files/disp_7seg/disp_7seg.c: 411:     SSLED(1, 8);
  3395     020C  3008               	movlw	8
  3396     020D  00F0               	movwf	SSLED@xa
  3397     020E  3001               	movlw	1
  3398     020F  3182  22D8  3180   	fcall	_SSLED
  3399                           
  3400                           ;mcc_generated_files/disp_7seg/disp_7seg.c: 412:   } else if (num == 10) {
  3401     0212  2AD7               	goto	l329
  3402     0213                     l2227:
  3403     0213  300A               	movlw	10
  3404     0214  0673               	xorwf	SSD@num,w
  3405     0215  1D03               	btfss	3,2
  3406     0216  2A18               	goto	u1211
  3407     0217  2A19               	goto	u1210
  3408     0218                     u1211:
  3409     0218  2A44               	goto	l2231
  3410     0219                     u1210:
  3411     0219                     l2229:
  3412                           
  3413                           ;mcc_generated_files/disp_7seg/disp_7seg.c: 413:     SSLED(xn, 8);
  3414     0219  3008               	movlw	8
  3415     021A  00F0               	movwf	SSLED@xa
  3416     021B  0872               	movf	SSD@xn,w
  3417     021C  3182  22D8  3180   	fcall	_SSLED
  3418                           
  3419                           ;mcc_generated_files/disp_7seg/disp_7seg.c: 414:     SSLED(1, 8);
  3420     021F  3008               	movlw	8
  3421     0220  00F0               	movwf	SSLED@xa
  3422     0221  3001               	movlw	1
  3423     0222  3182  22D8  3180   	fcall	_SSLED
  3424                           
  3425                           ;mcc_generated_files/disp_7seg/disp_7seg.c: 415:     SSLED(1, 8);
  3426     0225  3008               	movlw	8
  3427     0226  00F0               	movwf	SSLED@xa
  3428     0227  3001               	movlw	1
  3429     0228  3182  22D8  3180   	fcall	_SSLED
  3430                           
  3431                           ;mcc_generated_files/disp_7seg/disp_7seg.c: 416:     SSLED(1, 8);
  3432     022B  3008               	movlw	8
  3433     022C  00F0               	movwf	SSLED@xa
  3434     022D  3001               	movlw	1
  3435     022E  3182  22D8  3180   	fcall	_SSLED
  3436                           
  3437                           ;mcc_generated_files/disp_7seg/disp_7seg.c: 417:     SSLED(1, 8);
  3438     0231  3008               	movlw	8
  3439     0232  00F0               	movwf	SSLED@xa
  3440     0233  3001               	movlw	1
  3441     0234  3182  22D8  3180   	fcall	_SSLED
  3442                           
  3443                           ;mcc_generated_files/disp_7seg/disp_7seg.c: 418:     SSLED(1, 8);
  3444     0237  3008               	movlw	8
  3445     0238  00F0               	movwf	SSLED@xa
  3446     0239  3001               	movlw	1
  3447     023A  3182  22D8  3180   	fcall	_SSLED
  3448                           
  3449                           ;mcc_generated_files/disp_7seg/disp_7seg.c: 419:     SSLED(1, 8);
  3450     023D  3008               	movlw	8
  3451     023E  00F0               	movwf	SSLED@xa
  3452     023F  3001               	movlw	1
  3453     0240  3182  22D8  3180   	fcall	_SSLED
  3454                           
  3455                           ;mcc_generated_files/disp_7seg/disp_7seg.c: 420:   } else if (num == 11) {
  3456     0243  2AD7               	goto	l329
  3457     0244                     l2231:
  3458     0244  300B               	movlw	11
  3459     0245  0673               	xorwf	SSD@num,w
  3460     0246  1D03               	btfss	3,2
  3461     0247  2A49               	goto	u1221
  3462     0248  2A4A               	goto	u1220
  3463     0249                     u1221:
  3464     0249  2A75               	goto	l2235
  3465     024A                     u1220:
  3466     024A                     l2233:
  3467                           
  3468                           ;mcc_generated_files/disp_7seg/disp_7seg.c: 421:     SSLED(xn, 1);
  3469     024A  01F0               	clrf	SSLED@xa
  3470     024B  0AF0               	incf	SSLED@xa,f
  3471     024C  0872               	movf	SSD@xn,w
  3472     024D  3182  22D8  3180   	fcall	_SSLED
  3473                           
  3474                           ;mcc_generated_files/disp_7seg/disp_7seg.c: 422:     SSLED(xn, 2);
  3475     0250  3002               	movlw	2
  3476     0251  00F0               	movwf	SSLED@xa
  3477     0252  0872               	movf	SSD@xn,w
  3478     0253  3182  22D8  3180   	fcall	_SSLED
  3479                           
  3480                           ;mcc_generated_files/disp_7seg/disp_7seg.c: 423:     SSLED(xn, 3);
  3481     0256  3003               	movlw	3
  3482     0257  00F0               	movwf	SSLED@xa
  3483     0258  0872               	movf	SSD@xn,w
  3484     0259  3182  22D8  3180   	fcall	_SSLED
  3485                           
  3486                           ;mcc_generated_files/disp_7seg/disp_7seg.c: 424:     SSLED(xn, 4);
  3487     025C  3004               	movlw	4
  3488     025D  00F0               	movwf	SSLED@xa
  3489     025E  0872               	movf	SSD@xn,w
  3490     025F  3182  22D8  3180   	fcall	_SSLED
  3491                           
  3492                           ;mcc_generated_files/disp_7seg/disp_7seg.c: 425:     SSLED(1, 8);
  3493     0262  3008               	movlw	8
  3494     0263  00F0               	movwf	SSLED@xa
  3495     0264  3001               	movlw	1
  3496     0265  3182  22D8  3180   	fcall	_SSLED
  3497                           
  3498                           ;mcc_generated_files/disp_7seg/disp_7seg.c: 426:     SSLED(1, 8);
  3499     0268  3008               	movlw	8
  3500     0269  00F0               	movwf	SSLED@xa
  3501     026A  3001               	movlw	1
  3502     026B  3182  22D8  3180   	fcall	_SSLED
  3503                           
  3504                           ;mcc_generated_files/disp_7seg/disp_7seg.c: 427:     SSLED(1, 8);
  3505     026E  3008               	movlw	8
  3506     026F  00F0               	movwf	SSLED@xa
  3507     0270  3001               	movlw	1
  3508     0271  3182  22D8  3180   	fcall	_SSLED
  3509                           
  3510                           ;mcc_generated_files/disp_7seg/disp_7seg.c: 428:   } else if (num == 12) {
  3511     0274  2AD7               	goto	l329
  3512     0275                     l2235:
  3513     0275  300C               	movlw	12
  3514     0276  0673               	xorwf	SSD@num,w
  3515     0277  1D03               	btfss	3,2
  3516     0278  2A7A               	goto	u1231
  3517     0279  2A7B               	goto	u1230
  3518     027A                     u1231:
  3519     027A  2AA6               	goto	l2239
  3520     027B                     u1230:
  3521     027B                     l2237:
  3522                           
  3523                           ;mcc_generated_files/disp_7seg/disp_7seg.c: 429:     SSLED(xn, 3);
  3524     027B  3003               	movlw	3
  3525     027C  00F0               	movwf	SSLED@xa
  3526     027D  0872               	movf	SSD@xn,w
  3527     027E  3182  22D8  3180   	fcall	_SSLED
  3528                           
  3529                           ;mcc_generated_files/disp_7seg/disp_7seg.c: 430:     SSLED(xn, 4);
  3530     0281  3004               	movlw	4
  3531     0282  00F0               	movwf	SSLED@xa
  3532     0283  0872               	movf	SSD@xn,w
  3533     0284  3182  22D8  3180   	fcall	_SSLED
  3534                           
  3535                           ;mcc_generated_files/disp_7seg/disp_7seg.c: 431:     SSLED(xn, 5);
  3536     0287  3005               	movlw	5
  3537     0288  00F0               	movwf	SSLED@xa
  3538     0289  0872               	movf	SSD@xn,w
  3539     028A  3182  22D8  3180   	fcall	_SSLED
  3540                           
  3541                           ;mcc_generated_files/disp_7seg/disp_7seg.c: 432:     SSLED(xn, 7);
  3542     028D  3007               	movlw	7
  3543     028E  00F0               	movwf	SSLED@xa
  3544     028F  0872               	movf	SSD@xn,w
  3545     0290  3182  22D8  3180   	fcall	_SSLED
  3546                           
  3547                           ;mcc_generated_files/disp_7seg/disp_7seg.c: 433:     SSLED(1, 8);
  3548     0293  3008               	movlw	8
  3549     0294  00F0               	movwf	SSLED@xa
  3550     0295  3001               	movlw	1
  3551     0296  3182  22D8  3180   	fcall	_SSLED
  3552                           
  3553                           ;mcc_generated_files/disp_7seg/disp_7seg.c: 434:     SSLED(1, 8);
  3554     0299  3008               	movlw	8
  3555     029A  00F0               	movwf	SSLED@xa
  3556     029B  3001               	movlw	1
  3557     029C  3182  22D8  3180   	fcall	_SSLED
  3558                           
  3559                           ;mcc_generated_files/disp_7seg/disp_7seg.c: 435:     SSLED(1, 8);
  3560     029F  3008               	movlw	8
  3561     02A0  00F0               	movwf	SSLED@xa
  3562     02A1  3001               	movlw	1
  3563     02A2  3182  22D8  3180   	fcall	_SSLED
  3564                           
  3565                           ;mcc_generated_files/disp_7seg/disp_7seg.c: 436:   } else if (num == 13) {
  3566     02A5  2AD7               	goto	l329
  3567     02A6                     l2239:
  3568     02A6  300D               	movlw	13
  3569     02A7  0673               	xorwf	SSD@num,w
  3570     02A8  1D03               	btfss	3,2
  3571     02A9  2AAB               	goto	u1241
  3572     02AA  2AAC               	goto	u1240
  3573     02AB                     u1241:
  3574     02AB  2AD7               	goto	l323
  3575     02AC                     u1240:
  3576     02AC                     l2241:
  3577                           
  3578                           ;mcc_generated_files/disp_7seg/disp_7seg.c: 437:     SSLED(xn, 1);
  3579     02AC  01F0               	clrf	SSLED@xa
  3580     02AD  0AF0               	incf	SSLED@xa,f
  3581     02AE  0872               	movf	SSD@xn,w
  3582     02AF  3182  22D8  3180   	fcall	_SSLED
  3583                           
  3584                           ;mcc_generated_files/disp_7seg/disp_7seg.c: 438:     SSLED(xn, 2);
  3585     02B2  3002               	movlw	2
  3586     02B3  00F0               	movwf	SSLED@xa
  3587     02B4  0872               	movf	SSD@xn,w
  3588     02B5  3182  22D8  3180   	fcall	_SSLED
  3589                           
  3590                           ;mcc_generated_files/disp_7seg/disp_7seg.c: 439:     SSLED(xn, 6);
  3591     02B8  3006               	movlw	6
  3592     02B9  00F0               	movwf	SSLED@xa
  3593     02BA  0872               	movf	SSD@xn,w
  3594     02BB  3182  22D8  3180   	fcall	_SSLED
  3595                           
  3596                           ;mcc_generated_files/disp_7seg/disp_7seg.c: 440:     SSLED(xn, 7);
  3597     02BE  3007               	movlw	7
  3598     02BF  00F0               	movwf	SSLED@xa
  3599     02C0  0872               	movf	SSD@xn,w
  3600     02C1  3182  22D8  3180   	fcall	_SSLED
  3601                           
  3602                           ;mcc_generated_files/disp_7seg/disp_7seg.c: 441:     SSLED(1, 8);
  3603     02C4  3008               	movlw	8
  3604     02C5  00F0               	movwf	SSLED@xa
  3605     02C6  3001               	movlw	1
  3606     02C7  3182  22D8  3180   	fcall	_SSLED
  3607                           
  3608                           ;mcc_generated_files/disp_7seg/disp_7seg.c: 442:     SSLED(1, 8);
  3609     02CA  3008               	movlw	8
  3610     02CB  00F0               	movwf	SSLED@xa
  3611     02CC  3001               	movlw	1
  3612     02CD  3182  22D8  3180   	fcall	_SSLED
  3613                           
  3614                           ;mcc_generated_files/disp_7seg/disp_7seg.c: 443:     SSLED(1, 8);
  3615     02D0  3008               	movlw	8
  3616     02D1  00F0               	movwf	SSLED@xa
  3617     02D2  3001               	movlw	1
  3618     02D3  3182  22D8  3180   	fcall	_SSLED
  3619     02D6  2AD7               	goto	l329
  3620     02D7                     l323:
  3621     02D7                     l329:
  3622     02D7  0008               	return
  3623     02D8                     __end_of_SSD:
  3624                           
  3625                           	psect	text6
  3626     02D8                     __ptext6:	
  3627 ;; *************** function _SSLED *****************
  3628 ;; Defined at:
  3629 ;;		line 51 in file "mcc_generated_files/disp_7seg/disp_7seg.c"
  3630 ;; Parameters:    Size  Location     Type
  3631 ;;  nu              1    wreg     unsigned char 
  3632 ;;  xa              1    0[COMMON] unsigned char 
  3633 ;; Auto vars:     Size  Location     Type
  3634 ;;  nu              1    1[COMMON] unsigned char 
  3635 ;; Return value:  Size  Location     Type
  3636 ;;                  1    wreg      void 
  3637 ;; Registers used:
  3638 ;;		wreg, status,2, status,0, pclath, cstack
  3639 ;; Tracked objects:
  3640 ;;		On entry : 0/0
  3641 ;;		On exit  : 0/0
  3642 ;;		Unchanged: 0/0
  3643 ;; Data sizes:     COMMON   BANK0   BANK1   BANK2   BANK3   BANK4   BANK5   BANK6
  3644 ;;      Params:         1       0       0       0       0       0       0       0
  3645 ;;      Locals:         1       0       0       0       0       0       0       0
  3646 ;;      Temps:          0       0       0       0       0       0       0       0
  3647 ;;      Totals:         2       0       0       0       0       0       0       0
  3648 ;;Total ram usage:        2 bytes
  3649 ;; Hardware stack levels used: 1
  3650 ;; Hardware stack levels required when called: 4
  3651 ;; This function calls:
  3652 ;;		_LED_DISABLE
  3653 ;; This function is called by:
  3654 ;;		_SSD
  3655 ;; This function uses a non-reentrant model
  3656 ;;
  3657                           
  3658     02D8                     _SSLED:	
  3659                           ;psect for function _SSLED
  3660                           
  3661                           
  3662                           ;incstack = 0
  3663                           ; Regs used in _SSLED: [wreg+status,2+status,0+pclath+cstack]
  3664                           ;SSLED@nu stored from wreg
  3665     02D8  00F1               	movwf	SSLED@nu
  3666     02D9                     l1901:
  3667                           
  3668                           ;mcc_generated_files/disp_7seg/disp_7seg.c: 52:   if (nu == 1) {
  3669     02D9  0371               	decf	SSLED@nu,w
  3670     02DA  1D03               	btfss	3,2
  3671     02DB  2ADD               	goto	u841
  3672     02DC  2ADE               	goto	u840
  3673     02DD                     u841:
  3674     02DD  2B62               	goto	l1989
  3675     02DE                     u840:
  3676     02DE                     l1903:
  3677                           
  3678                           ;mcc_generated_files/disp_7seg/disp_7seg.c: 53:     if (xa == 1)
  3679     02DE  0370               	decf	SSLED@xa,w
  3680     02DF  1D03               	btfss	3,2
  3681     02E0  2AE2               	goto	u851
  3682     02E1  2AE3               	goto	u850
  3683     02E2                     u851:
  3684     02E2  2AED               	goto	l1915
  3685     02E3                     u850:
  3686     02E3                     l1905:
  3687                           
  3688                           ;mcc_generated_files/disp_7seg/disp_7seg.c: 54:     {;mcc_generated_files/disp_7seg/disp
      +                          _7seg.c: 59:       LED_DISABLE();
  3689     02E3  3186  26FF  3182   	fcall	_LED_DISABLE
  3690     02E6                     l1907:
  3691     02E6  0021               	movlb	1	; select bank1
  3692     02E7  118E               	bcf	14,3	;volatile
  3693     02E8                     l1909:
  3694     02E8  138C               	bcf	12,7	;volatile
  3695     02E9                     l1911:
  3696     02E9  0022               	movlb	2	; select bank2
  3697     02EA  118E               	bcf	14,3	;volatile
  3698     02EB                     l1913:
  3699     02EB  178C               	bsf	12,7	;volatile
  3700     02EC  2C6B               	goto	l2185
  3701     02ED                     l1915:
  3702     02ED  3002               	movlw	2
  3703     02EE  0670               	xorwf	SSLED@xa,w
  3704     02EF  1D03               	btfss	3,2
  3705     02F0  2AF2               	goto	u861
  3706     02F1  2AF3               	goto	u860
  3707     02F2                     u861:
  3708     02F2  2AFD               	goto	l1927
  3709     02F3                     u860:
  3710     02F3                     l1917:
  3711                           
  3712                           ;mcc_generated_files/disp_7seg/disp_7seg.c: 65:     {;mcc_generated_files/disp_7seg/disp
      +                          _7seg.c: 70:       LED_DISABLE();
  3713     02F3  3186  26FF  3182   	fcall	_LED_DISABLE
  3714     02F6                     l1919:
  3715     02F6  0021               	movlb	1	; select bank1
  3716     02F7  118E               	bcf	14,3	;volatile
  3717     02F8                     l1921:
  3718     02F8  100E               	bcf	14,0	;volatile
  3719     02F9                     l1923:
  3720     02F9  0022               	movlb	2	; select bank2
  3721     02FA  118E               	bcf	14,3	;volatile
  3722     02FB                     l1925:
  3723     02FB  140E               	bsf	14,0	;volatile
  3724     02FC  2C6B               	goto	l2185
  3725     02FD                     l1927:
  3726     02FD  3003               	movlw	3
  3727     02FE  0670               	xorwf	SSLED@xa,w
  3728     02FF  1D03               	btfss	3,2
  3729     0300  2B02               	goto	u871
  3730     0301  2B03               	goto	u870
  3731     0302                     u871:
  3732     0302  2B0D               	goto	l1939
  3733     0303                     u870:
  3734     0303                     l1929:
  3735                           
  3736                           ;mcc_generated_files/disp_7seg/disp_7seg.c: 76:     {;mcc_generated_files/disp_7seg/disp
      +                          _7seg.c: 81:       LED_DISABLE();
  3737     0303  3186  26FF  3182   	fcall	_LED_DISABLE
  3738     0306                     l1931:
  3739     0306  0021               	movlb	1	; select bank1
  3740     0307  118E               	bcf	14,3	;volatile
  3741     0308                     l1933:
  3742     0308  110E               	bcf	14,2	;volatile
  3743     0309                     l1935:
  3744     0309  0022               	movlb	2	; select bank2
  3745     030A  118E               	bcf	14,3	;volatile
  3746     030B                     l1937:
  3747     030B  150E               	bsf	14,2	;volatile
  3748     030C  2C6B               	goto	l2185
  3749     030D                     l1939:
  3750     030D  3004               	movlw	4
  3751     030E  0670               	xorwf	SSLED@xa,w
  3752     030F  1D03               	btfss	3,2
  3753     0310  2B12               	goto	u881
  3754     0311  2B13               	goto	u880
  3755     0312                     u881:
  3756     0312  2B1D               	goto	l1951
  3757     0313                     u880:
  3758     0313                     l1941:
  3759                           
  3760                           ;mcc_generated_files/disp_7seg/disp_7seg.c: 87:     {;mcc_generated_files/disp_7seg/disp
      +                          _7seg.c: 92:       LED_DISABLE();
  3761     0313  3186  26FF  3182   	fcall	_LED_DISABLE
  3762     0316                     l1943:
  3763     0316  0021               	movlb	1	; select bank1
  3764     0317  108E               	bcf	14,1	;volatile
  3765     0318                     l1945:
  3766     0318  118E               	bcf	14,3	;volatile
  3767     0319                     l1947:
  3768     0319  0022               	movlb	2	; select bank2
  3769     031A  108E               	bcf	14,1	;volatile
  3770     031B                     l1949:
  3771     031B  158E               	bsf	14,3	;volatile
  3772     031C  2C6B               	goto	l2185
  3773     031D                     l1951:
  3774     031D  3005               	movlw	5
  3775     031E  0670               	xorwf	SSLED@xa,w
  3776     031F  1D03               	btfss	3,2
  3777     0320  2B22               	goto	u891
  3778     0321  2B23               	goto	u890
  3779     0322                     u891:
  3780     0322  2B2D               	goto	l1963
  3781     0323                     u890:
  3782     0323                     l1953:
  3783                           
  3784                           ;mcc_generated_files/disp_7seg/disp_7seg.c: 98:     {;mcc_generated_files/disp_7seg/disp
      +                          _7seg.c: 103:       LED_DISABLE();
  3785     0323  3186  26FF  3182   	fcall	_LED_DISABLE
  3786     0326                     l1955:
  3787     0326  0021               	movlb	1	; select bank1
  3788     0327  118E               	bcf	14,3	;volatile
  3789     0328                     l1957:
  3790     0328  108E               	bcf	14,1	;volatile
  3791     0329                     l1959:
  3792     0329  0022               	movlb	2	; select bank2
  3793     032A  118E               	bcf	14,3	;volatile
  3794     032B                     l1961:
  3795     032B  148E               	bsf	14,1	;volatile
  3796     032C  2C6B               	goto	l2185
  3797     032D                     l1963:
  3798     032D  3006               	movlw	6
  3799     032E  0670               	xorwf	SSLED@xa,w
  3800     032F  1D03               	btfss	3,2
  3801     0330  2B32               	goto	u901
  3802     0331  2B33               	goto	u900
  3803     0332                     u901:
  3804     0332  2B3D               	goto	l1975
  3805     0333                     u900:
  3806     0333                     l1965:
  3807                           
  3808                           ;mcc_generated_files/disp_7seg/disp_7seg.c: 109:     {;mcc_generated_files/disp_7seg/dis
      +                          p_7seg.c: 114:       LED_DISABLE();
  3809     0333  3186  26FF  3182   	fcall	_LED_DISABLE
  3810     0336                     l1967:
  3811     0336  0021               	movlb	1	; select bank1
  3812     0337  110E               	bcf	14,2	;volatile
  3813     0338                     l1969:
  3814     0338  118E               	bcf	14,3	;volatile
  3815     0339                     l1971:
  3816     0339  0022               	movlb	2	; select bank2
  3817     033A  110E               	bcf	14,2	;volatile
  3818     033B                     l1973:
  3819     033B  158E               	bsf	14,3	;volatile
  3820     033C  2C6B               	goto	l2185
  3821     033D                     l1975:
  3822     033D  3007               	movlw	7
  3823     033E  0670               	xorwf	SSLED@xa,w
  3824     033F  1D03               	btfss	3,2
  3825     0340  2B42               	goto	u911
  3826     0341  2B43               	goto	u910
  3827     0342                     u911:
  3828     0342  2B4D               	goto	l1987
  3829     0343                     u910:
  3830     0343                     l1977:
  3831                           
  3832                           ;mcc_generated_files/disp_7seg/disp_7seg.c: 120:     {;mcc_generated_files/disp_7seg/dis
      +                          p_7seg.c: 125:       LED_DISABLE();
  3833     0343  3186  26FF  3182   	fcall	_LED_DISABLE
  3834     0346                     l1979:
  3835     0346  0021               	movlb	1	; select bank1
  3836     0347  110E               	bcf	14,2	;volatile
  3837     0348                     l1981:
  3838     0348  138C               	bcf	12,7	;volatile
  3839     0349                     l1983:
  3840     0349  0022               	movlb	2	; select bank2
  3841     034A  110E               	bcf	14,2	;volatile
  3842     034B                     l1985:
  3843     034B  178C               	bsf	12,7	;volatile
  3844     034C  2C6B               	goto	l2185
  3845     034D                     l1987:
  3846     034D  3008               	movlw	8
  3847     034E  0670               	xorwf	SSLED@xa,w
  3848     034F  1D03               	btfss	3,2
  3849     0350  2B52               	goto	u921
  3850     0351  2B53               	goto	u920
  3851     0352                     u921:
  3852     0352  2C6B               	goto	l2185
  3853     0353                     u920:
  3854     0353                     l113:	
  3855                           ;mcc_generated_files/disp_7seg/disp_7seg.c: 131:     {;mcc_generated_files/disp_7seg/dis
      +                          p_7seg.c: 134:       do { TRISAbits.TRISA7 = 0; } while(0);
  3856                           
  3857     0353  0021               	movlb	1	; select bank1
  3858     0354  138C               	bcf	12,7	;volatile
  3859     0355                     l115:	
  3860                           ;mcc_generated_files/disp_7seg/disp_7seg.c: 135:       do { TRISAbits.TRISA6 = 0; } whil
      +                          e(0);
  3861                           
  3862     0355  130C               	bcf	12,6	;volatile
  3863     0356                     l117:	
  3864                           ;mcc_generated_files/disp_7seg/disp_7seg.c: 136:       do { TRISCbits.TRISC0 = 0; } whil
      +                          e(0);
  3865                           
  3866     0356  100E               	bcf	14,0	;volatile
  3867     0357                     l119:	
  3868                           ;mcc_generated_files/disp_7seg/disp_7seg.c: 137:       do { TRISCbits.TRISC1 = 0; } whil
      +                          e(0);
  3869                           
  3870     0357  108E               	bcf	14,1	;volatile
  3871     0358                     l121:	
  3872                           ;mcc_generated_files/disp_7seg/disp_7seg.c: 138:       do { TRISCbits.TRISC2 = 0; } whil
      +                          e(0);
  3873                           
  3874     0358  110E               	bcf	14,2	;volatile
  3875     0359                     l123:	
  3876                           ;mcc_generated_files/disp_7seg/disp_7seg.c: 139:       do { TRISCbits.TRISC3 = 0; } whil
      +                          e(0);
  3877                           
  3878     0359  118E               	bcf	14,3	;volatile
  3879     035A                     l125:	
  3880                           ;mcc_generated_files/disp_7seg/disp_7seg.c: 140:       do { LATAbits.LATA7 = 0; } while(
      +                          0);
  3881                           
  3882     035A  0022               	movlb	2	; select bank2
  3883     035B  138C               	bcf	12,7	;volatile
  3884     035C                     l127:	
  3885                           ;mcc_generated_files/disp_7seg/disp_7seg.c: 141:       do { LATAbits.LATA6 = 0; } while(
      +                          0);
  3886                           
  3887     035C  130C               	bcf	12,6	;volatile
  3888     035D                     l129:	
  3889                           ;mcc_generated_files/disp_7seg/disp_7seg.c: 142:       do { LATCbits.LATC0 = 0; } while(
      +                          0);
  3890                           
  3891     035D  100E               	bcf	14,0	;volatile
  3892     035E                     l131:	
  3893                           ;mcc_generated_files/disp_7seg/disp_7seg.c: 143:       do { LATCbits.LATC1 = 0; } while(
      +                          0);
  3894                           
  3895     035E  108E               	bcf	14,1	;volatile
  3896     035F                     l133:	
  3897                           ;mcc_generated_files/disp_7seg/disp_7seg.c: 144:       do { LATCbits.LATC2 = 0; } while(
      +                          0);
  3898                           
  3899     035F  110E               	bcf	14,2	;volatile
  3900     0360                     l135:	
  3901                           ;mcc_generated_files/disp_7seg/disp_7seg.c: 145:       do { LATCbits.LATC3 = 0; } while(
      +                          0);
  3902                           
  3903     0360  118E               	bcf	14,3	;volatile
  3904     0361  2C6B               	goto	l2185
  3905     0362                     l1989:
  3906     0362  3002               	movlw	2
  3907     0363  0671               	xorwf	SSLED@nu,w
  3908     0364  1D03               	btfss	3,2
  3909     0365  2B67               	goto	u931
  3910     0366  2B68               	goto	u930
  3911     0367                     u931:
  3912     0367  2BE7               	goto	l2087
  3913     0368                     u930:
  3914     0368                     l1991:
  3915                           
  3916                           ;mcc_generated_files/disp_7seg/disp_7seg.c: 148:     if (xa == 1)
  3917     0368  0370               	decf	SSLED@xa,w
  3918     0369  1D03               	btfss	3,2
  3919     036A  2B6C               	goto	u941
  3920     036B  2B6D               	goto	u940
  3921     036C                     u941:
  3922     036C  2B77               	goto	l2003
  3923     036D                     u940:
  3924     036D                     l1993:
  3925                           
  3926                           ;mcc_generated_files/disp_7seg/disp_7seg.c: 149:     {;mcc_generated_files/disp_7seg/dis
      +                          p_7seg.c: 154:       LED_DISABLE();
  3927     036D  3186  26FF  3182   	fcall	_LED_DISABLE
  3928     0370                     l1995:
  3929     0370  0021               	movlb	1	; select bank1
  3930     0371  108E               	bcf	14,1	;volatile
  3931     0372                     l1997:
  3932     0372  110E               	bcf	14,2	;volatile
  3933     0373                     l1999:
  3934     0373  0022               	movlb	2	; select bank2
  3935     0374  108E               	bcf	14,1	;volatile
  3936     0375                     l2001:
  3937     0375  150E               	bsf	14,2	;volatile
  3938     0376  2C6B               	goto	l2185
  3939     0377                     l2003:
  3940     0377  3002               	movlw	2
  3941     0378  0670               	xorwf	SSLED@xa,w
  3942     0379  1D03               	btfss	3,2
  3943     037A  2B7C               	goto	u951
  3944     037B  2B7D               	goto	u950
  3945     037C                     u951:
  3946     037C  2B87               	goto	l2015
  3947     037D                     u950:
  3948     037D                     l2005:
  3949                           
  3950                           ;mcc_generated_files/disp_7seg/disp_7seg.c: 160:     {;mcc_generated_files/disp_7seg/dis
      +                          p_7seg.c: 165:       LED_DISABLE();
  3951     037D  3186  26FF  3182   	fcall	_LED_DISABLE
  3952     0380                     l2007:
  3953     0380  0021               	movlb	1	; select bank1
  3954     0381  110E               	bcf	14,2	;volatile
  3955     0382                     l2009:
  3956     0382  100E               	bcf	14,0	;volatile
  3957     0383                     l2011:
  3958     0383  0022               	movlb	2	; select bank2
  3959     0384  110E               	bcf	14,2	;volatile
  3960     0385                     l2013:
  3961     0385  140E               	bsf	14,0	;volatile
  3962     0386  2C6B               	goto	l2185
  3963     0387                     l2015:
  3964     0387  3003               	movlw	3
  3965     0388  0670               	xorwf	SSLED@xa,w
  3966     0389  1D03               	btfss	3,2
  3967     038A  2B8C               	goto	u961
  3968     038B  2B8D               	goto	u960
  3969     038C                     u961:
  3970     038C  2B97               	goto	l2027
  3971     038D                     u960:
  3972     038D                     l2017:
  3973                           
  3974                           ;mcc_generated_files/disp_7seg/disp_7seg.c: 171:     {;mcc_generated_files/disp_7seg/dis
      +                          p_7seg.c: 176:       LED_DISABLE();
  3975     038D  3186  26FF  3182   	fcall	_LED_DISABLE
  3976     0390                     l2019:
  3977     0390  0021               	movlb	1	; select bank1
  3978     0391  110E               	bcf	14,2	;volatile
  3979     0392                     l2021:
  3980     0392  108E               	bcf	14,1	;volatile
  3981     0393                     l2023:
  3982     0393  0022               	movlb	2	; select bank2
  3983     0394  110E               	bcf	14,2	;volatile
  3984     0395                     l2025:
  3985     0395  148E               	bsf	14,1	;volatile
  3986     0396  2C6B               	goto	l2185
  3987     0397                     l2027:
  3988     0397  3004               	movlw	4
  3989     0398  0670               	xorwf	SSLED@xa,w
  3990     0399  1D03               	btfss	3,2
  3991     039A  2B9C               	goto	u971
  3992     039B  2B9D               	goto	u970
  3993     039C                     u971:
  3994     039C  2BA7               	goto	l2039
  3995     039D                     u970:
  3996     039D                     l2029:
  3997                           
  3998                           ;mcc_generated_files/disp_7seg/disp_7seg.c: 182:     {;mcc_generated_files/disp_7seg/dis
      +                          p_7seg.c: 187:       LED_DISABLE();
  3999     039D  3186  26FF  3182   	fcall	_LED_DISABLE
  4000     03A0                     l2031:
  4001     03A0  0021               	movlb	1	; select bank1
  4002     03A1  108E               	bcf	14,1	;volatile
  4003     03A2                     l2033:
  4004     03A2  100E               	bcf	14,0	;volatile
  4005     03A3                     l2035:
  4006     03A3  0022               	movlb	2	; select bank2
  4007     03A4  108E               	bcf	14,1	;volatile
  4008     03A5                     l2037:
  4009     03A5  140E               	bsf	14,0	;volatile
  4010     03A6  2C6B               	goto	l2185
  4011     03A7                     l2039:
  4012     03A7  3005               	movlw	5
  4013     03A8  0670               	xorwf	SSLED@xa,w
  4014     03A9  1D03               	btfss	3,2
  4015     03AA  2BAC               	goto	u981
  4016     03AB  2BAD               	goto	u980
  4017     03AC                     u981:
  4018     03AC  2BB7               	goto	l2051
  4019     03AD                     u980:
  4020     03AD                     l2041:
  4021                           
  4022                           ;mcc_generated_files/disp_7seg/disp_7seg.c: 193:     {;mcc_generated_files/disp_7seg/dis
      +                          p_7seg.c: 198:       LED_DISABLE();
  4023     03AD  3186  26FF  3182   	fcall	_LED_DISABLE
  4024     03B0                     l2043:
  4025     03B0  0021               	movlb	1	; select bank1
  4026     03B1  100E               	bcf	14,0	;volatile
  4027     03B2                     l2045:
  4028     03B2  118E               	bcf	14,3	;volatile
  4029     03B3                     l2047:
  4030     03B3  0022               	movlb	2	; select bank2
  4031     03B4  100E               	bcf	14,0	;volatile
  4032     03B5                     l2049:
  4033     03B5  158E               	bsf	14,3	;volatile
  4034     03B6  2C6B               	goto	l2185
  4035     03B7                     l2051:
  4036     03B7  3006               	movlw	6
  4037     03B8  0670               	xorwf	SSLED@xa,w
  4038     03B9  1D03               	btfss	3,2
  4039     03BA  2BBC               	goto	u991
  4040     03BB  2BBD               	goto	u990
  4041     03BC                     u991:
  4042     03BC  2BC7               	goto	l2063
  4043     03BD                     u990:
  4044     03BD                     l2053:
  4045                           
  4046                           ;mcc_generated_files/disp_7seg/disp_7seg.c: 204:     {;mcc_generated_files/disp_7seg/dis
      +                          p_7seg.c: 209:       LED_DISABLE();
  4047     03BD  3186  26FF  3182   	fcall	_LED_DISABLE
  4048     03C0                     l2055:
  4049     03C0  0021               	movlb	1	; select bank1
  4050     03C1  100E               	bcf	14,0	;volatile
  4051     03C2                     l2057:
  4052     03C2  108E               	bcf	14,1	;volatile
  4053     03C3                     l2059:
  4054     03C3  0022               	movlb	2	; select bank2
  4055     03C4  100E               	bcf	14,0	;volatile
  4056     03C5                     l2061:
  4057     03C5  148E               	bsf	14,1	;volatile
  4058     03C6  2C6B               	goto	l2185
  4059     03C7                     l2063:
  4060     03C7  3007               	movlw	7
  4061     03C8  0670               	xorwf	SSLED@xa,w
  4062     03C9  1D03               	btfss	3,2
  4063     03CA  2BCC               	goto	u1001
  4064     03CB  2BCD               	goto	u1000
  4065     03CC                     u1001:
  4066     03CC  2BD7               	goto	l2075
  4067     03CD                     u1000:
  4068     03CD                     l2065:
  4069                           
  4070                           ;mcc_generated_files/disp_7seg/disp_7seg.c: 215:     {;mcc_generated_files/disp_7seg/dis
      +                          p_7seg.c: 220:       LED_DISABLE();
  4071     03CD  3186  26FF  3182   	fcall	_LED_DISABLE
  4072     03D0                     l2067:
  4073     03D0  0021               	movlb	1	; select bank1
  4074     03D1  100E               	bcf	14,0	;volatile
  4075     03D2                     l2069:
  4076     03D2  110E               	bcf	14,2	;volatile
  4077     03D3                     l2071:
  4078     03D3  0022               	movlb	2	; select bank2
  4079     03D4  100E               	bcf	14,0	;volatile
  4080     03D5                     l2073:
  4081     03D5  150E               	bsf	14,2	;volatile
  4082     03D6  2C6B               	goto	l2185
  4083     03D7                     l2075:
  4084     03D7  3008               	movlw	8
  4085     03D8  0670               	xorwf	SSLED@xa,w
  4086     03D9  1D03               	btfss	3,2
  4087     03DA  2BDC               	goto	u1011
  4088     03DB  2BDD               	goto	u1010
  4089     03DC                     u1011:
  4090     03DC  2C6B               	goto	l2185
  4091     03DD                     u1010:
  4092     03DD                     l2077:
  4093                           
  4094                           ;mcc_generated_files/disp_7seg/disp_7seg.c: 226:     {;mcc_generated_files/disp_7seg/dis
      +                          p_7seg.c: 231:       LED_DISABLE();
  4095     03DD  3186  26FF  3182   	fcall	_LED_DISABLE
  4096     03E0                     l2079:
  4097     03E0  0021               	movlb	1	; select bank1
  4098     03E1  138C               	bcf	12,7	;volatile
  4099     03E2                     l2081:
  4100     03E2  100E               	bcf	14,0	;volatile
  4101     03E3                     l2083:
  4102     03E3  0022               	movlb	2	; select bank2
  4103     03E4  138C               	bcf	12,7	;volatile
  4104     03E5                     l2085:
  4105     03E5  140E               	bsf	14,0	;volatile
  4106     03E6  2C6B               	goto	l2185
  4107     03E7                     l2087:
  4108     03E7  3003               	movlw	3
  4109     03E8  0671               	xorwf	SSLED@nu,w
  4110     03E9  1D03               	btfss	3,2
  4111     03EA  2BEC               	goto	u1021
  4112     03EB  2BED               	goto	u1020
  4113     03EC                     u1021:
  4114     03EC  2C6B               	goto	l2185
  4115     03ED                     u1020:
  4116     03ED                     l2089:
  4117                           
  4118                           ;mcc_generated_files/disp_7seg/disp_7seg.c: 238:     if (xa == 1)
  4119     03ED  0370               	decf	SSLED@xa,w
  4120     03EE  1D03               	btfss	3,2
  4121     03EF  2BF1               	goto	u1031
  4122     03F0  2BF2               	goto	u1030
  4123     03F1                     u1031:
  4124     03F1  2BFC               	goto	l2101
  4125     03F2                     u1030:
  4126     03F2                     l2091:
  4127                           
  4128                           ;mcc_generated_files/disp_7seg/disp_7seg.c: 239:     {;mcc_generated_files/disp_7seg/dis
      +                          p_7seg.c: 244:       LED_DISABLE();
  4129     03F2  3186  26FF  3182   	fcall	_LED_DISABLE
  4130     03F5                     l2093:
  4131     03F5  0021               	movlb	1	; select bank1
  4132     03F6  100E               	bcf	14,0	;volatile
  4133     03F7                     l2095:
  4134     03F7  130C               	bcf	12,6	;volatile
  4135     03F8                     l2097:
  4136     03F8  0022               	movlb	2	; select bank2
  4137     03F9  100E               	bcf	14,0	;volatile
  4138     03FA                     l2099:
  4139     03FA  170C               	bsf	12,6	;volatile
  4140     03FB  2C6B               	goto	l2185
  4141     03FC                     l2101:
  4142     03FC  3002               	movlw	2
  4143     03FD  0670               	xorwf	SSLED@xa,w
  4144     03FE  1D03               	btfss	3,2
  4145     03FF  2C01               	goto	u1041
  4146     0400  2C02               	goto	u1040
  4147     0401                     u1041:
  4148     0401  2C0C               	goto	l2113
  4149     0402                     u1040:
  4150     0402                     l2103:
  4151                           
  4152                           ;mcc_generated_files/disp_7seg/disp_7seg.c: 250:     {;mcc_generated_files/disp_7seg/dis
      +                          p_7seg.c: 255:       LED_DISABLE();
  4153     0402  3186  26FF  3182   	fcall	_LED_DISABLE
  4154     0405                     l2105:
  4155     0405  0021               	movlb	1	; select bank1
  4156     0406  108E               	bcf	14,1	;volatile
  4157     0407                     l2107:
  4158     0407  130C               	bcf	12,6	;volatile
  4159     0408                     l2109:
  4160     0408  0022               	movlb	2	; select bank2
  4161     0409  108E               	bcf	14,1	;volatile
  4162     040A                     l2111:
  4163     040A  170C               	bsf	12,6	;volatile
  4164     040B  2C6B               	goto	l2185
  4165     040C                     l2113:
  4166     040C  3003               	movlw	3
  4167     040D  0670               	xorwf	SSLED@xa,w
  4168     040E  1D03               	btfss	3,2
  4169     040F  2C11               	goto	u1051
  4170     0410  2C12               	goto	u1050
  4171     0411                     u1051:
  4172     0411  2C1C               	goto	l2125
  4173     0412                     u1050:
  4174     0412                     l2115:
  4175                           
  4176                           ;mcc_generated_files/disp_7seg/disp_7seg.c: 261:     {;mcc_generated_files/disp_7seg/dis
      +                          p_7seg.c: 266:       LED_DISABLE();
  4177     0412  3186  26FF  3182   	fcall	_LED_DISABLE
  4178     0415                     l2117:
  4179     0415  0021               	movlb	1	; select bank1
  4180     0416  130C               	bcf	12,6	;volatile
  4181     0417                     l2119:
  4182     0417  110E               	bcf	14,2	;volatile
  4183     0418                     l2121:
  4184     0418  0022               	movlb	2	; select bank2
  4185     0419  130C               	bcf	12,6	;volatile
  4186     041A                     l2123:
  4187     041A  150E               	bsf	14,2	;volatile
  4188     041B  2C6B               	goto	l2185
  4189     041C                     l2125:
  4190     041C  3004               	movlw	4
  4191     041D  0670               	xorwf	SSLED@xa,w
  4192     041E  1D03               	btfss	3,2
  4193     041F  2C21               	goto	u1061
  4194     0420  2C22               	goto	u1060
  4195     0421                     u1061:
  4196     0421  2C2C               	goto	l2137
  4197     0422                     u1060:
  4198     0422                     l2127:
  4199                           
  4200                           ;mcc_generated_files/disp_7seg/disp_7seg.c: 272:     {;mcc_generated_files/disp_7seg/dis
      +                          p_7seg.c: 277:       LED_DISABLE();
  4201     0422  3186  26FF  3182   	fcall	_LED_DISABLE
  4202     0425                     l2129:
  4203     0425  0021               	movlb	1	; select bank1
  4204     0426  118E               	bcf	14,3	;volatile
  4205     0427                     l2131:
  4206     0427  130C               	bcf	12,6	;volatile
  4207     0428                     l2133:
  4208     0428  0022               	movlb	2	; select bank2
  4209     0429  118E               	bcf	14,3	;volatile
  4210     042A                     l2135:
  4211     042A  170C               	bsf	12,6	;volatile
  4212     042B  2C6B               	goto	l2185
  4213     042C                     l2137:
  4214     042C  3005               	movlw	5
  4215     042D  0670               	xorwf	SSLED@xa,w
  4216     042E  1D03               	btfss	3,2
  4217     042F  2C31               	goto	u1071
  4218     0430  2C32               	goto	u1070
  4219     0431                     u1071:
  4220     0431  2C3C               	goto	l2149
  4221     0432                     u1070:
  4222     0432                     l2139:
  4223                           
  4224                           ;mcc_generated_files/disp_7seg/disp_7seg.c: 283:     {;mcc_generated_files/disp_7seg/dis
      +                          p_7seg.c: 288:       LED_DISABLE();
  4225     0432  3186  26FF  3182   	fcall	_LED_DISABLE
  4226     0435                     l2141:
  4227     0435  0021               	movlb	1	; select bank1
  4228     0436  110E               	bcf	14,2	;volatile
  4229     0437                     l2143:
  4230     0437  130C               	bcf	12,6	;volatile
  4231     0438                     l2145:
  4232     0438  0022               	movlb	2	; select bank2
  4233     0439  110E               	bcf	14,2	;volatile
  4234     043A                     l2147:
  4235     043A  170C               	bsf	12,6	;volatile
  4236     043B  2C6B               	goto	l2185
  4237     043C                     l2149:
  4238     043C  3006               	movlw	6
  4239     043D  0670               	xorwf	SSLED@xa,w
  4240     043E  1D03               	btfss	3,2
  4241     043F  2C41               	goto	u1081
  4242     0440  2C42               	goto	u1080
  4243     0441                     u1081:
  4244     0441  2C4C               	goto	l2161
  4245     0442                     u1080:
  4246     0442                     l2151:
  4247                           
  4248                           ;mcc_generated_files/disp_7seg/disp_7seg.c: 294:     {;mcc_generated_files/disp_7seg/dis
      +                          p_7seg.c: 299:       LED_DISABLE();
  4249     0442  3186  26FF  3182   	fcall	_LED_DISABLE
  4250     0445                     l2153:
  4251     0445  0021               	movlb	1	; select bank1
  4252     0446  130C               	bcf	12,6	;volatile
  4253     0447                     l2155:
  4254     0447  100E               	bcf	14,0	;volatile
  4255     0448                     l2157:
  4256     0448  0022               	movlb	2	; select bank2
  4257     0449  130C               	bcf	12,6	;volatile
  4258     044A                     l2159:
  4259     044A  140E               	bsf	14,0	;volatile
  4260     044B  2C6B               	goto	l2185
  4261     044C                     l2161:
  4262     044C  3007               	movlw	7
  4263     044D  0670               	xorwf	SSLED@xa,w
  4264     044E  1D03               	btfss	3,2
  4265     044F  2C51               	goto	u1091
  4266     0450  2C52               	goto	u1090
  4267     0451                     u1091:
  4268     0451  2C5C               	goto	l2173
  4269     0452                     u1090:
  4270     0452                     l2163:
  4271                           
  4272                           ;mcc_generated_files/disp_7seg/disp_7seg.c: 305:     {;mcc_generated_files/disp_7seg/dis
      +                          p_7seg.c: 310:       LED_DISABLE();
  4273     0452  3186  26FF  3182   	fcall	_LED_DISABLE
  4274     0455                     l2165:
  4275     0455  0021               	movlb	1	; select bank1
  4276     0456  130C               	bcf	12,6	;volatile
  4277     0457                     l2167:
  4278     0457  108E               	bcf	14,1	;volatile
  4279     0458                     l2169:
  4280     0458  0022               	movlb	2	; select bank2
  4281     0459  130C               	bcf	12,6	;volatile
  4282     045A                     l2171:
  4283     045A  148E               	bsf	14,1	;volatile
  4284     045B  2C6B               	goto	l2185
  4285     045C                     l2173:
  4286     045C  3008               	movlw	8
  4287     045D  0670               	xorwf	SSLED@xa,w
  4288     045E  1D03               	btfss	3,2
  4289     045F  2C61               	goto	u1101
  4290     0460  2C62               	goto	u1100
  4291     0461                     u1101:
  4292     0461  2C6B               	goto	l2185
  4293     0462                     u1100:
  4294     0462                     l2175:
  4295                           
  4296                           ;mcc_generated_files/disp_7seg/disp_7seg.c: 316:     {;mcc_generated_files/disp_7seg/dis
      +                          p_7seg.c: 321:       LED_DISABLE();
  4297     0462  3186  26FF  3182   	fcall	_LED_DISABLE
  4298     0465                     l2177:
  4299     0465  0021               	movlb	1	; select bank1
  4300     0466  138C               	bcf	12,7	;volatile
  4301     0467                     l2179:
  4302     0467  130C               	bcf	12,6	;volatile
  4303     0468                     l2181:
  4304     0468  0022               	movlb	2	; select bank2
  4305     0469  138C               	bcf	12,7	;volatile
  4306     046A                     l2183:
  4307     046A  170C               	bsf	12,6	;volatile
  4308     046B                     l2185:
  4309                           
  4310                           ;mcc_generated_files/disp_7seg/disp_7seg.c: 328:   _delay((unsigned long)((30)*(16000000
      +                          /4000000.0)));
  4311     046B  3028               	movlw	40
  4312     046C                     u1647:
  4313     046C  0B89               	decfsz	9,f
  4314     046D  2C6C               	goto	u1647
  4315     046E                     l299:
  4316     046E  0008               	return
  4317     046F                     __end_of_SSLED:
  4318                           
  4319                           	psect	text7
  4320     06FF                     __ptext7:	
  4321 ;; *************** function _LED_DISABLE *****************
  4322 ;; Defined at:
  4323 ;;		line 42 in file "mcc_generated_files/disp_7seg/disp_7seg.c"
  4324 ;; Parameters:    Size  Location     Type
  4325 ;;		None
  4326 ;; Auto vars:     Size  Location     Type
  4327 ;;		None
  4328 ;; Return value:  Size  Location     Type
  4329 ;;                  1    wreg      void 
  4330 ;; Registers used:
  4331 ;;		None
  4332 ;; Tracked objects:
  4333 ;;		On entry : 0/0
  4334 ;;		On exit  : 0/0
  4335 ;;		Unchanged: 0/0
  4336 ;; Data sizes:     COMMON   BANK0   BANK1   BANK2   BANK3   BANK4   BANK5   BANK6
  4337 ;;      Params:         0       0       0       0       0       0       0       0
  4338 ;;      Locals:         0       0       0       0       0       0       0       0
  4339 ;;      Temps:          0       0       0       0       0       0       0       0
  4340 ;;      Totals:         0       0       0       0       0       0       0       0
  4341 ;;Total ram usage:        0 bytes
  4342 ;; Hardware stack levels used: 1
  4343 ;; Hardware stack levels required when called: 3
  4344 ;; This function calls:
  4345 ;;		Nothing
  4346 ;; This function is called by:
  4347 ;;		_SSLED
  4348 ;; This function uses a non-reentrant model
  4349 ;;
  4350                           
  4351     06FF                     _LED_DISABLE:	
  4352                           ;psect for function _LED_DISABLE
  4353                           
  4354     06FF                     l26:	
  4355                           ;incstack = 0
  4356                           ; Regs used in _LED_DISABLE: []
  4357                           ;mcc_generated_files/disp_7seg/disp_7seg.c: 43:   do { TRISAbits.TRISA7 = 1; } while(0);
  4358                           
  4359     06FF  0021               	movlb	1	; select bank1
  4360     0700  178C               	bsf	12,7	;volatile
  4361     0701                     l28:	
  4362                           ;mcc_generated_files/disp_7seg/disp_7seg.c: 44:   do { TRISAbits.TRISA6 = 1; } while(0);
  4363                           
  4364     0701  170C               	bsf	12,6	;volatile
  4365     0702                     l30:	
  4366                           ;mcc_generated_files/disp_7seg/disp_7seg.c: 45:   do { TRISCbits.TRISC0 = 1; } while(0);
  4367                           
  4368     0702  140E               	bsf	14,0	;volatile
  4369     0703                     l32:	
  4370                           ;mcc_generated_files/disp_7seg/disp_7seg.c: 46:   do { TRISCbits.TRISC1 = 1; } while(0);
  4371                           
  4372     0703  148E               	bsf	14,1	;volatile
  4373     0704                     l34:	
  4374                           ;mcc_generated_files/disp_7seg/disp_7seg.c: 47:   do { TRISCbits.TRISC2 = 1; } while(0);
  4375                           
  4376     0704  150E               	bsf	14,2	;volatile
  4377     0705                     l36:	
  4378                           ;mcc_generated_files/disp_7seg/disp_7seg.c: 48:   do { TRISCbits.TRISC3 = 1; } while(0);
  4379                           
  4380     0705  158E               	bsf	14,3	;volatile
  4381     0706                     l38:
  4382     0706  0008               	return
  4383     0707                     __end_of_LED_DISABLE:
  4384                           
  4385                           	psect	text8
  4386     05DF                     __ptext8:	
  4387 ;; *************** function ___lwmod *****************
  4388 ;; Defined at:
  4389 ;;		line 5 in file "C:\Program Files\Microchip\xc8\v3.00\pic\sources\c99\common\lwmod.c"
  4390 ;; Parameters:    Size  Location     Type
  4391 ;;  divisor         2    0[COMMON] unsigned int 
  4392 ;;  dividend        2    2[COMMON] unsigned int 
  4393 ;; Auto vars:     Size  Location     Type
  4394 ;;  counter         1    4[COMMON] unsigned char 
  4395 ;; Return value:  Size  Location     Type
  4396 ;;                  2    0[COMMON] unsigned int 
  4397 ;; Registers used:
  4398 ;;		wreg, status,2, status,0
  4399 ;; Tracked objects:
  4400 ;;		On entry : 0/0
  4401 ;;		On exit  : 0/0
  4402 ;;		Unchanged: 0/0
  4403 ;; Data sizes:     COMMON   BANK0   BANK1   BANK2   BANK3   BANK4   BANK5   BANK6
  4404 ;;      Params:         4       0       0       0       0       0       0       0
  4405 ;;      Locals:         1       0       0       0       0       0       0       0
  4406 ;;      Temps:          0       0       0       0       0       0       0       0
  4407 ;;      Totals:         5       0       0       0       0       0       0       0
  4408 ;;Total ram usage:        5 bytes
  4409 ;; Hardware stack levels used: 1
  4410 ;; Hardware stack levels required when called: 3
  4411 ;; This function calls:
  4412 ;;		Nothing
  4413 ;; This function is called by:
  4414 ;;		_disp_sub
  4415 ;; This function uses a non-reentrant model
  4416 ;;
  4417                           
  4418     05DF                     ___lwmod:	
  4419                           ;psect for function ___lwmod
  4420                           
  4421     05DF                     l2387:	
  4422                           ;incstack = 0
  4423                           ; Regs used in ___lwmod: [wreg+status,2+status,0]
  4424                           
  4425     05DF  0870               	movf	___lwmod@divisor,w
  4426     05E0  0471               	iorwf	___lwmod@divisor+1,w
  4427     05E1  1903               	btfsc	3,2
  4428     05E2  2DE4               	goto	u1431
  4429     05E3  2DE5               	goto	u1430
  4430     05E4                     u1431:
  4431     05E4  2E0C               	goto	l2405
  4432     05E5                     u1430:
  4433     05E5                     l2389:
  4434     05E5  3001               	movlw	1
  4435     05E6  00F4               	movwf	___lwmod@counter
  4436     05E7  2DEF               	goto	l2395
  4437     05E8                     l2391:
  4438     05E8  3001               	movlw	1
  4439     05E9                     u1445:
  4440     05E9  35F0               	lslf	___lwmod@divisor,f
  4441     05EA  0DF1               	rlf	___lwmod@divisor+1,f
  4442     05EB  0B89               	decfsz	9,f
  4443     05EC  2DE9               	goto	u1445
  4444     05ED                     l2393:
  4445     05ED  3001               	movlw	1
  4446     05EE  07F4               	addwf	___lwmod@counter,f
  4447     05EF                     l2395:
  4448     05EF  1FF1               	btfss	___lwmod@divisor+1,7
  4449     05F0  2DF2               	goto	u1451
  4450     05F1  2DF3               	goto	u1450
  4451     05F2                     u1451:
  4452     05F2  2DE8               	goto	l2391
  4453     05F3                     u1450:
  4454     05F3                     l2397:
  4455     05F3  0871               	movf	___lwmod@divisor+1,w
  4456     05F4  0273               	subwf	___lwmod@dividend+1,w
  4457     05F5  1D03               	skipz
  4458     05F6  2DF9               	goto	u1465
  4459     05F7  0870               	movf	___lwmod@divisor,w
  4460     05F8  0272               	subwf	___lwmod@dividend,w
  4461     05F9                     u1465:
  4462     05F9  1C03               	skipc
  4463     05FA  2DFC               	goto	u1461
  4464     05FB  2DFD               	goto	u1460
  4465     05FC                     u1461:
  4466     05FC  2E01               	goto	l2401
  4467     05FD                     u1460:
  4468     05FD                     l2399:
  4469     05FD  0870               	movf	___lwmod@divisor,w
  4470     05FE  02F2               	subwf	___lwmod@dividend,f
  4471     05FF  0871               	movf	___lwmod@divisor+1,w
  4472     0600  3BF3               	subwfb	___lwmod@dividend+1,f
  4473     0601                     l2401:
  4474     0601  3001               	movlw	1
  4475     0602                     u1475:
  4476     0602  36F1               	lsrf	___lwmod@divisor+1,f
  4477     0603  0CF0               	rrf	___lwmod@divisor,f
  4478     0604  0B89               	decfsz	9,f
  4479     0605  2E02               	goto	u1475
  4480     0606                     l2403:
  4481     0606  3001               	movlw	1
  4482     0607  02F4               	subwf	___lwmod@counter,f
  4483     0608  1D03               	btfss	3,2
  4484     0609  2E0B               	goto	u1481
  4485     060A  2E0C               	goto	u1480
  4486     060B                     u1481:
  4487     060B  2DF3               	goto	l2397
  4488     060C                     u1480:
  4489     060C                     l2405:
  4490     060C  0873               	movf	___lwmod@dividend+1,w
  4491     060D  00F1               	movwf	?___lwmod+1
  4492     060E  0872               	movf	___lwmod@dividend,w
  4493     060F  00F0               	movwf	?___lwmod
  4494     0610                     l1075:
  4495     0610  0008               	return
  4496     0611                     __end_of___lwmod:
  4497                           
  4498                           	psect	text9
  4499     05A5                     __ptext9:	
  4500 ;; *************** function ___lwdiv *****************
  4501 ;; Defined at:
  4502 ;;		line 5 in file "C:\Program Files\Microchip\xc8\v3.00\pic\sources\c99\common\lwdiv.c"
  4503 ;; Parameters:    Size  Location     Type
  4504 ;;  divisor         2    0[COMMON] unsigned int 
  4505 ;;  dividend        2    2[COMMON] unsigned int 
  4506 ;; Auto vars:     Size  Location     Type
  4507 ;;  quotient        2    4[COMMON] unsigned int 
  4508 ;;  counter         1    6[COMMON] unsigned char 
  4509 ;; Return value:  Size  Location     Type
  4510 ;;                  2    0[COMMON] unsigned int 
  4511 ;; Registers used:
  4512 ;;		wreg, status,2, status,0
  4513 ;; Tracked objects:
  4514 ;;		On entry : 0/0
  4515 ;;		On exit  : 0/0
  4516 ;;		Unchanged: 0/0
  4517 ;; Data sizes:     COMMON   BANK0   BANK1   BANK2   BANK3   BANK4   BANK5   BANK6
  4518 ;;      Params:         4       0       0       0       0       0       0       0
  4519 ;;      Locals:         3       0       0       0       0       0       0       0
  4520 ;;      Temps:          0       0       0       0       0       0       0       0
  4521 ;;      Totals:         7       0       0       0       0       0       0       0
  4522 ;;Total ram usage:        7 bytes
  4523 ;; Hardware stack levels used: 1
  4524 ;; Hardware stack levels required when called: 3
  4525 ;; This function calls:
  4526 ;;		Nothing
  4527 ;; This function is called by:
  4528 ;;		_disp_sub
  4529 ;; This function uses a non-reentrant model
  4530 ;;
  4531                           
  4532     05A5                     ___lwdiv:	
  4533                           ;psect for function ___lwdiv
  4534                           
  4535     05A5                     l2361:	
  4536                           ;incstack = 0
  4537                           ; Regs used in ___lwdiv: [wreg+status,2+status,0]
  4538                           
  4539     05A5  01F4               	clrf	___lwdiv@quotient
  4540     05A6  01F5               	clrf	___lwdiv@quotient+1
  4541     05A7                     l2363:
  4542     05A7  0870               	movf	___lwdiv@divisor,w
  4543     05A8  0471               	iorwf	___lwdiv@divisor+1,w
  4544     05A9  1903               	btfsc	3,2
  4545     05AA  2DAC               	goto	u1361
  4546     05AB  2DAD               	goto	u1360
  4547     05AC                     u1361:
  4548     05AC  2DDA               	goto	l2383
  4549     05AD                     u1360:
  4550     05AD                     l2365:
  4551     05AD  3001               	movlw	1
  4552     05AE  00F6               	movwf	___lwdiv@counter
  4553     05AF  2DB7               	goto	l2371
  4554     05B0                     l2367:
  4555     05B0  3001               	movlw	1
  4556     05B1                     u1375:
  4557     05B1  35F0               	lslf	___lwdiv@divisor,f
  4558     05B2  0DF1               	rlf	___lwdiv@divisor+1,f
  4559     05B3  0B89               	decfsz	9,f
  4560     05B4  2DB1               	goto	u1375
  4561     05B5                     l2369:
  4562     05B5  3001               	movlw	1
  4563     05B6  07F6               	addwf	___lwdiv@counter,f
  4564     05B7                     l2371:
  4565     05B7  1FF1               	btfss	___lwdiv@divisor+1,7
  4566     05B8  2DBA               	goto	u1381
  4567     05B9  2DBB               	goto	u1380
  4568     05BA                     u1381:
  4569     05BA  2DB0               	goto	l2367
  4570     05BB                     u1380:
  4571     05BB                     l2373:
  4572     05BB  3001               	movlw	1
  4573     05BC                     u1395:
  4574     05BC  35F4               	lslf	___lwdiv@quotient,f
  4575     05BD  0DF5               	rlf	___lwdiv@quotient+1,f
  4576     05BE  0B89               	decfsz	9,f
  4577     05BF  2DBC               	goto	u1395
  4578     05C0  0871               	movf	___lwdiv@divisor+1,w
  4579     05C1  0273               	subwf	___lwdiv@dividend+1,w
  4580     05C2  1D03               	skipz
  4581     05C3  2DC6               	goto	u1405
  4582     05C4  0870               	movf	___lwdiv@divisor,w
  4583     05C5  0272               	subwf	___lwdiv@dividend,w
  4584     05C6                     u1405:
  4585     05C6  1C03               	skipc
  4586     05C7  2DC9               	goto	u1401
  4587     05C8  2DCA               	goto	u1400
  4588     05C9                     u1401:
  4589     05C9  2DCF               	goto	l2379
  4590     05CA                     u1400:
  4591     05CA                     l2375:
  4592     05CA  0870               	movf	___lwdiv@divisor,w
  4593     05CB  02F2               	subwf	___lwdiv@dividend,f
  4594     05CC  0871               	movf	___lwdiv@divisor+1,w
  4595     05CD  3BF3               	subwfb	___lwdiv@dividend+1,f
  4596     05CE                     l2377:
  4597     05CE  1474               	bsf	___lwdiv@quotient,0
  4598     05CF                     l2379:
  4599     05CF  3001               	movlw	1
  4600     05D0                     u1415:
  4601     05D0  36F1               	lsrf	___lwdiv@divisor+1,f
  4602     05D1  0CF0               	rrf	___lwdiv@divisor,f
  4603     05D2  0B89               	decfsz	9,f
  4604     05D3  2DD0               	goto	u1415
  4605     05D4                     l2381:
  4606     05D4  3001               	movlw	1
  4607     05D5  02F6               	subwf	___lwdiv@counter,f
  4608     05D6  1D03               	btfss	3,2
  4609     05D7  2DD9               	goto	u1421
  4610     05D8  2DDA               	goto	u1420
  4611     05D9                     u1421:
  4612     05D9  2DBB               	goto	l2373
  4613     05DA                     u1420:
  4614     05DA                     l2383:
  4615     05DA  0875               	movf	___lwdiv@quotient+1,w
  4616     05DB  00F1               	movwf	?___lwdiv+1
  4617     05DC  0874               	movf	___lwdiv@quotient,w
  4618     05DD  00F0               	movwf	?___lwdiv
  4619     05DE                     l1065:
  4620     05DE  0008               	return
  4621     05DF                     __end_of___lwdiv:
  4622                           
  4623                           	psect	text10
  4624     0554                     __ptext10:	
  4625 ;; *************** function ___awmod *****************
  4626 ;; Defined at:
  4627 ;;		line 5 in file "C:\Program Files\Microchip\xc8\v3.00\pic\sources\c99\common\awmod.c"
  4628 ;; Parameters:    Size  Location     Type
  4629 ;;  divisor         2    0[COMMON] int 
  4630 ;;  dividend        2    2[COMMON] int 
  4631 ;; Auto vars:     Size  Location     Type
  4632 ;;  sign            1    5[COMMON] unsigned char 
  4633 ;;  counter         1    4[COMMON] unsigned char 
  4634 ;; Return value:  Size  Location     Type
  4635 ;;                  2    0[COMMON] int 
  4636 ;; Registers used:
  4637 ;;		wreg, status,2, status,0
  4638 ;; Tracked objects:
  4639 ;;		On entry : 0/0
  4640 ;;		On exit  : 0/0
  4641 ;;		Unchanged: 0/0
  4642 ;; Data sizes:     COMMON   BANK0   BANK1   BANK2   BANK3   BANK4   BANK5   BANK6
  4643 ;;      Params:         4       0       0       0       0       0       0       0
  4644 ;;      Locals:         2       0       0       0       0       0       0       0
  4645 ;;      Temps:          0       0       0       0       0       0       0       0
  4646 ;;      Totals:         6       0       0       0       0       0       0       0
  4647 ;;Total ram usage:        6 bytes
  4648 ;; Hardware stack levels used: 1
  4649 ;; Hardware stack levels required when called: 3
  4650 ;; This function calls:
  4651 ;;		Nothing
  4652 ;; This function is called by:
  4653 ;;		_disp_sub
  4654 ;; This function uses a non-reentrant model
  4655 ;;
  4656                           
  4657     0554                     ___awmod:	
  4658                           ;psect for function ___awmod
  4659                           
  4660     0554                     l2323:	
  4661                           ;incstack = 0
  4662                           ; Regs used in ___awmod: [wreg+status,2+status,0]
  4663                           
  4664     0554  01F5               	clrf	___awmod@sign
  4665     0555                     l2325:
  4666     0555  1FF3               	btfss	___awmod@dividend+1,7
  4667     0556  2D58               	goto	u1271
  4668     0557  2D59               	goto	u1270
  4669     0558                     u1271:
  4670     0558  2D60               	goto	l2331
  4671     0559                     u1270:
  4672     0559                     l2327:
  4673     0559  09F2               	comf	___awmod@dividend,f
  4674     055A  09F3               	comf	___awmod@dividend+1,f
  4675     055B  0AF2               	incf	___awmod@dividend,f
  4676     055C  1903               	skipnz
  4677     055D  0AF3               	incf	___awmod@dividend+1,f
  4678     055E                     l2329:
  4679     055E  3001               	movlw	1
  4680     055F  00F5               	movwf	___awmod@sign
  4681     0560                     l2331:
  4682     0560  1FF1               	btfss	___awmod@divisor+1,7
  4683     0561  2D63               	goto	u1281
  4684     0562  2D64               	goto	u1280
  4685     0563                     u1281:
  4686     0563  2D69               	goto	l2335
  4687     0564                     u1280:
  4688     0564                     l2333:
  4689     0564  09F0               	comf	___awmod@divisor,f
  4690     0565  09F1               	comf	___awmod@divisor+1,f
  4691     0566  0AF0               	incf	___awmod@divisor,f
  4692     0567  1903               	skipnz
  4693     0568  0AF1               	incf	___awmod@divisor+1,f
  4694     0569                     l2335:
  4695     0569  0870               	movf	___awmod@divisor,w
  4696     056A  0471               	iorwf	___awmod@divisor+1,w
  4697     056B  1903               	btfsc	3,2
  4698     056C  2D6E               	goto	u1291
  4699     056D  2D6F               	goto	u1290
  4700     056E                     u1291:
  4701     056E  2D96               	goto	l2353
  4702     056F                     u1290:
  4703     056F                     l2337:
  4704     056F  3001               	movlw	1
  4705     0570  00F4               	movwf	___awmod@counter
  4706     0571  2D79               	goto	l2343
  4707     0572                     l2339:
  4708     0572  3001               	movlw	1
  4709     0573                     u1305:
  4710     0573  35F0               	lslf	___awmod@divisor,f
  4711     0574  0DF1               	rlf	___awmod@divisor+1,f
  4712     0575  0B89               	decfsz	9,f
  4713     0576  2D73               	goto	u1305
  4714     0577                     l2341:
  4715     0577  3001               	movlw	1
  4716     0578  07F4               	addwf	___awmod@counter,f
  4717     0579                     l2343:
  4718     0579  1FF1               	btfss	___awmod@divisor+1,7
  4719     057A  2D7C               	goto	u1311
  4720     057B  2D7D               	goto	u1310
  4721     057C                     u1311:
  4722     057C  2D72               	goto	l2339
  4723     057D                     u1310:
  4724     057D                     l2345:
  4725     057D  0871               	movf	___awmod@divisor+1,w
  4726     057E  0273               	subwf	___awmod@dividend+1,w
  4727     057F  1D03               	skipz
  4728     0580  2D83               	goto	u1325
  4729     0581  0870               	movf	___awmod@divisor,w
  4730     0582  0272               	subwf	___awmod@dividend,w
  4731     0583                     u1325:
  4732     0583  1C03               	skipc
  4733     0584  2D86               	goto	u1321
  4734     0585  2D87               	goto	u1320
  4735     0586                     u1321:
  4736     0586  2D8B               	goto	l2349
  4737     0587                     u1320:
  4738     0587                     l2347:
  4739     0587  0870               	movf	___awmod@divisor,w
  4740     0588  02F2               	subwf	___awmod@dividend,f
  4741     0589  0871               	movf	___awmod@divisor+1,w
  4742     058A  3BF3               	subwfb	___awmod@dividend+1,f
  4743     058B                     l2349:
  4744     058B  3001               	movlw	1
  4745     058C                     u1335:
  4746     058C  36F1               	lsrf	___awmod@divisor+1,f
  4747     058D  0CF0               	rrf	___awmod@divisor,f
  4748     058E  0B89               	decfsz	9,f
  4749     058F  2D8C               	goto	u1335
  4750     0590                     l2351:
  4751     0590  3001               	movlw	1
  4752     0591  02F4               	subwf	___awmod@counter,f
  4753     0592  1D03               	btfss	3,2
  4754     0593  2D95               	goto	u1341
  4755     0594  2D96               	goto	u1340
  4756     0595                     u1341:
  4757     0595  2D7D               	goto	l2345
  4758     0596                     u1340:
  4759     0596                     l2353:
  4760     0596  0875               	movf	___awmod@sign,w
  4761     0597  1903               	btfsc	3,2
  4762     0598  2D9A               	goto	u1351
  4763     0599  2D9B               	goto	u1350
  4764     059A                     u1351:
  4765     059A  2DA0               	goto	l2357
  4766     059B                     u1350:
  4767     059B                     l2355:
  4768     059B  09F2               	comf	___awmod@dividend,f
  4769     059C  09F3               	comf	___awmod@dividend+1,f
  4770     059D  0AF2               	incf	___awmod@dividend,f
  4771     059E  1903               	skipnz
  4772     059F  0AF3               	incf	___awmod@dividend+1,f
  4773     05A0                     l2357:
  4774     05A0  0873               	movf	___awmod@dividend+1,w
  4775     05A1  00F1               	movwf	?___awmod+1
  4776     05A2  0872               	movf	___awmod@dividend,w
  4777     05A3  00F0               	movwf	?___awmod
  4778     05A4                     l951:
  4779     05A4  0008               	return
  4780     05A5                     __end_of___awmod:
  4781                           
  4782                           	psect	text11
  4783     06D2                     __ptext11:	
  4784 ;; *************** function _SYSTEM_Initialize *****************
  4785 ;; Defined at:
  4786 ;;		line 50 in file "mcc_generated_files/mcc.c"
  4787 ;; Parameters:    Size  Location     Type
  4788 ;;		None
  4789 ;; Auto vars:     Size  Location     Type
  4790 ;;		None
  4791 ;; Return value:  Size  Location     Type
  4792 ;;                  1    wreg      void 
  4793 ;; Registers used:
  4794 ;;		wreg, status,2, status,0, pclath, cstack
  4795 ;; Tracked objects:
  4796 ;;		On entry : 0/0
  4797 ;;		On exit  : 0/0
  4798 ;;		Unchanged: 0/0
  4799 ;; Data sizes:     COMMON   BANK0   BANK1   BANK2   BANK3   BANK4   BANK5   BANK6
  4800 ;;      Params:         0       0       0       0       0       0       0       0
  4801 ;;      Locals:         0       0       0       0       0       0       0       0
  4802 ;;      Temps:          0       0       0       0       0       0       0       0
  4803 ;;      Totals:         0       0       0       0       0       0       0       0
  4804 ;;Total ram usage:        0 bytes
  4805 ;; Hardware stack levels used: 1
  4806 ;; Hardware stack levels required when called: 5
  4807 ;; This function calls:
  4808 ;;		_ADC_Initialize
  4809 ;;		_EUSART_Initialize
  4810 ;;		_OSCILLATOR_Initialize
  4811 ;;		_PIN_MANAGER_Initialize
  4812 ;;		_TMR0_Initialize
  4813 ;;		_WDT_Initialize
  4814 ;; This function is called by:
  4815 ;;		_main
  4816 ;; This function uses a non-reentrant model
  4817 ;;
  4818                           
  4819     06D2                     _SYSTEM_Initialize:	
  4820                           ;psect for function _SYSTEM_Initialize
  4821                           
  4822     06D2                     l2467:	
  4823                           ;incstack = 0
  4824                           ; Regs used in _SYSTEM_Initialize: [wreg+status,2+status,0+pclath+cstack]
  4825                           
  4826                           
  4827                           ;mcc_generated_files/mcc.c: 53:     PIN_MANAGER_Initialize();
  4828     06D2  3186  26A3  3186   	fcall	_PIN_MANAGER_Initialize
  4829                           
  4830                           ;mcc_generated_files/mcc.c: 54:     OSCILLATOR_Initialize();
  4831     06D5  3187  2707  3186   	fcall	_OSCILLATOR_Initialize
  4832                           
  4833                           ;mcc_generated_files/mcc.c: 55:     WDT_Initialize();
  4834     06D8  3187  2733  3186   	fcall	_WDT_Initialize
  4835                           
  4836                           ;mcc_generated_files/mcc.c: 56:     ADC_Initialize();
  4837     06DB  3187  270E  3186   	fcall	_ADC_Initialize
  4838     06DE                     l2469:
  4839                           
  4840                           ;mcc_generated_files/mcc.c: 57:     TMR0_Initialize();
  4841     06DE  3186  26BE  3186   	fcall	_TMR0_Initialize
  4842     06E1                     l2471:
  4843                           
  4844                           ;mcc_generated_files/mcc.c: 58:     EUSART_Initialize();
  4845     06E1  3186  2661  3186   	fcall	_EUSART_Initialize
  4846     06E4                     l425:
  4847     06E4  0008               	return
  4848     06E5                     __end_of_SYSTEM_Initialize:
  4849                           
  4850                           	psect	text12
  4851     0733                     __ptext12:	
  4852 ;; *************** function _WDT_Initialize *****************
  4853 ;; Defined at:
  4854 ;;		line 71 in file "mcc_generated_files/mcc.c"
  4855 ;; Parameters:    Size  Location     Type
  4856 ;;		None
  4857 ;; Auto vars:     Size  Location     Type
  4858 ;;		None
  4859 ;; Return value:  Size  Location     Type
  4860 ;;                  1    wreg      void 
  4861 ;; Registers used:
  4862 ;;		None
  4863 ;; Tracked objects:
  4864 ;;		On entry : 0/0
  4865 ;;		On exit  : 0/0
  4866 ;;		Unchanged: 0/0
  4867 ;; Data sizes:     COMMON   BANK0   BANK1   BANK2   BANK3   BANK4   BANK5   BANK6
  4868 ;;      Params:         0       0       0       0       0       0       0       0
  4869 ;;      Locals:         0       0       0       0       0       0       0       0
  4870 ;;      Temps:          0       0       0       0       0       0       0       0
  4871 ;;      Totals:         0       0       0       0       0       0       0       0
  4872 ;;Total ram usage:        0 bytes
  4873 ;; Hardware stack levels used: 1
  4874 ;; Hardware stack levels required when called: 3
  4875 ;; This function calls:
  4876 ;;		Nothing
  4877 ;; This function is called by:
  4878 ;;		_SYSTEM_Initialize
  4879 ;; This function uses a non-reentrant model
  4880 ;;
  4881                           
  4882     0733                     _WDT_Initialize:	
  4883                           ;psect for function _WDT_Initialize
  4884                           
  4885     0733                     l2289:	
  4886                           ;incstack = 0
  4887                           ; Regs used in _WDT_Initialize: []
  4888                           
  4889                           
  4890                           ;mcc_generated_files/mcc.c: 74:     WDTCON = 0x16;
  4891     0733  3016               	movlw	22
  4892     0734  0021               	movlb	1	; select bank1
  4893     0735  0097               	movwf	23	;volatile
  4894     0736                     l431:
  4895     0736  0008               	return
  4896     0737                     __end_of_WDT_Initialize:
  4897                           
  4898                           	psect	text13
  4899     06BE                     __ptext13:	
  4900 ;; *************** function _TMR0_Initialize *****************
  4901 ;; Defined at:
  4902 ;;		line 64 in file "mcc_generated_files/tmr0.c"
  4903 ;; Parameters:    Size  Location     Type
  4904 ;;		None
  4905 ;; Auto vars:     Size  Location     Type
  4906 ;;		None
  4907 ;; Return value:  Size  Location     Type
  4908 ;;                  1    wreg      void 
  4909 ;; Registers used:
  4910 ;;		wreg, status,2, status,0, pclath, cstack
  4911 ;; Tracked objects:
  4912 ;;		On entry : 0/0
  4913 ;;		On exit  : 0/0
  4914 ;;		Unchanged: 0/0
  4915 ;; Data sizes:     COMMON   BANK0   BANK1   BANK2   BANK3   BANK4   BANK5   BANK6
  4916 ;;      Params:         0       0       0       0       0       0       0       0
  4917 ;;      Locals:         0       0       0       0       0       0       0       0
  4918 ;;      Temps:          0       0       0       0       0       0       0       0
  4919 ;;      Totals:         0       0       0       0       0       0       0       0
  4920 ;;Total ram usage:        0 bytes
  4921 ;; Hardware stack levels used: 1
  4922 ;; Hardware stack levels required when called: 4
  4923 ;; This function calls:
  4924 ;;		_TMR0_SetInterruptHandler
  4925 ;; This function is called by:
  4926 ;;		_SYSTEM_Initialize
  4927 ;; This function uses a non-reentrant model
  4928 ;;
  4929                           
  4930     06BE                     _TMR0_Initialize:	
  4931                           ;psect for function _TMR0_Initialize
  4932                           
  4933     06BE                     l2257:	
  4934                           ;incstack = 0
  4935                           ; Regs used in _TMR0_Initialize: [wreg+status,2+status,0+pclath+cstack]
  4936                           
  4937                           
  4938                           ;mcc_generated_files/tmr0.c: 69:     OPTION_REG = (uint8_t)((OPTION_REG & 0xC0) | (0xD3 
      +                          & 0x3F));
  4939     06BE  0021               	movlb	1	; select bank1
  4940     06BF  0815               	movf	21,w	;volatile
  4941     06C0  39C0               	andlw	192
  4942     06C1  3813               	iorlw	19
  4943     06C2  0095               	movwf	21	;volatile
  4944     06C3                     l2259:
  4945                           
  4946                           ;mcc_generated_files/tmr0.c: 72:     TMR0 = 0x06;
  4947     06C3  3006               	movlw	6
  4948     06C4  0020               	movlb	0	; select bank0
  4949     06C5  0095               	movwf	21	;volatile
  4950     06C6                     l2261:
  4951                           
  4952                           ;mcc_generated_files/tmr0.c: 75:     timer0ReloadVal= 6;
  4953     06C6  3006               	movlw	6
  4954     06C7  00FC               	movwf	_timer0ReloadVal	;volatile
  4955     06C8                     l2263:
  4956                           
  4957                           ;mcc_generated_files/tmr0.c: 78:     INTCONbits.TMR0IF = 0;
  4958     06C8  110B               	bcf	11,2	;volatile
  4959     06C9                     l2265:
  4960                           
  4961                           ;mcc_generated_files/tmr0.c: 81:     INTCONbits.TMR0IE = 1;
  4962     06C9  168B               	bsf	11,5	;volatile
  4963     06CA                     l2267:
  4964                           
  4965                           ;mcc_generated_files/tmr0.c: 84:     TMR0_SetInterruptHandler(TMR0_InterruptHandler);
  4966     06CA  0842               	movf	_TMR0_InterruptHandler+1,w
  4967     06CB  00F1               	movwf	TMR0_SetInterruptHandler@InterruptHandler+1
  4968     06CC  0841               	movf	_TMR0_InterruptHandler,w
  4969     06CD  00F0               	movwf	TMR0_SetInterruptHandler@InterruptHandler
  4970     06CE  3187  271B  3186   	fcall	_TMR0_SetInterruptHandler
  4971     06D1                     l383:
  4972     06D1  0008               	return
  4973     06D2                     __end_of_TMR0_Initialize:
  4974                           
  4975                           	psect	text14
  4976     071B                     __ptext14:	
  4977 ;; *************** function _TMR0_SetInterruptHandler *****************
  4978 ;; Defined at:
  4979 ;;		line 125 in file "mcc_generated_files/tmr0.c"
  4980 ;; Parameters:    Size  Location     Type
  4981 ;;  InterruptHan    2    0[COMMON] PTR FTN()void 
  4982 ;;		 -> TMR0_timerHandler(1), NULL(1), 
  4983 ;; Auto vars:     Size  Location     Type
  4984 ;;		None
  4985 ;; Return value:  Size  Location     Type
  4986 ;;                  1    wreg      void 
  4987 ;; Registers used:
  4988 ;;		wreg
  4989 ;; Tracked objects:
  4990 ;;		On entry : 0/0
  4991 ;;		On exit  : 0/0
  4992 ;;		Unchanged: 0/0
  4993 ;; Data sizes:     COMMON   BANK0   BANK1   BANK2   BANK3   BANK4   BANK5   BANK6
  4994 ;;      Params:         2       0       0       0       0       0       0       0
  4995 ;;      Locals:         0       0       0       0       0       0       0       0
  4996 ;;      Temps:          0       0       0       0       0       0       0       0
  4997 ;;      Totals:         2       0       0       0       0       0       0       0
  4998 ;;Total ram usage:        2 bytes
  4999 ;; Hardware stack levels used: 1
  5000 ;; Hardware stack levels required when called: 3
  5001 ;; This function calls:
  5002 ;;		Nothing
  5003 ;; This function is called by:
  5004 ;;		_TMR0_Initialize
  5005 ;;		_main
  5006 ;; This function uses a non-reentrant model
  5007 ;;
  5008                           
  5009     071B                     _TMR0_SetInterruptHandler:	
  5010                           ;psect for function _TMR0_SetInterruptHandler
  5011                           
  5012     071B                     l2243:	
  5013                           ;incstack = 0
  5014                           ; Regs used in _TMR0_SetInterruptHandler: [wreg]
  5015                           
  5016                           
  5017                           ;mcc_generated_files/tmr0.c: 126:     TMR0_InterruptHandler = InterruptHandler;
  5018     071B  0871               	movf	TMR0_SetInterruptHandler@InterruptHandler+1,w
  5019     071C  0020               	movlb	0	; select bank0
  5020     071D  00C2               	movwf	_TMR0_InterruptHandler+1
  5021     071E  0870               	movf	TMR0_SetInterruptHandler@InterruptHandler,w
  5022     071F  00C1               	movwf	_TMR0_InterruptHandler
  5023     0720                     l399:
  5024     0720  0008               	return
  5025     0721                     __end_of_TMR0_SetInterruptHandler:
  5026                           
  5027                           	psect	text15
  5028     06A3                     __ptext15:	
  5029 ;; *************** function _PIN_MANAGER_Initialize *****************
  5030 ;; Defined at:
  5031 ;;		line 55 in file "mcc_generated_files/pin_manager.c"
  5032 ;; Parameters:    Size  Location     Type
  5033 ;;		None
  5034 ;; Auto vars:     Size  Location     Type
  5035 ;;		None
  5036 ;; Return value:  Size  Location     Type
  5037 ;;                  1    wreg      void 
  5038 ;; Registers used:
  5039 ;;		status,2
  5040 ;; Tracked objects:
  5041 ;;		On entry : 0/0
  5042 ;;		On exit  : 0/0
  5043 ;;		Unchanged: 0/0
  5044 ;; Data sizes:     COMMON   BANK0   BANK1   BANK2   BANK3   BANK4   BANK5   BANK6
  5045 ;;      Params:         0       0       0       0       0       0       0       0
  5046 ;;      Locals:         0       0       0       0       0       0       0       0
  5047 ;;      Temps:          0       0       0       0       0       0       0       0
  5048 ;;      Totals:         0       0       0       0       0       0       0       0
  5049 ;;Total ram usage:        0 bytes
  5050 ;; Hardware stack levels used: 1
  5051 ;; Hardware stack levels required when called: 3
  5052 ;; This function calls:
  5053 ;;		Nothing
  5054 ;; This function is called by:
  5055 ;;		_SYSTEM_Initialize
  5056 ;; This function uses a non-reentrant model
  5057 ;;
  5058                           
  5059     06A3                     _PIN_MANAGER_Initialize:	
  5060                           ;psect for function _PIN_MANAGER_Initialize
  5061                           
  5062     06A3                     l2269:	
  5063                           ;incstack = 0
  5064                           ; Regs used in _PIN_MANAGER_Initialize: [status,2]
  5065                           
  5066                           
  5067                           ;mcc_generated_files/pin_manager.c: 60:     LATE = 0x00;
  5068     06A3  0022               	movlb	2	; select bank2
  5069     06A4  0190               	clrf	16	;volatile
  5070                           
  5071                           ;mcc_generated_files/pin_manager.c: 61:     LATA = 0x00;
  5072     06A5  018C               	clrf	12	;volatile
  5073                           
  5074                           ;mcc_generated_files/pin_manager.c: 62:     LATB = 0x00;
  5075     06A6  018D               	clrf	13	;volatile
  5076                           
  5077                           ;mcc_generated_files/pin_manager.c: 63:     LATC = 0x00;
  5078     06A7  018E               	clrf	14	;volatile
  5079     06A8                     l2271:
  5080                           
  5081                           ;mcc_generated_files/pin_manager.c: 68:     TRISE = 0x08;
  5082     06A8  3008               	movlw	8
  5083     06A9  0021               	movlb	1	; select bank1
  5084     06AA  0090               	movwf	16	;volatile
  5085     06AB                     l2273:
  5086                           
  5087                           ;mcc_generated_files/pin_manager.c: 69:     TRISA = 0x3F;
  5088     06AB  303F               	movlw	63
  5089     06AC  008C               	movwf	12	;volatile
  5090     06AD                     l2275:
  5091                           
  5092                           ;mcc_generated_files/pin_manager.c: 70:     TRISB = 0xFF;
  5093     06AD  30FF               	movlw	255
  5094     06AE  008D               	movwf	13	;volatile
  5095     06AF                     l2277:
  5096                           
  5097                           ;mcc_generated_files/pin_manager.c: 71:     TRISC = 0x80;
  5098     06AF  3080               	movlw	128
  5099     06B0  008E               	movwf	14	;volatile
  5100     06B1                     l2279:
  5101                           
  5102                           ;mcc_generated_files/pin_manager.c: 76:     ANSELB = 0x31;
  5103     06B1  3031               	movlw	49
  5104     06B2  0023               	movlb	3	; select bank3
  5105     06B3  008D               	movwf	13	;volatile
  5106     06B4                     l2281:
  5107                           
  5108                           ;mcc_generated_files/pin_manager.c: 77:     ANSELA = 0x3F;
  5109     06B4  303F               	movlw	63
  5110     06B5  008C               	movwf	12	;volatile
  5111                           
  5112                           ;mcc_generated_files/pin_manager.c: 82:     WPUE = 0x00;
  5113     06B6  0024               	movlb	4	; select bank4
  5114     06B7  0190               	clrf	16	;volatile
  5115                           
  5116                           ;mcc_generated_files/pin_manager.c: 83:     WPUB = 0x00;
  5117     06B8  018D               	clrf	13	;volatile
  5118     06B9                     l2283:
  5119                           
  5120                           ;mcc_generated_files/pin_manager.c: 84:     OPTION_REGbits.nWPUEN = 1;
  5121     06B9  0021               	movlb	1	; select bank1
  5122     06BA  1795               	bsf	21,7	;volatile
  5123                           
  5124                           ;mcc_generated_files/pin_manager.c: 90:     APFCON = 0x00;
  5125     06BB  0022               	movlb	2	; select bank2
  5126     06BC  019D               	clrf	29	;volatile
  5127     06BD                     l500:
  5128     06BD  0008               	return
  5129     06BE                     __end_of_PIN_MANAGER_Initialize:
  5130                           
  5131                           	psect	text16
  5132     0707                     __ptext16:	
  5133 ;; *************** function _OSCILLATOR_Initialize *****************
  5134 ;; Defined at:
  5135 ;;		line 61 in file "mcc_generated_files/mcc.c"
  5136 ;; Parameters:    Size  Location     Type
  5137 ;;		None
  5138 ;; Auto vars:     Size  Location     Type
  5139 ;;		None
  5140 ;; Return value:  Size  Location     Type
  5141 ;;                  1    wreg      void 
  5142 ;; Registers used:
  5143 ;;		status,2
  5144 ;; Tracked objects:
  5145 ;;		On entry : 0/0
  5146 ;;		On exit  : 0/0
  5147 ;;		Unchanged: 0/0
  5148 ;; Data sizes:     COMMON   BANK0   BANK1   BANK2   BANK3   BANK4   BANK5   BANK6
  5149 ;;      Params:         0       0       0       0       0       0       0       0
  5150 ;;      Locals:         0       0       0       0       0       0       0       0
  5151 ;;      Temps:          0       0       0       0       0       0       0       0
  5152 ;;      Totals:         0       0       0       0       0       0       0       0
  5153 ;;Total ram usage:        0 bytes
  5154 ;; Hardware stack levels used: 1
  5155 ;; Hardware stack levels required when called: 3
  5156 ;; This function calls:
  5157 ;;		Nothing
  5158 ;; This function is called by:
  5159 ;;		_SYSTEM_Initialize
  5160 ;; This function uses a non-reentrant model
  5161 ;;
  5162                           
  5163     0707                     _OSCILLATOR_Initialize:	
  5164                           ;psect for function _OSCILLATOR_Initialize
  5165                           
  5166     0707                     l2285:	
  5167                           ;incstack = 0
  5168                           ; Regs used in _OSCILLATOR_Initialize: [status,2]
  5169                           
  5170                           
  5171                           ;mcc_generated_files/mcc.c: 64:     OSCCON = 0x78;
  5172     0707  3078               	movlw	120
  5173     0708  0021               	movlb	1	; select bank1
  5174     0709  0099               	movwf	25	;volatile
  5175     070A                     l2287:
  5176                           
  5177                           ;mcc_generated_files/mcc.c: 66:     OSCTUNE = 0x00;
  5178     070A  0198               	clrf	24	;volatile
  5179                           
  5180                           ;mcc_generated_files/mcc.c: 68:     BORCON = 0x00;
  5181     070B  0022               	movlb	2	; select bank2
  5182     070C  0196               	clrf	22	;volatile
  5183     070D                     l428:
  5184     070D  0008               	return
  5185     070E                     __end_of_OSCILLATOR_Initialize:
  5186                           
  5187                           	psect	text17
  5188     0661                     __ptext17:	
  5189 ;; *************** function _EUSART_Initialize *****************
  5190 ;; Defined at:
  5191 ;;		line 66 in file "mcc_generated_files/eusart.c"
  5192 ;; Parameters:    Size  Location     Type
  5193 ;;		None
  5194 ;; Auto vars:     Size  Location     Type
  5195 ;;		None
  5196 ;; Return value:  Size  Location     Type
  5197 ;;                  1    wreg      void 
  5198 ;; Registers used:
  5199 ;;		wreg, status,2, status,0, pclath, cstack
  5200 ;; Tracked objects:
  5201 ;;		On entry : 0/0
  5202 ;;		On exit  : 0/0
  5203 ;;		Unchanged: 0/0
  5204 ;; Data sizes:     COMMON   BANK0   BANK1   BANK2   BANK3   BANK4   BANK5   BANK6
  5205 ;;      Params:         0       0       0       0       0       0       0       0
  5206 ;;      Locals:         0       0       0       0       0       0       0       0
  5207 ;;      Temps:          0       0       0       0       0       0       0       0
  5208 ;;      Totals:         0       0       0       0       0       0       0       0
  5209 ;;Total ram usage:        0 bytes
  5210 ;; Hardware stack levels used: 1
  5211 ;; Hardware stack levels required when called: 4
  5212 ;; This function calls:
  5213 ;;		_EUSART_SetErrorHandler
  5214 ;;		_EUSART_SetFramingErrorHandler
  5215 ;;		_EUSART_SetOverrunErrorHandler
  5216 ;; This function is called by:
  5217 ;;		_SYSTEM_Initialize
  5218 ;; This function uses a non-reentrant model
  5219 ;;
  5220                           
  5221     0661                     _EUSART_Initialize:	
  5222                           ;psect for function _EUSART_Initialize
  5223                           
  5224     0661                     l2295:	
  5225                           ;incstack = 0
  5226                           ; Regs used in _EUSART_Initialize: [wreg+status,2+status,0+pclath+cstack]
  5227                           
  5228                           
  5229                           ;mcc_generated_files/eusart.c: 71:     BAUDCON = 0x08;
  5230     0661  3008               	movlw	8
  5231     0662  0023               	movlb	3	; select bank3
  5232     0663  009F               	movwf	31	;volatile
  5233                           
  5234                           ;mcc_generated_files/eusart.c: 74:     RCSTA = 0x80;
  5235     0664  3080               	movlw	128
  5236     0665  009D               	movwf	29	;volatile
  5237                           
  5238                           ;mcc_generated_files/eusart.c: 77:     TXSTA = 0x24;
  5239     0666  3024               	movlw	36
  5240     0667  009E               	movwf	30	;volatile
  5241                           
  5242                           ;mcc_generated_files/eusart.c: 80:     SPBRGL = 0xCF;
  5243     0668  30CF               	movlw	207
  5244     0669  009B               	movwf	27	;volatile
  5245     066A                     l2297:
  5246                           
  5247                           ;mcc_generated_files/eusart.c: 83:     SPBRGH = 0x00;
  5248     066A  019C               	clrf	28	;volatile
  5249     066B                     l2299:
  5250                           
  5251                           ;mcc_generated_files/eusart.c: 86:     EUSART_SetFramingErrorHandler(EUSART_DefaultFrami
      +                          ngErrorHandler);
  5252     066B  3000               	movlw	0
  5253     066C  00F0               	movwf	EUSART_SetFramingErrorHandler@interruptHandler
  5254     066D  3000               	movlw	0
  5255     066E  00F1               	movwf	EUSART_SetFramingErrorHandler@interruptHandler+1
  5256     066F  3187  2727  3186   	fcall	_EUSART_SetFramingErrorHandler
  5257     0672                     l2301:
  5258                           
  5259                           ;mcc_generated_files/eusart.c: 87:     EUSART_SetOverrunErrorHandler(EUSART_DefaultOverr
      +                          unErrorHandler);
  5260     0672  3000               	movlw	0
  5261     0673  00F0               	movwf	EUSART_SetOverrunErrorHandler@interruptHandler
  5262     0674  3000               	movlw	0
  5263     0675  00F1               	movwf	EUSART_SetOverrunErrorHandler@interruptHandler+1
  5264     0676  3187  2721  3186   	fcall	_EUSART_SetOverrunErrorHandler
  5265     0679                     l2303:
  5266                           
  5267                           ;mcc_generated_files/eusart.c: 88:     EUSART_SetErrorHandler(EUSART_DefaultErrorHandler
      +                          );
  5268     0679  3000               	movlw	0
  5269     067A  00F0               	movwf	EUSART_SetErrorHandler@interruptHandler
  5270     067B  3000               	movlw	0
  5271     067C  00F1               	movwf	EUSART_SetErrorHandler@interruptHandler+1
  5272     067D  3187  272D  3186   	fcall	_EUSART_SetErrorHandler
  5273     0680                     l2305:
  5274                           
  5275                           ;mcc_generated_files/eusart.c: 90:     eusartRxLastError.status = 0;
  5276     0680  0020               	movlb	0	; select bank0
  5277     0681  01B9               	clrf	_eusartRxLastError	;volatile
  5278     0682                     l546:
  5279     0682  0008               	return
  5280     0683                     __end_of_EUSART_Initialize:
  5281                           
  5282                           	psect	text18
  5283     0721                     __ptext18:	
  5284 ;; *************** function _EUSART_SetOverrunErrorHandler *****************
  5285 ;; Defined at:
  5286 ;;		line 161 in file "mcc_generated_files/eusart.c"
  5287 ;; Parameters:    Size  Location     Type
  5288 ;;  interruptHan    2    0[COMMON] PTR FTN()void 
  5289 ;;		 -> EUSART_DefaultOverrunErrorHandler(1), 
  5290 ;; Auto vars:     Size  Location     Type
  5291 ;;		None
  5292 ;; Return value:  Size  Location     Type
  5293 ;;                  1    wreg      void 
  5294 ;; Registers used:
  5295 ;;		wreg
  5296 ;; Tracked objects:
  5297 ;;		On entry : 0/0
  5298 ;;		On exit  : 0/0
  5299 ;;		Unchanged: 0/0
  5300 ;; Data sizes:     COMMON   BANK0   BANK1   BANK2   BANK3   BANK4   BANK5   BANK6
  5301 ;;      Params:         2       0       0       0       0       0       0       0
  5302 ;;      Locals:         0       0       0       0       0       0       0       0
  5303 ;;      Temps:          0       0       0       0       0       0       0       0
  5304 ;;      Totals:         2       0       0       0       0       0       0       0
  5305 ;;Total ram usage:        2 bytes
  5306 ;; Hardware stack levels used: 1
  5307 ;; Hardware stack levels required when called: 3
  5308 ;; This function calls:
  5309 ;;		Nothing
  5310 ;; This function is called by:
  5311 ;;		_EUSART_Initialize
  5312 ;; This function uses a non-reentrant model
  5313 ;;
  5314                           
  5315     0721                     _EUSART_SetOverrunErrorHandler:	
  5316                           ;psect for function _EUSART_SetOverrunErrorHandler
  5317                           
  5318     0721                     l2247:	
  5319                           ;incstack = 0
  5320                           ; Regs used in _EUSART_SetOverrunErrorHandler: [wreg]
  5321                           
  5322                           
  5323                           ;mcc_generated_files/eusart.c: 162:     EUSART_OverrunErrorHandler = interruptHandler;
  5324     0721  0871               	movf	EUSART_SetOverrunErrorHandler@interruptHandler+1,w
  5325     0722  0020               	movlb	0	; select bank0
  5326     0723  00BE               	movwf	_EUSART_OverrunErrorHandler+1
  5327     0724  0870               	movf	EUSART_SetOverrunErrorHandler@interruptHandler,w
  5328     0725  00BD               	movwf	_EUSART_OverrunErrorHandler
  5329     0726                     l588:
  5330     0726  0008               	return
  5331     0727                     __end_of_EUSART_SetOverrunErrorHandler:
  5332                           
  5333                           	psect	text19
  5334     0727                     __ptext19:	
  5335 ;; *************** function _EUSART_SetFramingErrorHandler *****************
  5336 ;; Defined at:
  5337 ;;		line 157 in file "mcc_generated_files/eusart.c"
  5338 ;; Parameters:    Size  Location     Type
  5339 ;;  interruptHan    2    0[COMMON] PTR FTN()void 
  5340 ;;		 -> EUSART_DefaultFramingErrorHandler(1), 
  5341 ;; Auto vars:     Size  Location     Type
  5342 ;;		None
  5343 ;; Return value:  Size  Location     Type
  5344 ;;                  1    wreg      void 
  5345 ;; Registers used:
  5346 ;;		wreg
  5347 ;; Tracked objects:
  5348 ;;		On entry : 0/0
  5349 ;;		On exit  : 0/0
  5350 ;;		Unchanged: 0/0
  5351 ;; Data sizes:     COMMON   BANK0   BANK1   BANK2   BANK3   BANK4   BANK5   BANK6
  5352 ;;      Params:         2       0       0       0       0       0       0       0
  5353 ;;      Locals:         0       0       0       0       0       0       0       0
  5354 ;;      Temps:          0       0       0       0       0       0       0       0
  5355 ;;      Totals:         2       0       0       0       0       0       0       0
  5356 ;;Total ram usage:        2 bytes
  5357 ;; Hardware stack levels used: 1
  5358 ;; Hardware stack levels required when called: 3
  5359 ;; This function calls:
  5360 ;;		Nothing
  5361 ;; This function is called by:
  5362 ;;		_EUSART_Initialize
  5363 ;; This function uses a non-reentrant model
  5364 ;;
  5365                           
  5366     0727                     _EUSART_SetFramingErrorHandler:	
  5367                           ;psect for function _EUSART_SetFramingErrorHandler
  5368                           
  5369     0727                     l2245:	
  5370                           ;incstack = 0
  5371                           ; Regs used in _EUSART_SetFramingErrorHandler: [wreg]
  5372                           
  5373                           
  5374                           ;mcc_generated_files/eusart.c: 158:     EUSART_FramingErrorHandler = interruptHandler;
  5375     0727  0871               	movf	EUSART_SetFramingErrorHandler@interruptHandler+1,w
  5376     0728  0020               	movlb	0	; select bank0
  5377     0729  00C0               	movwf	_EUSART_FramingErrorHandler+1
  5378     072A  0870               	movf	EUSART_SetFramingErrorHandler@interruptHandler,w
  5379     072B  00BF               	movwf	_EUSART_FramingErrorHandler
  5380     072C                     l585:
  5381     072C  0008               	return
  5382     072D                     __end_of_EUSART_SetFramingErrorHandler:
  5383                           
  5384                           	psect	text20
  5385     072D                     __ptext20:	
  5386 ;; *************** function _EUSART_SetErrorHandler *****************
  5387 ;; Defined at:
  5388 ;;		line 165 in file "mcc_generated_files/eusart.c"
  5389 ;; Parameters:    Size  Location     Type
  5390 ;;  interruptHan    2    0[COMMON] PTR FTN()void 
  5391 ;;		 -> EUSART_DefaultErrorHandler(1), 
  5392 ;; Auto vars:     Size  Location     Type
  5393 ;;		None
  5394 ;; Return value:  Size  Location     Type
  5395 ;;                  1    wreg      void 
  5396 ;; Registers used:
  5397 ;;		wreg
  5398 ;; Tracked objects:
  5399 ;;		On entry : 0/0
  5400 ;;		On exit  : 0/0
  5401 ;;		Unchanged: 0/0
  5402 ;; Data sizes:     COMMON   BANK0   BANK1   BANK2   BANK3   BANK4   BANK5   BANK6
  5403 ;;      Params:         2       0       0       0       0       0       0       0
  5404 ;;      Locals:         0       0       0       0       0       0       0       0
  5405 ;;      Temps:          0       0       0       0       0       0       0       0
  5406 ;;      Totals:         2       0       0       0       0       0       0       0
  5407 ;;Total ram usage:        2 bytes
  5408 ;; Hardware stack levels used: 1
  5409 ;; Hardware stack levels required when called: 3
  5410 ;; This function calls:
  5411 ;;		Nothing
  5412 ;; This function is called by:
  5413 ;;		_EUSART_Initialize
  5414 ;; This function uses a non-reentrant model
  5415 ;;
  5416                           
  5417     072D                     _EUSART_SetErrorHandler:	
  5418                           ;psect for function _EUSART_SetErrorHandler
  5419                           
  5420     072D                     l2249:	
  5421                           ;incstack = 0
  5422                           ; Regs used in _EUSART_SetErrorHandler: [wreg]
  5423                           
  5424                           
  5425                           ;mcc_generated_files/eusart.c: 166:     EUSART_ErrorHandler = interruptHandler;
  5426     072D  0871               	movf	EUSART_SetErrorHandler@interruptHandler+1,w
  5427     072E  0020               	movlb	0	; select bank0
  5428     072F  00BC               	movwf	_EUSART_ErrorHandler+1
  5429     0730  0870               	movf	EUSART_SetErrorHandler@interruptHandler,w
  5430     0731  00BB               	movwf	_EUSART_ErrorHandler
  5431     0732                     l591:
  5432     0732  0008               	return
  5433     0733                     __end_of_EUSART_SetErrorHandler:
  5434                           
  5435                           	psect	text21
  5436     070E                     __ptext21:	
  5437 ;; *************** function _ADC_Initialize *****************
  5438 ;; Defined at:
  5439 ;;		line 67 in file "mcc_generated_files/adc.c"
  5440 ;; Parameters:    Size  Location     Type
  5441 ;;		None
  5442 ;; Auto vars:     Size  Location     Type
  5443 ;;		None
  5444 ;; Return value:  Size  Location     Type
  5445 ;;                  1    wreg      void 
  5446 ;; Registers used:
  5447 ;;		status,2
  5448 ;; Tracked objects:
  5449 ;;		On entry : 0/0
  5450 ;;		On exit  : 0/0
  5451 ;;		Unchanged: 0/0
  5452 ;; Data sizes:     COMMON   BANK0   BANK1   BANK2   BANK3   BANK4   BANK5   BANK6
  5453 ;;      Params:         0       0       0       0       0       0       0       0
  5454 ;;      Locals:         0       0       0       0       0       0       0       0
  5455 ;;      Temps:          0       0       0       0       0       0       0       0
  5456 ;;      Totals:         0       0       0       0       0       0       0       0
  5457 ;;Total ram usage:        0 bytes
  5458 ;; Hardware stack levels used: 1
  5459 ;; Hardware stack levels required when called: 3
  5460 ;; This function calls:
  5461 ;;		Nothing
  5462 ;; This function is called by:
  5463 ;;		_SYSTEM_Initialize
  5464 ;; This function uses a non-reentrant model
  5465 ;;
  5466                           
  5467     070E                     _ADC_Initialize:	
  5468                           ;psect for function _ADC_Initialize
  5469                           
  5470     070E                     l2291:	
  5471                           ;incstack = 0
  5472                           ; Regs used in _ADC_Initialize: [status,2]
  5473                           
  5474                           
  5475                           ;mcc_generated_files/adc.c: 72:     ADCON1 = 0x00;
  5476     070E  0021               	movlb	1	; select bank1
  5477     070F  019E               	clrf	30	;volatile
  5478                           
  5479                           ;mcc_generated_files/adc.c: 75:     ADRESL = 0x00;
  5480     0710  019B               	clrf	27	;volatile
  5481                           
  5482                           ;mcc_generated_files/adc.c: 78:     ADRESH = 0x00;
  5483     0711  019C               	clrf	28	;volatile
  5484     0712                     l2293:
  5485                           
  5486                           ;mcc_generated_files/adc.c: 81:     ADCON0 = 0x01;
  5487     0712  3001               	movlw	1
  5488     0713  009D               	movwf	29	;volatile
  5489     0714                     l448:
  5490     0714  0008               	return
  5491     0715                     __end_of_ADC_Initialize:
  5492                           
  5493                           	psect	intentry
  5494     0004                     __pintentry:	
  5495 ;; *************** function _INTERRUPT_InterruptManager *****************
  5496 ;; Defined at:
  5497 ;;		line 52 in file "mcc_generated_files/interrupt_manager.c"
  5498 ;; Parameters:    Size  Location     Type
  5499 ;;		None
  5500 ;; Auto vars:     Size  Location     Type
  5501 ;;		None
  5502 ;; Return value:  Size  Location     Type
  5503 ;;                  1    wreg      void 
  5504 ;; Registers used:
  5505 ;;		wreg, status,2, status,0, pclath, cstack
  5506 ;; Tracked objects:
  5507 ;;		On entry : 0/0
  5508 ;;		On exit  : 0/0
  5509 ;;		Unchanged: 0/0
  5510 ;; Data sizes:     COMMON   BANK0   BANK1   BANK2   BANK3   BANK4   BANK5   BANK6
  5511 ;;      Params:         0       0       0       0       0       0       0       0
  5512 ;;      Locals:         0       0       0       0       0       0       0       0
  5513 ;;      Temps:          0       0       0       0       0       0       0       0
  5514 ;;      Totals:         0       0       0       0       0       0       0       0
  5515 ;;Total ram usage:        0 bytes
  5516 ;; Hardware stack levels used: 1
  5517 ;; Hardware stack levels required when called: 2
  5518 ;; This function calls:
  5519 ;;		_TMR0_ISR
  5520 ;; This function is called by:
  5521 ;;		Interrupt level 1
  5522 ;; This function uses a non-reentrant model
  5523 ;;
  5524                           
  5525     0004                     _INTERRUPT_InterruptManager:
  5526                           
  5527                           ;incstack = 0
  5528     0004  147E               	bsf	int$flags,0	;set compiler interrupt flag (level 1)
  5529                           
  5530                           ; Regs used in _INTERRUPT_InterruptManager: [wreg+status,2+status,0+pclath+cstack]
  5531     0005  3180               	pagesel	$
  5532     0006                     i1l2473:
  5533                           
  5534                           ;mcc_generated_files/interrupt_manager.c: 55:     if(INTCONbits.TMR0IE == 1 && INTCONbit
      +                          s.TMR0IF == 1)
  5535     0006  1E8B               	btfss	11,5	;volatile
  5536     0007  2809               	goto	u158_21
  5537     0008  280A               	goto	u158_20
  5538     0009                     u158_21:
  5539     0009  2811               	goto	i1l368
  5540     000A                     u158_20:
  5541     000A                     i1l2475:
  5542     000A  1D0B               	btfss	11,2	;volatile
  5543     000B  280D               	goto	u159_21
  5544     000C  280E               	goto	u159_20
  5545     000D                     u159_21:
  5546     000D  2811               	goto	i1l368
  5547     000E                     u159_20:
  5548     000E                     i1l2477:
  5549                           
  5550                           ;mcc_generated_files/interrupt_manager.c: 56:     {;mcc_generated_files/interrupt_manage
      +                          r.c: 57:         TMR0_ISR();
  5551     000E  3186  26E5  3180   	fcall	_TMR0_ISR
  5552     0011                     i1l368:	
  5553                           ;mcc_generated_files/interrupt_manager.c: 58:     }
  5554                           
  5555     0011  107E               	bcf	int$flags,0	;clear compiler interrupt flag (level 1)
  5556     0012  0009               	retfie
  5557     0013                     __end_of_INTERRUPT_InterruptManager:
  5558                           
  5559                           	psect	text23
  5560     06E5                     __ptext23:	
  5561 ;; *************** function _TMR0_ISR *****************
  5562 ;; Defined at:
  5563 ;;		line 108 in file "mcc_generated_files/tmr0.c"
  5564 ;; Parameters:    Size  Location     Type
  5565 ;;		None
  5566 ;; Auto vars:     Size  Location     Type
  5567 ;;		None
  5568 ;; Return value:  Size  Location     Type
  5569 ;;                  1    wreg      void 
  5570 ;; Registers used:
  5571 ;;		wreg, status,2, status,0, pclath, cstack
  5572 ;; Tracked objects:
  5573 ;;		On entry : 0/0
  5574 ;;		On exit  : 0/0
  5575 ;;		Unchanged: 0/0
  5576 ;; Data sizes:     COMMON   BANK0   BANK1   BANK2   BANK3   BANK4   BANK5   BANK6
  5577 ;;      Params:         0       0       0       0       0       0       0       0
  5578 ;;      Locals:         0       0       0       0       0       0       0       0
  5579 ;;      Temps:          0       0       0       0       0       0       0       0
  5580 ;;      Totals:         0       0       0       0       0       0       0       0
  5581 ;;Total ram usage:        0 bytes
  5582 ;; Hardware stack levels used: 1
  5583 ;; Hardware stack levels required when called: 1
  5584 ;; This function calls:
  5585 ;;		NULL
  5586 ;;		_TMR0_timerHandler
  5587 ;; This function is called by:
  5588 ;;		_INTERRUPT_InterruptManager
  5589 ;; This function uses a non-reentrant model
  5590 ;;
  5591                           
  5592     06E5                     _TMR0_ISR:	
  5593                           ;psect for function _TMR0_ISR
  5594                           
  5595     06E5                     i1l2459:	
  5596                           ;incstack = 0
  5597                           ; Regs used in _TMR0_ISR: [wreg+status,2+status,0+pclath+cstack]
  5598                           
  5599                           
  5600                           ;mcc_generated_files/tmr0.c: 112:     INTCONbits.TMR0IF = 0;
  5601     06E5  110B               	bcf	11,2	;volatile
  5602     06E6                     i1l2461:
  5603                           
  5604                           ;mcc_generated_files/tmr0.c: 114:     TMR0 = timer0ReloadVal;
  5605     06E6  087C               	movf	_timer0ReloadVal,w	;volatile
  5606     06E7  0020               	movlb	0	; select bank0
  5607     06E8  0095               	movwf	21	;volatile
  5608     06E9                     i1l2463:
  5609                           
  5610                           ;mcc_generated_files/tmr0.c: 116:     if(TMR0_InterruptHandler)
  5611     06E9  0841               	movf	_TMR0_InterruptHandler,w
  5612     06EA  0442               	iorwf	_TMR0_InterruptHandler+1,w
  5613     06EB  1903               	btfsc	3,2
  5614     06EC  2EEE               	goto	u157_21
  5615     06ED  2EEF               	goto	u157_20
  5616     06EE                     u157_21:
  5617     06EE  2EF4               	goto	i1l396
  5618     06EF                     u157_20:
  5619     06EF                     i1l2465:
  5620                           
  5621                           ;mcc_generated_files/tmr0.c: 117:     {;mcc_generated_files/tmr0.c: 118:         TMR0_In
      +                          terruptHandler();
  5622     06EF  0842               	movf	_TMR0_InterruptHandler+1,w
  5623     06F0  008A               	movwf	10
  5624     06F1  0841               	movf	_TMR0_InterruptHandler,w
  5625     06F2  000A               	callw
  5626     06F3  3186               	pagesel	$
  5627     06F4                     i1l396:
  5628     06F4  0008               	return
  5629     06F5                     __end_of_TMR0_ISR:
  5630                           
  5631                           	psect	text24
  5632     0611                     __ptext24:	
  5633 ;; *************** function _TMR0_timerHandler *****************
  5634 ;; Defined at:
  5635 ;;		line 117 in file "main.c"
  5636 ;; Parameters:    Size  Location     Type
  5637 ;;		None
  5638 ;; Auto vars:     Size  Location     Type
  5639 ;;		None
  5640 ;; Return value:  Size  Location     Type
  5641 ;;                  1    wreg      void 
  5642 ;; Registers used:
  5643 ;;		wreg, status,2, status,0
  5644 ;; Tracked objects:
  5645 ;;		On entry : 0/0
  5646 ;;		On exit  : 0/0
  5647 ;;		Unchanged: 0/0
  5648 ;; Data sizes:     COMMON   BANK0   BANK1   BANK2   BANK3   BANK4   BANK5   BANK6
  5649 ;;      Params:         0       0       0       0       0       0       0       0
  5650 ;;      Locals:         0       0       0       0       0       0       0       0
  5651 ;;      Temps:          0       0       0       0       0       0       0       0
  5652 ;;      Totals:         0       0       0       0       0       0       0       0
  5653 ;;Total ram usage:        0 bytes
  5654 ;; Hardware stack levels used: 1
  5655 ;; This function calls:
  5656 ;;		Nothing
  5657 ;; This function is called by:
  5658 ;;		_main
  5659 ;;		_TMR0_ISR
  5660 ;; This function uses a non-reentrant model
  5661 ;;
  5662                           
  5663     0611                     _TMR0_timerHandler:	
  5664                           ;psect for function _TMR0_timerHandler
  5665                           
  5666     0611                     i1l2307:	
  5667                           ;incstack = 0
  5668                           ; Regs used in _TMR0_timerHandler: [wreg+status,2+status,0]
  5669                           
  5670                           
  5671                           ;main.c: 120:     milliseconds++;
  5672     0611  3001               	movlw	1
  5673     0612  0020               	movlb	0	; select bank0
  5674     0613  07AC               	addwf	_milliseconds,f
  5675     0614  3000               	movlw	0
  5676     0615  3DAD               	addwfc	_milliseconds+1,f
  5677     0616  3DAE               	addwfc	_milliseconds+2,f
  5678     0617  3DAF               	addwfc	_milliseconds+3,f
  5679     0618                     i1l2309:
  5680                           
  5681                           ;main.c: 121:     T500ms++;
  5682     0618  3001               	movlw	1
  5683     0619  07B2               	addwf	_T500ms,f
  5684     061A  3000               	movlw	0
  5685     061B  3DB3               	addwfc	_T500ms+1,f
  5686     061C                     i1l2311:
  5687                           
  5688                           ;main.c: 122:     T250ms++;
  5689     061C  3001               	movlw	1
  5690     061D  07B4               	addwf	_T250ms,f
  5691     061E  3000               	movlw	0
  5692     061F  3DB5               	addwfc	_T250ms+1,f
  5693     0620                     i1l2313:
  5694                           
  5695                           ;main.c: 123:     T1000ms++;
  5696     0620  3001               	movlw	1
  5697     0621  07B0               	addwf	_T1000ms,f
  5698     0622  3000               	movlw	0
  5699     0623  3DB1               	addwfc	_T1000ms+1,f
  5700     0624                     i1l2315:
  5701                           
  5702                           ;main.c: 124:     if(T250ms > 250){
  5703     0624  3000               	movlw	0
  5704     0625  0235               	subwf	_T250ms+1,w
  5705     0626  30FB               	movlw	251
  5706     0627  1903               	skipnz
  5707     0628  0234               	subwf	_T250ms,w
  5708     0629  1C03               	skipc
  5709     062A  2E2C               	goto	u125_21
  5710     062B  2E2D               	goto	u125_20
  5711     062C                     u125_21:
  5712     062C  2E2F               	goto	i1l2319
  5713     062D                     u125_20:
  5714     062D                     i1l2317:
  5715                           
  5716                           ;main.c: 125:         T250ms =0;
  5717     062D  01B4               	clrf	_T250ms
  5718     062E  01B5               	clrf	_T250ms+1
  5719     062F                     i1l2319:
  5720                           
  5721                           ;main.c: 129:     if(T500ms > 500){
  5722     062F  3001               	movlw	1
  5723     0630  0233               	subwf	_T500ms+1,w
  5724     0631  30F5               	movlw	245
  5725     0632  1903               	skipnz
  5726     0633  0232               	subwf	_T500ms,w
  5727     0634  1C03               	skipc
  5728     0635  2E37               	goto	u126_21
  5729     0636  2E38               	goto	u126_20
  5730     0637                     u126_21:
  5731     0637  2E3A               	goto	i1l635
  5732     0638                     u126_20:
  5733     0638                     i1l2321:
  5734                           
  5735                           ;main.c: 130:         T500ms =0;
  5736     0638  01B2               	clrf	_T500ms
  5737     0639  01B3               	clrf	_T500ms+1
  5738     063A                     i1l635:
  5739     063A  0008               	return
  5740     063B                     __end_of_TMR0_timerHandler:
  5741     0002                     ___latbits      equ	2
  5742     007E                     btemp           set	126	;btemp
  5743     007E                     int$flags       set	126
  5744     007E                     wtemp0          set	126
  5745                           
  5746                           	psect	config
  5747                           
  5748                           ;Config register CONFIG1 @ 0x8007
  5749                           ;	Oscillator Selection
  5750                           ;	FOSC = INTOSC, INTOSC oscillator: I/O function on CLKIN pin
  5751                           ;	Watchdog Timer Enable
  5752                           ;	WDTE = OFF, WDT disabled
  5753                           ;	Power-up Timer Enable
  5754                           ;	PWRTE = OFF, PWRT disabled
  5755                           ;	MCLR Pin Function Select
  5756                           ;	MCLRE = ON, MCLR/VPP pin function is MCLR
  5757                           ;	Flash Program Memory Code Protection
  5758                           ;	CP = OFF, Program memory code protection is disabled
  5759                           ;	Data Memory Code Protection
  5760                           ;	CPD = OFF, Data memory code protection is disabled
  5761                           ;	Brown-out Reset Enable
  5762                           ;	BOREN = ON, Brown-out Reset enabled
  5763                           ;	Clock Out Enable
  5764                           ;	CLKOUTEN = OFF, CLKOUT function is disabled. I/O or oscillator function on the CLKOUT 
      +                          pin
  5765                           ;	Internal/External Switchover
  5766                           ;	IESO = ON, Internal/External Switchover mode is enabled
  5767                           ;	Fail-Safe Clock Monitor Enable
  5768                           ;	FCMEN = ON, Fail-Safe Clock Monitor is enabled
  5769     8007                     	org	32775
  5770     8007  3FE4               	dw	16356
  5771                           
  5772                           ;Config register CONFIG2 @ 0x8008
  5773                           ;	Flash Memory Self-Write Protection
  5774                           ;	WRT = OFF, Write protection off
  5775                           ;	Voltage Regulator Capacitor Enable
  5776                           ;	VCAPEN = OFF, All VCAP pin functionality is disabled
  5777                           ;	PLL Enable
  5778                           ;	PLLEN = OFF, 4x PLL disabled
  5779                           ;	Stack Overflow/Underflow Reset Enable
  5780                           ;	STVREN = ON, Stack Overflow or Underflow will cause a Reset
  5781                           ;	Brown-out Reset Voltage Selection
  5782                           ;	BORV = LO, Brown-out Reset Voltage (Vbor), low trip point selected.
  5783                           ;	Low-Voltage Programming Enable
  5784                           ;	LVP = OFF, High-voltage on MCLR/VPP must be used for programming
  5785     8008                     	org	32776
  5786     8008  1EFF               	dw	7935

Data Sizes:
    Strings     0
    Constant    0
    Data        2
    BSS         28
    Persistent  40
    Stack       0

Auto Spaces:
    Space          Size  Autos    Used
    COMMON           14     12      14
    BANK0            80      8      44
    BANK1            80      0       0
    BANK2            80      0       0
    BANK3            80      0       0
    BANK4            80      0       0
    BANK5            80      0       0
    BANK6            16      0       0

Pointer List with Targets:

    ADC_InterruptHandler	PTR FTN()void  size(2) Largest target is 1
		 -> NULL(), 

    EUSART_ErrorHandler	PTR FTN()void  size(2) Largest target is 1
		 -> EUSART_DefaultErrorHandler(), NULL(), 

    EUSART_FramingErrorHandler	PTR FTN()void  size(2) Largest target is 1
		 -> EUSART_DefaultFramingErrorHandler(), NULL(), 

    EUSART_OverrunErrorHandler	PTR FTN()void  size(2) Largest target is 1
		 -> EUSART_DefaultOverrunErrorHandler(), NULL(), 

    EUSART_SetErrorHandler@interruptHandler	PTR FTN()void  size(2) Largest target is 1
		 -> EUSART_DefaultErrorHandler(), 

    EUSART_SetFramingErrorHandler@interruptHandler	PTR FTN()void  size(2) Largest target is 1
		 -> EUSART_DefaultFramingErrorHandler(), 

    EUSART_SetOverrunErrorHandler@interruptHandler	PTR FTN()void  size(2) Largest target is 1
		 -> EUSART_DefaultOverrunErrorHandler(), 

    TMR0_InterruptHandler	PTR FTN()void  size(2) Largest target is 1
		 -> TMR0_timerHandler(), NULL(), 

    TMR0_SetInterruptHandler@InterruptHandler	PTR FTN()void  size(2) Largest target is 1
		 -> TMR0_timerHandler(), NULL(), 


Critical Paths under _main in COMMON

    _main->_key_debounce
    _key_debounce->_get_time_ms
    _disp_sub->___lwdiv
    _disp_sub->_disp_7seg
    _disp_7seg->_SSD
    _SSD->_SSLED
    _TMR0_Initialize->_TMR0_SetInterruptHandler
    _EUSART_Initialize->_EUSART_SetErrorHandler
    _EUSART_Initialize->_EUSART_SetFramingErrorHandler
    _EUSART_Initialize->_EUSART_SetOverrunErrorHandler

Critical Paths under _INTERRUPT_InterruptManager in COMMON

    None.

Critical Paths under _main in BANK0

    _main->_disp_sub

Critical Paths under _INTERRUPT_InterruptManager in BANK0

    None.

Critical Paths under _main in BANK1

    None.

Critical Paths under _INTERRUPT_InterruptManager in BANK1

    None.

Critical Paths under _main in BANK2

    None.

Critical Paths under _INTERRUPT_InterruptManager in BANK2

    None.

Critical Paths under _main in BANK3

    None.

Critical Paths under _INTERRUPT_InterruptManager in BANK3

    None.

Critical Paths under _main in BANK4

    None.

Critical Paths under _INTERRUPT_InterruptManager in BANK4

    None.

Critical Paths under _main in BANK5

    None.

Critical Paths under _INTERRUPT_InterruptManager in BANK5

    None.

Critical Paths under _main in BANK6

    None.

Critical Paths under _INTERRUPT_InterruptManager in BANK6

    None.

Call Graph Tables:

 ---------------------------------------------------------------------------------
 (Depth) Function   	        Calls       Base Space   Used Autos Params    Refs
 ---------------------------------------------------------------------------------
 (0) _main                                                 0     0      0    3739
                  _SYSTEM_Initialize
           _TMR0_SetInterruptHandler
                           _disp_sub
                       _key_debounce
 ---------------------------------------------------------------------------------
 (1) _key_debounce                                         9     9      0     201
                                              4 COMMON     8     8      0
                        _get_time_ms
 ---------------------------------------------------------------------------------
 (2) _get_time_ms                                          4     0      4       0
                                              0 COMMON     4     0      4
 ---------------------------------------------------------------------------------
 (1) _disp_sub                                            11    10      1    3421
                                              7 COMMON     3     2      1
                                              0 BANK0      8     8      0
                            ___awmod
                            ___lwdiv
                            ___lwmod
                          _disp_7seg
 ---------------------------------------------------------------------------------
 (2) _disp_7seg                                            3     1      2    2541
                                              4 COMMON     3     1      2
                                _SSD
 ---------------------------------------------------------------------------------
 (3) _SSD                                                  2     1      1    2466
                                              2 COMMON     2     1      1
                              _SSLED
 ---------------------------------------------------------------------------------
 (4) _SSLED                                                2     1      1     713
                                              0 COMMON     2     1      1
                        _LED_DISABLE
 ---------------------------------------------------------------------------------
 (5) _LED_DISABLE                                          0     0      0       0
 ---------------------------------------------------------------------------------
 (2) ___lwmod                                              5     1      4     161
                                              0 COMMON     5     1      4
 ---------------------------------------------------------------------------------
 (2) ___lwdiv                                              7     3      4     164
                                              0 COMMON     7     3      4
 ---------------------------------------------------------------------------------
 (2) ___awmod                                              6     2      4     298
                                              0 COMMON     6     2      4
 ---------------------------------------------------------------------------------
 (1) _SYSTEM_Initialize                                    0     0      0      93
                     _ADC_Initialize
                  _EUSART_Initialize
              _OSCILLATOR_Initialize
             _PIN_MANAGER_Initialize
                    _TMR0_Initialize
                     _WDT_Initialize
 ---------------------------------------------------------------------------------
 (2) _WDT_Initialize                                       0     0      0       0
 ---------------------------------------------------------------------------------
 (2) _TMR0_Initialize                                      0     0      0      24
           _TMR0_SetInterruptHandler
 ---------------------------------------------------------------------------------
 (1) _TMR0_SetInterruptHandler                             2     0      2      24
                                              0 COMMON     2     0      2
 ---------------------------------------------------------------------------------
 (2) _PIN_MANAGER_Initialize                               0     0      0       0
 ---------------------------------------------------------------------------------
 (2) _OSCILLATOR_Initialize                                0     0      0       0
 ---------------------------------------------------------------------------------
 (2) _EUSART_Initialize                                    0     0      0      69
             _EUSART_SetErrorHandler
      _EUSART_SetFramingErrorHandler
      _EUSART_SetOverrunErrorHandler
 ---------------------------------------------------------------------------------
 (3) _EUSART_SetOverrunErrorHandler                        2     0      2      23
                                              0 COMMON     2     0      2
 ---------------------------------------------------------------------------------
 (3) _EUSART_SetFramingErrorHandler                        2     0      2      23
                                              0 COMMON     2     0      2
 ---------------------------------------------------------------------------------
 (3) _EUSART_SetErrorHandler                               2     0      2      23
                                              0 COMMON     2     0      2
 ---------------------------------------------------------------------------------
 (2) _ADC_Initialize                                       0     0      0       0
 ---------------------------------------------------------------------------------
 Estimated maximum stack depth 5
 ---------------------------------------------------------------------------------
 (Depth) Function   	        Calls       Base Space   Used Autos Params    Refs
 ---------------------------------------------------------------------------------
 (6) _INTERRUPT_InterruptManager                           0     0      0       0
                           _TMR0_ISR
 ---------------------------------------------------------------------------------
 (7) _TMR0_ISR                                             0     0      0       0
                                NULL *
                  _TMR0_timerHandler *
 ---------------------------------------------------------------------------------
 (8) _TMR0_timerHandler                                    0     0      0       0
 ---------------------------------------------------------------------------------
 (8) NULL(Fake)                                            0     0      0       0
 ---------------------------------------------------------------------------------
 Estimated maximum stack depth 8
 ---------------------------------------------------------------------------------

 Call Graph Graphs:

 _main (ROOT)
   _SYSTEM_Initialize
     _ADC_Initialize
     _EUSART_Initialize
       _EUSART_SetErrorHandler
       _EUSART_SetFramingErrorHandler
       _EUSART_SetOverrunErrorHandler
     _OSCILLATOR_Initialize
     _PIN_MANAGER_Initialize
     _TMR0_Initialize
       _TMR0_SetInterruptHandler
     _WDT_Initialize
   _TMR0_SetInterruptHandler
   _disp_sub
     ___awmod
     ___lwdiv
     ___lwmod
     _disp_7seg
       _SSD
         _SSLED
           _LED_DISABLE
   _key_debounce
     _get_time_ms

 _INTERRUPT_InterruptManager (ROOT)
   _TMR0_ISR
     NULL(Fake) *
     _TMR0_timerHandler *

Address spaces:
Name               Size   Autos  Total    Usage
BITCOMMON           14      0       0      0.0%
BITBANK0            80      0       0      0.0%
BITBANK1            80      0       0      0.0%
BITBANK2            80      0       0      0.0%
BITBANK3            80      0       0      0.0%
BITBANK4            80      0       0      0.0%
BITBANK5            80      0       0      0.0%
BITBANK6            16      0       0      0.0%
BIGRAM             496      0       0      0.0%
COMMON              14     12      14    100.0%
BANK0               80      8      44     55.0%
BANK1               80      0       0      0.0%
BANK2               80      0       0      0.0%
BANK3               80      0       0      0.0%
BANK4               80      0       0      0.0%
BANK5               80      0       0      0.0%
BANK6               16      0       0      0.0%
STACK                0      0       0      0.0%
DATA                 0      0      58      0.0%


Microchip Technology PIC Macro Assembler V3.00 build 20241204225717 
Symbol Table                                                                                   Thu Jun 05 17:06:49 2025

                                 ?_get_time_ms 0070                                             l20 0553  
                                           l30 0702                                             l23 06A2  
                                           l32 0703                                             l17 052B  
                                           l34 0704                                             l26 06FF  
                                           l36 0705                                             l28 0701  
                                           l38 0706                                _timer0ReloadVal 007C  
                                          l121 0358                                            l113 0353  
                                          l131 035E                                            l123 0359  
                                          l115 0355                                            l133 035F  
                                          l125 035A                                            l117 0356  
                                          l135 0360                                            l127 035C  
                                          l119 0357                                            l129 035D  
                                          l323 02D7                                            l500 06BD  
                                          l431 0736                                            l425 06E4  
                                          l329 02D7                                            l338 06FE  
                                          l347 04CD                                            l428 070D  
                                          l349 04CC                                            l357 04FC  
                                          l383 06D1                                            l448 0714  
                                          l546 0682                                            l626 0647  
                                          l299 046E                                            l591 0732  
                                          l399 0720                                            l585 072C  
                                          l588 0726                                            l951 05A4  
                                          u900 0333                                            u901 0332  
                                          u910 0343                                            u911 0342  
                                          u920 0353                                            u840 02DE  
                                          u921 0352                                            u841 02DD  
                                          u930 0368                                            u850 02E3  
                                          u931 0367                                            u851 02E2  
                                          u940 036D                                            u860 02F3  
                                          u941 036C                                            u861 02F2  
                                          u950 037D                                            u870 0303  
                                          u951 037C                                            u871 0302  
                                          u960 038D                                            u880 0313  
                                          u961 038C                                            u881 0312  
                                          u970 039D                                            u890 0323  
                                          u971 039C                                            u891 0322  
                                          u980 03AD                                            u981 03AC  
                                          u990 03BD                                            _SSD 002A  
                                          u991 03BC                 ?_EUSART_SetFramingErrorHandler 0070  
                                 ___awmod@sign 0075                                            wreg 0009  
                                         ?_SSD 0072                                           l2001 0375  
                                         l2011 0383                                           l2003 0377  
                                         l2101 03FC                                           l2021 0392  
                                         l2013 0385                                           l2005 037D  
                                         l2111 040A                                           l2103 0402  
                                         l2031 03A0                                           l2023 0393  
                                         l2007 0380                                           l2015 0387  
                                         l1065 05DE                                           l2121 0418  
                                         l2105 0405                                           l2113 040C  
                                         l2041 03AD                                           l2033 03A2  
                                         l2025 0395                                           l2017 038D  
                                         l2009 0382                                           l2201 00C2  
                                         l1075 0610                                           l2131 0427  
                                         l2123 041A                                           l2115 0412  
                                         l2107 0407                                           l2043 03B0  
                                         l2051 03B7                                           l2035 03A3  
                                         l2019 0390                                           l2027 0397  
                                         l2211 014F                                           l2203 00ED  
                                         l2301 0672                                           l2141 0435  
                                         l2133 0428                                           l2117 0415  
                                         l2125 041C                                           l2109 0408  
                                         l2061 03C5                                           l2053 03BD  
                                         l2045 03B2                                           l2037 03A5  
                                         l2029 039D                                           l2221 01B7  
                                         l2213 0155                                           l2205 00F3  
                                         l2303 0679                                           l2151 0442  
                                         l2143 0437                                           l2135 042A  
                                         l2127 0422                                           l2119 0417  
                                         l2071 03D3                                           l2055 03C0  
                                         l2063 03C7                                           l2047 03B3  
                                         l2039 03A7                                           l2231 0244  
                                         l2223 01E2                                           l2215 0180  
                                         l2207 011E                                           l2305 0680  
                                         l2401 0601                                           l2153 0445  
                                         l2161 044C                                           l2145 0438  
                                         l2129 0425                                           l2137 042C  
                                         l2081 03E2                                           l2073 03D5  
                                         l2065 03CD                                           l2057 03C2  
                                         l2049 03B5                                           l2241 02AC  
                                         l2233 024A                                           l2225 01E8  
                                         l2217 0186                                           l2209 0124  
                                         l2243 071B                                           l2331 0560  
                                         l2323 0554                                           l2403 0606  
                                         l2171 045A                                           l2163 0452  
                                         l2155 0447                                           l2147 043A  
                                         l2139 0432                                           l2091 03F2  
                                         l2083 03E3                                           l2067 03D0  
                                         l2075 03D7                                           l2059 03C3  
                                         l2235 0275                                           l2227 0213  
                                         l2219 01B1                                           l2251 0684  
                                         l2411 0506                                           l2245 0727  
                                         l2261 06C6                                           l2341 0577  
                                         l2333 0564                                           l2325 0555  
                                         l2405 060C                                           l2181 0468  
                                         l2165 0455                                           l2173 045C  
                                         l2157 0448                                           l2149 043C  
                                         l2093 03F5                                           l2085 03E5  
                                         l2077 03DD                                           l2069 03D2  
                                         l2237 027B                                           l2229 0219  
                                         l2413 0514                                           l2253 06F5  
                                         l2501 0655                                           l2247 0721  
                                         l2271 06A8                                           l2263 06C8  
                                         l2351 0590                                           l2343 0579  
                                         l2335 0569                                           l2327 0559  
                                         l2183 046A                                           l2175 0462  
                                         l2167 0457                                           l2159 044A  
                                         l2095 03F7                                           l2079 03E0  
                                         l2087 03E7                                           l2239 02A6  
                                         l2191 005B                                           l2415 051A  
                                         l2431 046F                                           l2503 0657  
                                         l2249 072D                                           l2281 06B4  
                                         l2273 06AB                                           l2265 06C9  
                                         l2257 06BE                                           l2345 057D  
                                         l2337 056F                                           l2353 0596  
                                         l2329 055E                                           l2361 05A5  
                                         l2177 0465                                           l2169 0458  
                                         l2097 03F8                                           l2089 03ED  
                                         l2185 046B                                           l2193 0060  
                                         l2425 053D                                           l2417 0539  
                                         l2409 04FF                                           l2441 048E  
                                         l2433 047A                                           l2505 0658  
                                         l2291 070E                                           l2283 06B9  
                                         l2275 06AD                                           l2267 06CA  
                                         l2259 06C3                                           l2355 059B  
                                         l2347 0587                                           l2339 0572  
                                         l2371 05B7                                           l2363 05A7  
                                         l2179 0467                                           l2099 03FA  
                                         l2195 008B                                           l2187 002B  
                                         l2427 0545                                           l2419 053B  
                                         l2451 04D2                                           l2443 04A8  
                                         l2435 047F                                           l2293 0712  
                                         l2285 0707                                           l2277 06AF  
                                         l2269 06A3                                           l2357 05A0  
                                         l2349 058B                                           l2381 05D4  
                                         l2373 05BB                                           l2365 05AD  
                                         l1901 02D9                                           l2197 0091  
                                         l2189 0030                                           l2429 054A  
                                         l2453 04DD                                           l2445 04AC  
                                         l2437 047F                                           l2295 0661  
                                         l2287 070A                                           l2279 06B1  
                                         l2471 06E1                                           l2375 05CA  
                                         l2367 05B0                                           l2383 05DA  
                                         l2391 05E8                                           l1911 02E9  
                                         l1903 02DE                                           l2199 00BC  
                                         l2455 04F8                                           l2447 04C8  
                                         l2439 0484                                           l2297 066A  
                                         l2289 0733                                           l2377 05CE  
                                         l2369 05B5                                           l2393 05ED  
                                         l1921 02F8                                           l1913 02EB  
                                         l1905 02E3                                           l2457 04FA  
                                         l2449 04CD                                           l2299 066B  
                                         l2467 06D2                                           l2379 05CF  
                                         l2395 05EF                                           l2387 05DF  
                                         l1931 0306                                           l1923 02F9  
                                         l1907 02E6                                           l1915 02ED  
                                         l2491 063B                                           l2469 06DE  
                                         l2397 05F3                                           l2389 05E5  
                                         l1941 0313                                           l1933 0308  
                                         l1925 02FB                                           l1917 02F3  
                                         l1909 02E8                                           l2493 0645  
                                         l2399 05FD                                           l1943 0316  
                                         l1951 031D                                           l1935 0309  
                                         l1919 02F6                                           l1927 02FD  
                                         l2495 0646                                           l1961 032B  
                                         l1953 0323                                           l1945 0318  
                                         l1937 030B                                           l1929 0303  
                                         l2497 064A                                           l1971 0339  
                                         l1955 0326                                           l1963 032D  
                                         l1947 0319                                           l1939 030D  
                                         l2499 0650                                           l1981 0348  
                                         l1973 033B                                           l1965 0333  
                                         l1957 0328                                           l1949 031B  
                                         l1991 0368                                           l1983 0349  
                                         l1967 0336                                           l1975 033D  
                                         l1959 0329                                           l1993 036D  
                                         l1985 034B                                           l1977 0343  
                                         l1969 0338                                           l1995 0370  
                                         l1979 0346                                           l1987 034D  
                                         l1997 0372                                           l1989 0362  
                                         l1999 0373                                           u1000 03CD  
                                         u1001 03CC                                           u1010 03DD  
                                         u1011 03DC                                           u1100 0462  
                                         u1020 03ED                                           u1101 0461  
                                         u1021 03EC                                           u1030 03F2  
                                         u1110 0030                                           u1031 03F1  
                                         u1111 002F                                           u1040 0402  
                                         u1200 01E8                                           u1120 0060  
                                         u1041 0401                                           u1201 01E7  
                                         u1121 005F                                           u1050 0412  
                                         u1210 0219                                           u1130 0091  
                                         u1051 0411                                           u1211 0218  
                                         u1131 0090                                           u1060 0422  
                                         u1220 024A                                           u1140 00C2  
                                         u1061 0421                                           u1221 0249  
                                         u1141 00C1                                           u1310 057D  
                                         u1070 0432                                           u1230 027B  
                                         u1150 00F3                                           u1311 057C  
                                         u1071 0431                                           u1231 027A  
                                         u1151 00F2                                           u1320 0587  
                                         u1400 05CA                                           u1080 0442  
                                         u1240 02AC                                           u1160 0124  
                                         u1321 0586                                           u1305 0573  
                                         u1401 05C9                                           u1081 0441  
                                         u1241 02AB                                           u1161 0123  
                                         u1090 0452                                           u1170 0155  
                                         u1091 0451                                           u1171 0154  
                                         u1340 0596                                           u1420 05DA  
                                         u1180 0186                                           u1500 0553  
                                         u1341 0595                                           u1325 0583  
                                         u1421 05D9                                           u1405 05C6  
                                         u1181 0185                                           u1501 0552  
                                         _LATA 010C                                           u1350 059B  
                                         u1270 0559                                           u1430 05E5  
                                         u1190 01B7                                           u1510 047F  
                                         _LATB 010D                                           u1351 059A  
                                         u1335 058C                                           u1271 0558  
                                         u1415 05D0                                           u1431 05E4  
                                         u1191 01B6                                           u1511 047E  
                                         _LATC 010E                                           u1280 0564  
                                         u1360 05AD                                           u1520 0484  
                                         u1281 0563                                           u1361 05AC  
                                         u1521 0483                                           _LATE 0110  
                                         u1290 056F                                           u1450 05F3  
                                         u1530 04A8                                           u1291 056E  
                                         u1451 05F2                                           u1531 04A7  
                                         u1380 05BB                                           u1460 05FD  
                                         u1540 04C8                                           u1620 0650  
                                         u1381 05BA                                           u1461 05FC  
                                         u1445 05E9                                           u1541 04C7  
                                         u1621 064F                                           u1550 04D2  
                                         u1630 0655                                           u1375 05B1  
                                         u1551 04D1                                           u1631 0654  
                                         u1480 060C                                           u1560 04F8  
                                         u1481 060B                                           u1465 05F9  
                                         u1561 04F7                                           u1490 051A  
                                         u1395 05BC                                           u1475 0602  
                                         u1491 0519                                           u1647 046C  
                                         _TMR0 0015                                           _WPUB 020D  
                                         _WPUE 0210                                           _main 063B  
                                         fsr0h 0005                                           indf0 0000  
                                         fsr0l 0004                                           btemp 007E  
                                         start 0013                                          ??_SSD 0073  
                      __end_of_TMR0_Initialize 06D2                  __end_of_OSCILLATOR_Initialize 070E  
                                        ?_main 0070                                          SSD@xn 0072  
                                 disp_sub@temp 0046                                __end_of___awmod 05A5  
                              __end_of___lwdiv 05DF                                __end_of___lwmod 0611  
                                        i1l368 0011                                          i1l635 063A  
                                        i1l396 06F4                                          _RCREG 0199  
                                        _RCSTA 019D                                          _SSLED 02D8  
                                        _TRISA 008C                                          _TRISB 008D  
                                        _TRISC 008E                                          _TRISE 0090  
                                        _TXREG 019A                                          _TXSTA 019E  
                    ?_TMR0_SetInterruptHandler 0070                               __end_of_TMR0_ISR 06F5  
                               _WDT_Initialize 0733                                          pclath 000A  
                                        status 0003                                          wtemp0 007E  
                              __initialization 0015                                   __end_of_main 0661  
                  ?_INTERRUPT_InterruptManager 0070                                  ?_key_debounce 0070  
                                       ??_main 007C                                         ?_SSLED 0070  
                       __end_of_WDT_Initialize 0737              _EUSART_DefaultFramingErrorHandler 0000  
                                       _ADCON0 009D                                         _ADCON1 009E  
                   _EUSART_OverrunErrorHandler 003D                                         SSD@num 0073  
                            _TMR0_timerHandler 0611                                         _ADRESH 009C  
                                       _ADRESL 009B                                         _APFCON 011D  
                                       _T250ms 0034                                         _T500ms 0032  
                                       _ANSELA 018C                                         _ANSELB 018D  
                                       _BORCON 0116                                         i1l2311 061C  
                                       i1l2321 0638                                         i1l2313 0620  
                                       i1l2315 0624                                         i1l2307 0611  
                                       i1l2317 062D                                         i1l2309 0618  
                                       i1l2319 062F                                         i1l2461 06E6  
                                       i1l2463 06E9                                         i1l2465 06EF  
                                       i1l2473 0006                                         i1l2459 06E5  
                                       i1l2475 000A                                         i1l2477 000E  
                                       u125_20 062D                                         u125_21 062C  
                                       u126_20 0638                                         u126_21 0637  
                           ?_TMR0_timerHandler 0070                                         u157_20 06EF  
                                       u157_21 06EE                                         u158_20 000A  
                                       u158_21 0009                                         u159_20 000E  
                                       u159_21 000D                                         _OSCCON 0099  
                                       _SPBRGH 019C                                         _SPBRGL 019B  
                                       _WDTCON 0097                            ??_TMR0_timerHandler 0070  
                             __end_of_disp_sub 0554                                      ??___awmod 0074  
                                    ??___lwdiv 0074                                      ??___lwmod 0074  
                             ?_TMR0_Initialize 0070                                 ??_key_debounce 0074  
                              ___awmod@divisor 0070                                ___awmod@counter 0074  
                                 __pdataCOMMON 007D                      __end_of_TMR0_timerHandler 063B  
                              ?_WDT_Initialize 0070       TMR0_SetInterruptHandler@InterruptHandler 0070  
                            _SYSTEM_Initialize 06D2                        __end_of__initialization 0026  
                           ?_SYSTEM_Initialize 0070                                  __end_of_SSLED 046F  
                               __pcstackCOMMON 0070                                   __pidataBANK0 0738  
                          ??_SYSTEM_Initialize 0072                                      ?_TMR0_ISR 0070  
                                      ??_SSLED 0071                                 _OPTION_REGbits 0095  
              ??_EUSART_SetOverrunErrorHandler 0072                      __end_of_SYSTEM_Initialize 06E5  
                                   __pbssBANK0 0020                                     __pmaintext 063B  
             __end_of_TMR0_SetInterruptHandler 0721                                     ??_TMR0_ISR 0070  
                                      SSLED@nu 0071                                        SSLED@xa 0070  
                                   __pintentry 0004                                        _T1000ms 0030  
                                      _BAUDCON 019F                                        _OSCTUNE 0098  
                     ??_EUSART_SetErrorHandler 0072                                      ?_disp_sub 0077  
                         __end_of_key_debounce 04FD                           _ADC_InterruptHandler 0036  
                            __end_of_disp_7seg 06A3                                        ___awmod 0554  
                                      ___lwdiv 05A5                                        ___lwmod 05DF  
                    key_debounce@previous_time 0028                                        __ptext1 046F  
                                      __ptext2 06F5                                        __ptext3 04FD  
                                      __ptext4 0683                                        __ptext5 002A  
                                      __ptext6 02D8                                        __ptext7 06FF  
                                      __ptext8 05DF                                        __ptext9 05A5  
                        _OSCILLATOR_Initialize 0707                               ___awmod@dividend 0072  
                     ??_PIN_MANAGER_Initialize 0070                                        clrloop0 0716  
                                   ??_disp_sub 0078                           end_of_initialization 0026  
        __end_of_EUSART_SetOverrunErrorHandler 0727                  _EUSART_SetOverrunErrorHandler 0721  
                            _EUSART_Initialize 0661                             ?_EUSART_Initialize 0070  
                                    _RCSTAbits 019D                            ??_EUSART_Initialize 0072  
                             ??_WDT_Initialize 0070                       _TMR0_SetInterruptHandler 071B  
                                    _PORTBbits 000D                                      _TRISAbits 008C  
                                    _TRISCbits 008E                      __end_of_EUSART_Initialize 0683  
                                    _TXSTAbits 019E                                  ??_LED_DISABLE 0070  
                                ??_get_time_ms 0074                     _EUSART_DefaultErrorHandler 0000  
                                __pidataCOMMON 0737                                 _ADC_Initialize 070E  
                       ?_OSCILLATOR_Initialize 0070                            start_initialization 0015  
                                  __end_of_SSD 02D8                 ?_EUSART_SetOverrunErrorHandler 0070  
                   _EUSART_FramingErrorHandler 003F                       key_debounce@current_time 0078  
                       _EUSART_SetErrorHandler 072D                            __end_of_LED_DISABLE 0707  
                       __end_of_ADC_Initialize 0715                                    __pdataBANK0 004B  
                                 _key_debounce 046F                            __end_of_get_time_ms 06FF  
                                  __pbssCOMMON 007C                                      ___latbits 0002  
                                __pcstackBANK0 0043                          _TMR0_InterruptHandler 0041  
                                 _current_time 0024                                      __pnvBANK0 003B  
                             ___lwdiv@dividend 0072                         _PIN_MANAGER_Initialize 06A3  
                                     ?___awmod 0070                                       ?___lwdiv 0070  
                                     ?___lwmod 0070                                ?_ADC_Initialize 0070  
                                    _disp_7seg 0683                   ??_INTERRUPT_InterruptManager 0070  
                                    _last_time 0020                               ___lwdiv@quotient 0074  
                            ??_TMR0_Initialize 0072                                       _LATAbits 010C  
       EUSART_SetErrorHandler@interruptHandler 0070                                       _LATCbits 010E  
                                 _milliseconds 002C                                      clear_ram0 0715  
                                  _LED_DISABLE 06FF                              _eusartRxLastError 0039  
                   ??_TMR0_SetInterruptHandler 0072                                       _PIR1bits 0011  
              ??_EUSART_SetFramingErrorHandler 0072                                    _get_time_ms 06F5  
                                     _TMR0_ISR 06E5              _EUSART_DefaultOverrunErrorHandler 0000  
                                   ?_disp_7seg 0074                              disp_sub@disp_char 0077  
                            disp_sub@disp_temp 0043                                     _ADCON0bits 009D  
                                    disp_sub@i 0048                        ??_OSCILLATOR_Initialize 0070  
                          _EUSART_ErrorHandler 003B                               _flag_Key_release 004B  
                              ___lwdiv@divisor 0070                                ___lwdiv@counter 0076  
                                     __ptext10 0554                                       __ptext11 06D2  
                                     __ptext20 072D                                       __ptext12 0733  
                                     __ptext21 070E                                       __ptext13 06BE  
                                     __ptext14 071B                                       __ptext23 06E5  
                                     __ptext15 06A3                                       __ptext24 0611  
                                     __ptext16 0707                                       __ptext17 0661  
                                     __ptext18 0721                                       __ptext19 0727  
                                     _disp_sub 04FD                                 disp_7seg@char1 0076  
                               disp_7seg@char2 0074                                 disp_7seg@char3 0075  
                      ?_EUSART_SetErrorHandler 0070                                       _temp_cnt 0038  
EUSART_SetOverrunErrorHandler@interruptHandler 0070                                       int$flags 007E  
                                  ??_disp_7seg 0076             __end_of_INTERRUPT_InterruptManager 0013  
                   _INTERRUPT_InterruptManager 0004          __end_of_EUSART_SetFramingErrorHandler 072D  
                _EUSART_SetFramingErrorHandler 0727                                     _INTCONbits 000B  
                                     intlevel1 0000                               ___lwmod@dividend 0072  
                      ?_PIN_MANAGER_Initialize 0070                 __end_of_EUSART_SetErrorHandler 0733  
                             ??_ADC_Initialize 0070                       disp_sub@display_digital1 004A  
                     disp_sub@display_digital2 0044                       disp_sub@display_digital3 0045  
EUSART_SetFramingErrorHandler@interruptHandler 0070                                     _OPTION_REG 0095  
                              ___lwmod@divisor 0070                                _TMR0_Initialize 06BE  
                              ___lwmod@counter 0074                                     _SW1_STATUS 003A  
               key_debounce@sw1_previous_state 007D                 __end_of_PIN_MANAGER_Initialize 06BE  
                                 ?_LED_DISABLE 0070  
